

Microchip MPLAB XC8 Assembler V2.32 build 20210201212658 
                                                                                               Fri Jun 04 19:36:34 2021

Microchip MPLAB XC8 C Compiler v2.32 (Free license) build 20210201212658 Og1 
     1                           	processor	18F57Q43
     2                           	fnconf	rparam,??,?,0
     3                           	pagewidth 120
     4                           	opt	flic
     5                           	psect	idataBANK5,global,class=CODE,delta=1,noexec
     6                           	psect	nvBANK5,global,class=BANK5,space=1,delta=1,lowdata,noexec
     7                           	psect	nvBANK6,global,class=BANK6,space=1,delta=1,lowdata,noexec
     8                           	psect	smallconst,global,reloc=2,class=SMALLCONST,delta=1,noexec
     9                           	psect	cinit,global,reloc=2,class=CODE,delta=1
    10                           	psect	bssBANK5,global,class=BANK5,space=1,delta=1,lowdata,noexec
    11                           	psect	dataBANK5,global,class=BANK5,space=1,delta=1,lowdata,noexec
    12                           	psect	bssBANK6,global,class=BANK6,space=1,delta=1,lowdata,noexec
    13                           	psect	cstackBANK6,global,class=BANK6,space=1,delta=1,lowdata,noexec
    14                           	psect	cstackBANK5,global,class=BANK5,space=1,delta=1,lowdata,noexec
    15                           	psect	cstackCOMRAM,global,class=COMRAM,space=1,delta=1,lowdata,noexec
    16                           	psect	text0,global,reloc=2,class=CODE,delta=1
    17                           	psect	text1,global,reloc=2,class=CODE,delta=1
    18                           	psect	text2,global,reloc=2,class=CODE,delta=1
    19                           	psect	text3,global,reloc=2,class=CODE,delta=1
    20                           	psect	text4,global,reloc=2,class=CODE,delta=1
    21                           	psect	text5,global,reloc=2,class=CODE,delta=1
    22                           	psect	text6,global,reloc=2,class=CODE,delta=1
    23                           	psect	text7,global,reloc=2,class=CODE,delta=1
    24                           	psect	text8,global,reloc=2,class=CODE,delta=1
    25                           	psect	text9,global,reloc=2,class=CODE,delta=1
    26                           	psect	text10,global,reloc=2,class=CODE,delta=1
    27                           	psect	text11,global,reloc=2,class=CODE,delta=1
    28                           	psect	text12,global,reloc=2,class=CODE,delta=1
    29                           	psect	text13,global,reloc=2,class=CODE,delta=1
    30                           	psect	text14,global,reloc=2,class=CODE,delta=1
    31                           	psect	text15,global,reloc=2,class=CODE,delta=1
    32                           	psect	text16,global,reloc=2,class=CODE,delta=1
    33                           	psect	text17,global,reloc=2,class=CODE,delta=1
    34                           	psect	text18,global,reloc=2,class=CODE,delta=1
    35                           	psect	text19,global,reloc=2,class=CODE,delta=1
    36                           	psect	text20,global,reloc=2,class=CODE,delta=1
    37                           	psect	text21,global,reloc=2,class=CODE,delta=1,group=3
    38                           	psect	text22,global,reloc=2,class=CODE,delta=1
    39                           	psect	text23,global,reloc=2,class=CODE,delta=1
    40                           	psect	text24,global,reloc=2,class=CODE,delta=1
    41                           	psect	text25,global,reloc=2,class=CODE,delta=1
    42                           	psect	text26,global,reloc=2,class=CODE,delta=1,group=3
    43                           	psect	text27,global,reloc=2,class=CODE,delta=1,group=1
    44                           	psect	text28,global,reloc=2,class=CODE,delta=1,group=1
    45                           	psect	text29,global,reloc=2,class=CODE,delta=1,group=1
    46                           	psect	text30,global,reloc=2,class=CODE,delta=1,group=3
    47                           	psect	text31,global,reloc=2,class=CODE,delta=1,group=3
    48                           	psect	text32,global,reloc=2,class=CODE,delta=1,group=3
    49                           	psect	text33,global,reloc=2,class=CODE,delta=1,group=1
    50                           	psect	text34,global,reloc=2,class=CODE,delta=1,group=2
    51                           	psect	text35,global,reloc=2,class=CODE,delta=1,group=2
    52                           	psect	text36,global,reloc=2,class=CODE,delta=1,group=3
    53                           	psect	text37,global,reloc=2,class=CODE,delta=1,group=1
    54                           	psect	text38,global,reloc=2,class=CODE,delta=1,group=1
    55                           	psect	text39,global,reloc=2,class=CODE,delta=1,group=3
    56                           	psect	text40,global,reloc=2,class=CODE,delta=1,group=3
    57                           	psect	text41,global,reloc=2,class=CODE,delta=1,group=3
    58                           	psect	text42,global,reloc=2,class=CODE,delta=1,group=1
    59                           	psect	text43,global,reloc=2,class=CODE,delta=1,group=3
    60                           	psect	text44,global,reloc=2,class=CODE,delta=1,group=3
    61                           	psect	text45,global,reloc=2,class=CODE,delta=1,group=3
    62                           	psect	text46,global,reloc=2,class=CODE,delta=1
    63                           	psect	text47,global,reloc=2,class=CODE,delta=1
    64                           	psect	text48,global,reloc=2,class=CODE,delta=1,group=3
    65                           	psect	text49,global,reloc=2,class=CODE,delta=1,group=3
    66                           	psect	text50,global,reloc=2,class=CODE,delta=1,group=2
    67                           	psect	text51,global,reloc=2,class=CODE,delta=1,group=2
    68                           	psect	text52,global,reloc=2,class=CODE,delta=1,group=2
    69                           	psect	text53,global,reloc=2,class=CODE,delta=1,group=2
    70                           	psect	text54,global,reloc=2,class=CODE,delta=1,group=2
    71                           	psect	text55,global,reloc=2,class=CODE,delta=1,group=2
    72                           	psect	text56,global,reloc=2,class=CODE,delta=1,group=2
    73                           	psect	text57,global,reloc=2,class=CODE,delta=1,group=2
    74                           	psect	text58,global,reloc=2,class=CODE,delta=1,group=2
    75                           	psect	text59,global,reloc=2,class=CODE,delta=1,group=2
    76                           	psect	text60,global,reloc=2,class=CODE,delta=1,group=3
    77                           	psect	text61,global,reloc=2,class=CODE,delta=1,group=3
    78                           	psect	text62,global,reloc=2,class=CODE,delta=1,group=3
    79                           	psect	text63,global,reloc=2,class=CODE,delta=1,group=2
    80                           	psect	text64,global,reloc=2,class=CODE,delta=1,group=2
    81                           	psect	text65,global,reloc=2,class=CODE,delta=1
    82                           	psect	ivt0x8,global,reloc=2,class=CODE,delta=1,noexec,keep,optim=
    83                           	psect	intsave_regs,global,class=BIGRAM,space=1,delta=1,noexec
    84                           	psect	text66,global,reloc=2,class=CODE,delta=1
    85                           	psect	rparam,global,class=COMRAM,space=1,delta=1,noexec
    86                           	psect	idloc,global,abs,ovrld,class=IDLOC,space=5,delta=1,noexec
    87                           	psect	config,global,abs,ovrld,class=CONFIG,space=4,delta=1,noexec
    88  0000                     
    89                           ; Version 2.30
    90                           ; Generated 20/08/2020 GMT
    91                           ; 
    92                           ; Copyright © 2020, Microchip Technology Inc. and its subsidiaries ("Microchip")
    93                           ; All rights reserved.
    94                           ; 
    95                           ; This software is developed by Microchip Technology Inc. and its subsidiaries ("Microch
      +                          ip").
    96                           ; 
    97                           ; Redistribution and use in source and binary forms, with or without modification, are
    98                           ; permitted provided that the following conditions are met:
    99                           ; 
   100                           ;     1. Redistributions of source code must retain the above copyright notice, this lis
      +                          t of
   101                           ;        conditions and the following disclaimer.
   102                           ; 
   103                           ;     2. Redistributions in binary form must reproduce the above copyright notice, this 
      +                          list
   104                           ;        of conditions and the following disclaimer in the documentation and/or other
   105                           ;        materials provided with the distribution. Publication is not required when
   106                           ;        this file is used in an embedded application.
   107                           ; 
   108                           ;     3. Microchip's name may not be used to endorse or promote products derived from th
      +                          is
   109                           ;        software without specific prior written permission.
   110                           ; 
   111                           ; THIS SOFTWARE IS PROVIDED BY MICROCHIP "AS IS" AND ANY EXPRESS OR IMPLIED WARRANTIES,
   112                           ; INCLUDING, BUT NOT LIMITED TO, THE IMPLIED WARRANTIES OF MERCHANTABILITY AND FITNESS F
      +                          OR
   113                           ; PURPOSE ARE DISCLAIMED.  IN NO EVENT SHALL MICROCHIP BE LIABLE FOR ANY DIRECT, INDIREC
      +                          T,
   114                           ; INCIDENTAL, SPECIAL, EXEMPLARY, OR CONSEQUENTIAL DAMAGES (INCLUDING BUT NOT LIMITED TO
   115                           ; PROCUREMENT OF SUBSTITUTE GOODS OR SERVICES; LOSS OF USE, DATA OR PROFITS; OR BUSINESS
   116                           ; INTERRUPTION) HOWSOEVER CAUSED AND ON ANY THEORY OF LIABILITY, WHETHER IN CONTRACT, ST
      +                          RICT
   117                           ; LIABILITY, OR TORT (INCLUDING NEGLIGENCE OR OTHERWISE) ARISING IN ANY WAY OUT OF THE U
      +                          SE OF
   118                           ; THIS SOFTWARE, EVEN IF ADVISED OF THE POSSIBILITY OF SUCH DAMAGE.
   119                           ; 
   120                           ; 
   121                           ; Code-generator required, PIC18F57Q43 Definitions
   122                           ; 
   123                           ; SFR Addresses
   124  0000                     
   125 ;; Function _UART5_DefaultFramingErrorHandler is unused but had its address taken
   126  0000                     
   127 ;; Function _UART5_DefaultOverrunErrorHandler is unused but had its address taken
   128  0000                     
   129 ;; Function _UART5_DefaultErrorHandler is unused but had its address taken
   130  0000                     
   131 ;; Function _UART1_DefaultFramingErrorHandler is unused but had its address taken
   132  0000                     
   133 ;; Function _UART1_DefaultOverrunErrorHandler is unused but had its address taken
   134  0000                     
   135 ;; Function _UART1_DefaultErrorHandler is unused but had its address taken
   136  0000                     
   137                           	psect	idataBANK5
   138  006978                     __pidataBANK5:
   139                           	callstack 0
   140                           
   141                           ;initializer for stoa@F1155
   142  006978  28                 	db	40
   143  006979  6E                 	db	110
   144  00697A  75                 	db	117
   145  00697B  6C                 	db	108
   146  00697C  6C                 	db	108
   147  00697D  29                 	db	41
   148  00697E  00                 	db	0
   149                           
   150                           	psect	nvBANK5
   151  0005E3                     __pnvBANK5:
   152                           	callstack 0
   153  0005E3                     _TMR0_InterruptHandler:
   154                           	callstack 0
   155  0005E3                     	ds	3
   156  0005E6                     _timer0ReloadVal16bit:
   157                           	callstack 0
   158  0005E6                     	ds	2
   159                           
   160                           	psect	nvBANK6
   161  000652                     __pnvBANK6:
   162                           	callstack 0
   163  000652                     _UART1_ErrorHandler:
   164                           	callstack 0
   165  000652                     	ds	3
   166  000655                     _UART1_OverrunErrorHandler:
   167                           	callstack 0
   168  000655                     	ds	3
   169  000658                     _UART1_FramingErrorHandler:
   170                           	callstack 0
   171  000658                     	ds	3
   172  00065B                     _UART5_ErrorHandler:
   173                           	callstack 0
   174  00065B                     	ds	3
   175  00065E                     _UART5_OverrunErrorHandler:
   176                           	callstack 0
   177  00065E                     	ds	3
   178  000661                     _UART5_FramingErrorHandler:
   179                           	callstack 0
   180  000661                     	ds	3
   181  0000                     _PMD8	set	104
   182  0000                     _PMD7	set	103
   183  0000                     _PMD6	set	102
   184  0000                     _PMD5	set	101
   185  0000                     _PMD4	set	100
   186  0000                     _PMD3	set	99
   187  0000                     _PMD1	set	97
   188  0000                     _PMD0	set	96
   189  0000                     _ACTCON	set	172
   190  0000                     _OSCTUNE	set	176
   191  0000                     _OSCFRQ	set	177
   192  0000                     _OSCEN	set	179
   193  0000                     _OSCCON3	set	175
   194  0000                     _OSCCON1	set	173
   195  0000                     _U1TXB	set	675
   196  0000                     _U1RXB	set	673
   197  0000                     _U1ERRIRbits	set	690
   198  0000                     _U1CON0bits	set	683
   199  0000                     _U1ERRIE	set	691
   200  0000                     _U1ERRIR	set	690
   201  0000                     _U1UIR	set	689
   202  0000                     _U1FIFO	set	688
   203  0000                     _U1BRGH	set	687
   204  0000                     _U1BRGL	set	686
   205  0000                     _U1CON2	set	685
   206  0000                     _U1CON1	set	684
   207  0000                     _U1CON0	set	683
   208  0000                     _U1P3H	set	682
   209  0000                     _U1P3L	set	681
   210  0000                     _U1P2H	set	680
   211  0000                     _U1P2L	set	679
   212  0000                     _U1P1H	set	678
   213  0000                     _U1P1L	set	677
   214  0000                     _U5TXB	set	751
   215  0000                     _U5RXB	set	749
   216  0000                     _U5ERRIRbits	set	766
   217  0000                     _U5CON0bits	set	759
   218  0000                     _U5ERRIE	set	767
   219  0000                     _U5ERRIR	set	766
   220  0000                     _U5UIR	set	765
   221  0000                     _U5FIFO	set	764
   222  0000                     _U5BRGH	set	763
   223  0000                     _U5BRGL	set	762
   224  0000                     _U5CON2	set	761
   225  0000                     _U5CON1	set	760
   226  0000                     _U5CON0	set	759
   227  0000                     _U5P3L	set	757
   228  0000                     _U5P2L	set	755
   229  0000                     _U5P1L	set	753
   230  0000                     _U1RXPPS	set	626
   231  0000                     _RF0PPS	set	553
   232  0000                     _RC2PPS	set	531
   233  0000                     _U5RXPPS	set	634
   234  0000                     _RC4I2C	set	646
   235  0000                     _RC3I2C	set	647
   236  0000                     _RB2I2C	set	648
   237  0000                     _RB1I2C	set	649
   238  0000                     _T0CON0bits	set	794
   239  0000                     _T0CON0	set	794
   240  0000                     _TMR0L	set	792
   241  0000                     _TMR0H	set	793
   242  0000                     _T0CON1	set	795
   243  0000                     _ADCON1bits	set	1012
   244  0000                     _ADERRL	set	989
   245  0000                     _ADERRH	set	990
   246  0000                     _ADPREVL	set	1000
   247  0000                     _ADPREVH	set	1001
   248  0000                     _ADFLTRL	set	993
   249  0000                     _ADFLTRH	set	994
   250  0000                     _ADSTATbits	set	1015
   251  0000                     _ADACCL	set	995
   252  0000                     _ADACCH	set	996
   253  0000                     _ADCON2bits	set	1013
   254  0000                     _ADCNT	set	998
   255  0000                     _ADCON3bits	set	1014
   256  0000                     _ADRESL	set	1002
   257  0000                     _ADRESH	set	1003
   258  0000                     _ADCON0bits	set	1011
   259  0000                     _ADCON0	set	1011
   260  0000                     _ADCLK	set	1018
   261  0000                     _ADACT	set	1017
   262  0000                     _ADREF	set	1016
   263  0000                     _ADSTAT	set	1015
   264  0000                     _ADCON3	set	1014
   265  0000                     _ADCON2	set	1013
   266  0000                     _ADCON1	set	1012
   267  0000                     _ADPREH	set	1010
   268  0000                     _ADPREL	set	1009
   269  0000                     _ADCAP	set	1008
   270  0000                     _ADACQH	set	1007
   271  0000                     _ADACQL	set	1006
   272  0000                     _ADPCH	set	1004
   273  0000                     _ADRPT	set	999
   274  0000                     _ADACCU	set	997
   275  0000                     _ADSTPTH	set	992
   276  0000                     _ADSTPTL	set	991
   277  0000                     _ADUTHH	set	988
   278  0000                     _ADUTHL	set	987
   279  0000                     _ADLTHH	set	986
   280  0000                     _ADLTHL	set	985
   281  0000                     _INLVLF	set	1068
   282  0000                     _INLVLE	set	1060
   283  0000                     _INLVLD	set	1052
   284  0000                     _INLVLC	set	1044
   285  0000                     _INLVLB	set	1036
   286  0000                     _INLVLA	set	1028
   287  0000                     _SLRCONF	set	1067
   288  0000                     _SLRCONE	set	1059
   289  0000                     _SLRCOND	set	1051
   290  0000                     _SLRCONC	set	1043
   291  0000                     _SLRCONB	set	1035
   292  0000                     _SLRCONA	set	1027
   293  0000                     _ODCOND	set	1050
   294  0000                     _ODCONC	set	1042
   295  0000                     _ODCONB	set	1034
   296  0000                     _ODCONA	set	1026
   297  0000                     _ODCONF	set	1066
   298  0000                     _ODCONE	set	1058
   299  0000                     _WPUC	set	1041
   300  0000                     _WPUA	set	1025
   301  0000                     _WPUB	set	1033
   302  0000                     _WPUE	set	1057
   303  0000                     _WPUF	set	1065
   304  0000                     _WPUD	set	1049
   305  0000                     _ANSELA	set	1024
   306  0000                     _ANSELF	set	1064
   307  0000                     _ANSELE	set	1056
   308  0000                     _ANSELB	set	1032
   309  0000                     _ANSELC	set	1040
   310  0000                     _ANSELD	set	1048
   311  0000                     _LATFbits	set	1219
   312  0000                     _PIR3bits	set	1201
   313  0000                     _PIE3bits	set	1185
   314  0000                     _INTCON0bits	set	1238
   315  0000                     _PIR4bits	set	1202
   316  0000                     _PIR13bits	set	1211
   317  0000                     _TRISD	set	1225
   318  0000                     _TRISC	set	1224
   319  0000                     _TRISB	set	1223
   320  0000                     _TRISA	set	1222
   321  0000                     _TRISF	set	1227
   322  0000                     _TRISE	set	1226
   323  0000                     _LATC	set	1216
   324  0000                     _LATB	set	1215
   325  0000                     _LATF	set	1219
   326  0000                     _LATA	set	1214
   327  0000                     _LATD	set	1217
   328  0000                     _LATE	set	1218
   329                           
   330                           	psect	smallconst
   331  002600                     __psmallconst:
   332                           	callstack 0
   333  002600  00                 	db	0
   334  002601                     STR_4:
   335  002601  25                 	db	37
   336  002602  25                 	db	37
   337  002603  20                 	db	32
   338  002604  64                 	db	100	;'d'
   339  002605  65                 	db	101	;'e'
   340  002606  20                 	db	32
   341  002607  48                 	db	72	;'H'
   342  002608  75                 	db	117	;'u'
   343  002609  6D                 	db	109	;'m'
   344  00260A  65                 	db	101	;'e'
   345  00260B  64                 	db	100	;'d'
   346  00260C  61                 	db	97	;'a'
   347  00260D  64                 	db	100	;'d'
   348  00260E  3A                 	db	58	;':'
   349  00260F  20                 	db	32
   350  002610  25                 	db	37
   351  002611  2E                 	db	46
   352  002612  32                 	db	50	;'2'
   353  002613  66                 	db	102	;'f'
   354  002614  0A                 	db	10
   355  002615  00                 	db	0
   356  002616                     STR_3:
   357  002616  76                 	db	118	;'v'
   358  002617  61                 	db	97	;'a'
   359  002618  6C                 	db	108	;'l'
   360  002619  6F                 	db	111	;'o'
   361  00261A  72                 	db	114	;'r'
   362  00261B  20                 	db	32
   363  00261C  68                 	db	104	;'h'
   364  00261D  65                 	db	101	;'e'
   365  00261E  78                 	db	120	;'x'
   366  00261F  3A                 	db	58	;':'
   367  002620  20                 	db	32
   368  002621  25                 	db	37
   369  002622  73                 	db	115	;'s'
   370  002623  0A                 	db	10
   371  002624  00                 	db	0
   372  002625                     STR_1:
   373  002625  76                 	db	118	;'v'
   374  002626  61                 	db	97	;'a'
   375  002627  6C                 	db	108	;'l'
   376  002628  6F                 	db	111	;'o'
   377  002629  72                 	db	114	;'r'
   378  00262A  20                 	db	32
   379  00262B  69                 	db	105	;'i'
   380  00262C  6E                 	db	110	;'n'
   381  00262D  74                 	db	116	;'t'
   382  00262E  3A                 	db	58	;':'
   383  00262F  20                 	db	32
   384  002630  25                 	db	37
   385  002631  75                 	db	117	;'u'
   386  002632  0A                 	db	10
   387  002633  00                 	db	0
   388  002634                     STR_6:
   389  002634  41                 	db	65	;'A'
   390  002635  54                 	db	84	;'T'
   391  002636  24                 	db	36
   392  002637  52                 	db	82	;'R'
   393  002638  43                 	db	67	;'C'
   394  002639  20                 	db	32
   395  00263A  0D                 	db	13
   396  00263B  0A                 	db	10
   397  00263C  00                 	db	0
   398  00263D                     STR_7:
   399  00263D  41                 	db	65	;'A'
   400  00263E  54                 	db	84	;'T'
   401  00263F  24                 	db	36
   402  002640  53                 	db	83	;'S'
   403  002641  46                 	db	70	;'F'
   404  002642  3D                 	db	61	;'='
   405  002643  00                 	db	0
   406  002644                     STR_5:
   407  002644  41                 	db	65	;'A'
   408  002645  54                 	db	84	;'T'
   409  002646  20                 	db	32
   410  002647  0D                 	db	13
   411  002648  0A                 	db	10
   412  002649  00                 	db	0
   413  00264A                     STR_2:
   414  00264A  25                 	db	37
   415  00264B  30                 	db	48	;'0'
   416  00264C  34                 	db	52	;'4'
   417  00264D  78                 	db	120	;'x'
   418  00264E  00                 	db	0
   419  00264F                     STR_9:
   420  00264F  49                 	db	73	;'I'
   421  002650  4E                 	db	78	;'N'
   422  002651  46                 	db	70	;'F'
   423  002652  00                 	db	0
   424  002653                     STR_13:
   425  002653  4E                 	db	78	;'N'
   426  002654  41                 	db	65	;'A'
   427  002655  4E                 	db	78	;'N'
   428  002656  00                 	db	0
   429  002657                     STR_10:
   430  002657  69                 	db	105	;'i'
   431  002658  6E                 	db	110	;'n'
   432  002659  66                 	db	102	;'f'
   433  00265A  00                 	db	0
   434  00265B                     STR_14:
   435  00265B  6E                 	db	110	;'n'
   436  00265C  61                 	db	97	;'a'
   437  00265D  6E                 	db	110	;'n'
   438  00265E  00                 	db	0
   439  00265F                     STR_17:
   440  00265F  6C                 	db	108	;'l'
   441  002660  66                 	db	102	;'f'
   442  002661  00                 	db	0
   443  002662  00                 	db	0	; dummy byte at the end
   444  0000                     
   445                           ; #config settings
   446                           
   447                           	psect	cinit
   448  006506                     __pcinit:
   449                           	callstack 0
   450  006506                     start_initialization:
   451                           	callstack 0
   452  006506                     __initialization:
   453                           	callstack 0
   454                           
   455                           ; Initialize objects allocated to BANK5 (7 bytes)
   456                           ; load TBLPTR registers with __pidataBANK5
   457  006506  0E78               	movlw	low __pidataBANK5
   458  006508  6EF6               	movwf	tblptrl,c
   459  00650A  0E69               	movlw	high __pidataBANK5
   460  00650C  6EF7               	movwf	tblptrh,c
   461  00650E  0E00               	movlw	low (__pidataBANK5 shr (0+16))
   462  006510  6EF8               	movwf	tblptru,c
   463  006512  EE01  F1DC         	lfsr	0,__pdataBANK5
   464  006516  EE10 F007          	lfsr	1,7
   465  00651A                     copy_data0:
   466  00651A  0009               	tblrd		*+
   467  00651C  C4F5 F4EE          	movff	tablat,postinc0
   468  006520  50E5               	movf	postdec1,w,c
   469  006522  50E1               	movf	fsr1l,w,c
   470  006524  E1FA               	bnz	copy_data0
   471                           
   472                           ; Clear objects allocated to BANK6 (82 bytes)
   473  006526  EE01  F200         	lfsr	0,__pbssBANK6
   474  00652A  0E52               	movlw	82
   475  00652C                     clear_0:
   476  00652C  6AEE               	clrf	postinc0,c
   477  00652E  06E8               	decf	wreg,f,c
   478  006530  E1FD               	bnz	clear_0
   479                           
   480                           ; Clear objects allocated to BANK5 (16 bytes)
   481  006532  EE01  F1CC         	lfsr	0,__pbssBANK5
   482  006536  0E10               	movlw	16
   483  006538                     clear_1:
   484  006538  6AEE               	clrf	postinc0,c
   485  00653A  06E8               	decf	wreg,f,c
   486  00653C  E1FD               	bnz	clear_1
   487                           
   488                           ;
   489                           ; Setup IVTBASE
   490                           ;
   491  00653E  0104               	movlb	4
   492  006540  0E08               	movlw	(ivt0x8_base shr 0)& (0+255)
   493  006542  6F5D               	movwf	93,b
   494  006544  0E00               	movlw	(ivt0x8_base shr (0+8))& (0+255)
   495  006546  6F5E               	movwf	94,b
   496  006548  0E00               	movlw	(ivt0x8_base shr (0+16))& (0+255)
   497  00654A  6F5F               	movwf	95,b
   498  00654C                     end_of_initialization:
   499                           	callstack 0
   500  00654C                     __end_of__initialization:
   501                           	callstack 0
   502  00654C  0100               	movlb	0
   503  00654E  EF3E  F034         	goto	_main	;jump to C main() function
   504                           
   505                           	psect	bssBANK5
   506  0005CC                     __pbssBANK5:
   507                           	callstack 0
   508  0005CC                     floorf@F527:
   509                           	callstack 0
   510  0005CC                     	ds	4
   511  0005D0                     ___fpclassifyf@F465:
   512                           	callstack 0
   513  0005D0                     	ds	4
   514  0005D4                     _nout:
   515                           	callstack 0
   516  0005D4                     	ds	2
   517  0005D6                     _width:
   518                           	callstack 0
   519  0005D6                     	ds	2
   520  0005D8                     _prec:
   521                           	callstack 0
   522  0005D8                     	ds	2
   523  0005DA                     _flags:
   524                           	callstack 0
   525  0005DA                     	ds	2
   526                           
   527                           	psect	dataBANK5
   528  0005DC                     __pdataBANK5:
   529                           	callstack 0
   530  0005DC                     stoa@F1155:
   531                           	callstack 0
   532  0005DC                     	ds	7
   533                           
   534                           	psect	bssBANK6
   535  000600                     __pbssBANK6:
   536                           	callstack 0
   537  000600                     _uart1RxLastError:
   538                           	callstack 0
   539  000600                     	ds	1
   540  000601                     _uart5RxLastError:
   541                           	callstack 0
   542  000601                     	ds	1
   543  000602                     _dbuf:
   544                           	callstack 0
   545  000602                     	ds	80
   546                           
   547                           	psect	cstackBANK6
   548  000664                     __pcstackBANK6:
   549                           	callstack 0
   550  000664                     UART5_SetFramingErrorHandler@interruptHandler:
   551                           	callstack 0
   552  000664                     UART5_SetOverrunErrorHandler@interruptHandler:
   553                           	callstack 0
   554  000664                     UART5_SetErrorHandler@interruptHandler:
   555                           	callstack 0
   556  000664                     UART1_SetFramingErrorHandler@interruptHandler:
   557                           	callstack 0
   558  000664                     UART1_SetOverrunErrorHandler@interruptHandler:
   559                           	callstack 0
   560  000664                     UART1_SetErrorHandler@interruptHandler:
   561                           	callstack 0
   562  000664                     TMR0_SetInterruptHandler@InterruptHandler:
   563                           	callstack 0
   564                           
   565                           ; 3 bytes @ 0x0
   566  000664                     	ds	3
   567  000667                     
   568                           ; 1 bytes @ 0x3
   569                           
   570                           	psect	cstackBANK5
   571  000560                     __pcstackBANK5:
   572                           	callstack 0
   573  000560                     _efgtoa$1841:
   574                           	callstack 0
   575                           
   576                           ; 2 bytes @ 0x0
   577  000560                     	ds	2
   578  000562                     _efgtoa$1842:
   579                           	callstack 0
   580                           
   581                           ; 2 bytes @ 0x2
   582  000562                     	ds	2
   583  000564                     _efgtoa$1847:
   584                           	callstack 0
   585                           
   586                           ; 2 bytes @ 0x4
   587  000564                     	ds	2
   588  000566                     _efgtoa$1851:
   589                           	callstack 0
   590                           
   591                           ; 2 bytes @ 0x6
   592  000566                     	ds	2
   593  000568                     _efgtoa$1852:
   594                           	callstack 0
   595                           
   596                           ; 2 bytes @ 0x8
   597  000568                     	ds	2
   598  00056A                     _efgtoa$1853:
   599                           	callstack 0
   600                           
   601                           ; 2 bytes @ 0xA
   602  00056A                     	ds	2
   603  00056C                     efgtoa@t:
   604                           	callstack 0
   605                           
   606                           ; 2 bytes @ 0xC
   607  00056C                     	ds	2
   608  00056E                     efgtoa@pp:
   609                           	callstack 0
   610                           
   611                           ; 2 bytes @ 0xE
   612  00056E                     	ds	2
   613  000570                     efgtoa@ne:
   614                           	callstack 0
   615                           
   616                           ; 2 bytes @ 0x10
   617  000570                     	ds	2
   618  000572                     efgtoa@m:
   619                           	callstack 0
   620                           
   621                           ; 2 bytes @ 0x12
   622  000572                     	ds	2
   623  000574                     efgtoa@ou:
   624                           	callstack 0
   625                           
   626                           ; 4 bytes @ 0x14
   627  000574                     	ds	4
   628  000578                     efgtoa@d:
   629                           	callstack 0
   630                           
   631                           ; 2 bytes @ 0x18
   632  000578                     	ds	2
   633  00057A                     efgtoa@sign:
   634                           	callstack 0
   635                           
   636                           ; 2 bytes @ 0x1A
   637  00057A                     	ds	2
   638  00057C                     efgtoa@p:
   639                           	callstack 0
   640                           
   641                           ; 2 bytes @ 0x1C
   642  00057C                     	ds	2
   643  00057E                     efgtoa@w:
   644                           	callstack 0
   645                           
   646                           ; 2 bytes @ 0x1E
   647  00057E                     	ds	2
   648  000580                     efgtoa@nmode:
   649                           	callstack 0
   650                           
   651                           ; 1 bytes @ 0x20
   652  000580                     	ds	1
   653  000581                     efgtoa@mode:
   654                           	callstack 0
   655                           
   656                           ; 1 bytes @ 0x21
   657  000581                     	ds	1
   658  000582                     efgtoa@h:
   659                           	callstack 0
   660                           
   661                           ; 4 bytes @ 0x22
   662  000582                     	ds	4
   663  000586                     efgtoa@l:
   664                           	callstack 0
   665                           
   666                           ; 4 bytes @ 0x26
   667  000586                     	ds	4
   668  00058A                     efgtoa@i:
   669                           	callstack 0
   670                           
   671                           ; 2 bytes @ 0x2A
   672  00058A                     	ds	2
   673  00058C                     efgtoa@g:
   674                           	callstack 0
   675                           
   676                           ; 4 bytes @ 0x2C
   677  00058C                     	ds	4
   678  000590                     efgtoa@e:
   679                           	callstack 0
   680                           
   681                           ; 2 bytes @ 0x30
   682  000590                     	ds	2
   683  000592                     efgtoa@n:
   684                           	callstack 0
   685                           
   686                           ; 2 bytes @ 0x32
   687  000592                     	ds	2
   688  000594                     efgtoa@u:
   689                           	callstack 0
   690                           
   691                           ; 4 bytes @ 0x34
   692  000594                     	ds	4
   693  000598                     vfpfcnvrt@cp:
   694                           	callstack 0
   695                           
   696                           ; 2 bytes @ 0x38
   697  000598                     	ds	2
   698  00059A                     vfpfcnvrt@done:
   699                           	callstack 0
   700                           
   701                           ; 2 bytes @ 0x3A
   702  00059A                     	ds	2
   703  00059C                     _vfpfcnvrt$1896:
   704                           	callstack 0
   705                           
   706                           ; 2 bytes @ 0x3C
   707  00059C                     	ds	2
   708  00059E                     _vfpfcnvrt$1897:
   709                           	callstack 0
   710                           
   711                           ; 2 bytes @ 0x3E
   712  00059E                     	ds	2
   713  0005A0                     _vfpfcnvrt$1901:
   714                           	callstack 0
   715                           
   716                           ; 2 bytes @ 0x40
   717  0005A0                     	ds	2
   718  0005A2                     vfpfcnvrt@llu:
   719                           	callstack 0
   720                           
   721                           ; 8 bytes @ 0x42
   722  0005A2                     	ds	8
   723  0005AA                     vfpfcnvrt@f:
   724                           	callstack 0
   725                           
   726                           ; 4 bytes @ 0x4A
   727  0005AA                     	ds	4
   728  0005AE                     vfpfcnvrt@ct:
   729                           	callstack 0
   730                           
   731                           ; 3 bytes @ 0x4E
   732  0005AE                     	ds	3
   733  0005B1                     vfpfcnvrt@c:
   734                           	callstack 0
   735                           
   736                           ; 1 bytes @ 0x51
   737  0005B1                     	ds	1
   738  0005B2                     ?_vfprintf:
   739                           	callstack 0
   740  0005B2                     vfprintf@fp:
   741                           	callstack 0
   742                           
   743                           ; 2 bytes @ 0x52
   744  0005B2                     	ds	2
   745  0005B4                     vfprintf@fmt:
   746                           	callstack 0
   747                           
   748                           ; 2 bytes @ 0x54
   749  0005B4                     	ds	2
   750  0005B6                     vfprintf@ap:
   751                           	callstack 0
   752                           
   753                           ; 2 bytes @ 0x56
   754  0005B6                     	ds	2
   755  0005B8                     ?_printf:
   756                           	callstack 0
   757  0005B8                     ?_sprintf:
   758                           	callstack 0
   759  0005B8                     sprintf@s:
   760                           	callstack 0
   761  0005B8                     printf@fmt:
   762                           	callstack 0
   763                           
   764                           ; 2 bytes @ 0x58
   765  0005B8                     	ds	2
   766  0005BA                     sprintf@fmt:
   767                           	callstack 0
   768                           
   769                           ; 2 bytes @ 0x5A
   770  0005BA                     	ds	4
   771  0005BE                     sensor_interrupt@moist_level:
   772                           	callstack 0
   773                           
   774                           ; 4 bytes @ 0x5E
   775  0005BE                     	ds	4
   776  0005C2                     sensor_interrupt@value_hex:
   777                           	callstack 0
   778                           
   779                           ; 4 bytes @ 0x62
   780  0005C2                     	ds	4
   781  0005C6                     sensor_interrupt@value:
   782                           	callstack 0
   783                           
   784                           ; 2 bytes @ 0x66
   785  0005C6                     	ds	2
   786  0005C8                     ??_INTERRUPT_InterruptManager:
   787                           
   788                           ; 1 bytes @ 0x68
   789  0005C8                     	ds	4
   790                           
   791                           	psect	cstackCOMRAM
   792  000501                     __pcstackCOMRAM:
   793                           	callstack 0
   794  000501                     ?_strlen:
   795                           	callstack 0
   796  000501                     ?___fpclassifyf:
   797                           	callstack 0
   798  000501                     ?_isupper:
   799                           	callstack 0
   800  000501                     ?_isalpha:
   801                           	callstack 0
   802  000501                     ?_isdigit:
   803                           	callstack 0
   804  000501                     ?_strncmp:
   805                           	callstack 0
   806  000501                     ?_isspace:
   807                           	callstack 0
   808  000501                     ?_islower:
   809                           	callstack 0
   810  000501                     ?_ADCC_GetSingleConversion:
   811                           	callstack 0
   812  000501                     ?___wmul:
   813                           	callstack 0
   814  000501                     ?___awdiv:
   815                           	callstack 0
   816  000501                     ?___awmod:
   817                           	callstack 0
   818  000501                     ?___fldiv:
   819                           	callstack 0
   820  000501                     ?___flneg:
   821                           	callstack 0
   822  000501                     ?___fltol:
   823                           	callstack 0
   824  000501                     ?___xxtofl:
   825                           	callstack 0
   826  000501                     ?___lodiv:
   827                           	callstack 0
   828  000501                     ?___lomod:
   829                           	callstack 0
   830  000501                     UART5_Write@txData:
   831                           	callstack 0
   832  000501                     _UART1_is_tx_ready$920:
   833                           	callstack 0
   834  000501                     UART1_Write@txData:
   835                           	callstack 0
   836  000501                     ___wmul@multiplier:
   837                           	callstack 0
   838  000501                     ___awdiv@dividend:
   839                           	callstack 0
   840  000501                     ___awmod@dividend:
   841                           	callstack 0
   842  000501                     isalpha@c:
   843                           	callstack 0
   844  000501                     isdigit@c:
   845                           	callstack 0
   846  000501                     isspace@c:
   847                           	callstack 0
   848  000501                     isupper@c:
   849                           	callstack 0
   850  000501                     strcpy@dest:
   851                           	callstack 0
   852  000501                     strlen@s:
   853                           	callstack 0
   854  000501                     strncmp@_l:
   855                           	callstack 0
   856  000501                     islower@c:
   857                           	callstack 0
   858  000501                     ___fleq@ff1:
   859                           	callstack 0
   860  000501                     ___flneg@f1:
   861                           	callstack 0
   862  000501                     ___fltol@f1:
   863                           	callstack 0
   864  000501                     ___fldiv@b:
   865                           	callstack 0
   866  000501                     ___xxtofl@val:
   867                           	callstack 0
   868  000501                     ___fpclassifyf@x:
   869                           	callstack 0
   870  000501                     ___lodiv@dividend:
   871                           	callstack 0
   872  000501                     ___lomod@dividend:
   873                           	callstack 0
   874                           
   875                           ; 8 bytes @ 0x0
   876  000501                     	ds	1
   877  000502                     putch@txData:
   878                           	callstack 0
   879  000502                     send_AT@t:
   880                           	callstack 0
   881                           
   882                           ; 2 bytes @ 0x1
   883  000502                     	ds	1
   884  000503                     ??_isupper:
   885  000503                     ??_isalpha:
   886  000503                     ??_isdigit:
   887  000503                     ??_isspace:
   888  000503                     ??_islower:
   889  000503                     ??_ADCC_GetSingleConversion:
   890  000503                     ___wmul@multiplicand:
   891                           	callstack 0
   892  000503                     ___awdiv@divisor:
   893                           	callstack 0
   894  000503                     ___awmod@divisor:
   895                           	callstack 0
   896  000503                     fputc@c:
   897                           	callstack 0
   898  000503                     strcpy@src:
   899                           	callstack 0
   900  000503                     strlen@a:
   901                           	callstack 0
   902  000503                     strncmp@_r:
   903                           	callstack 0
   904                           
   905                           ; 2 bytes @ 0x2
   906  000503                     	ds	1
   907  000504                     send_data@val:
   908                           	callstack 0
   909                           
   910                           ; 2 bytes @ 0x3
   911  000504                     	ds	1
   912  000505                     ??___fpclassifyf:
   913  000505                     ??_strcpy:
   914  000505                     ??___fltol:
   915  000505                     ??___xxtofl:
   916  000505                     ADCC_GetSingleConversion@channel:
   917                           	callstack 0
   918  000505                     ___awdiv@counter:
   919                           	callstack 0
   920  000505                     ___awmod@counter:
   921                           	callstack 0
   922  000505                     ___wmul@product:
   923                           	callstack 0
   924  000505                     fputc@fp:
   925                           	callstack 0
   926  000505                     strncmp@n:
   927                           	callstack 0
   928  000505                     ___fleq@ff2:
   929                           	callstack 0
   930  000505                     ___fldiv@a:
   931                           	callstack 0
   932                           
   933                           ; 4 bytes @ 0x4
   934  000505                     	ds	1
   935  000506                     ??_send_data:
   936  000506                     ___awdiv@sign:
   937                           	callstack 0
   938  000506                     ___awmod@sign:
   939                           	callstack 0
   940                           
   941                           ; 1 bytes @ 0x5
   942  000506                     	ds	1
   943  000507                     ??_fputc:
   944  000507                     ??_strncmp:
   945  000507                     ?_tolower:
   946                           	callstack 0
   947  000507                     ?_toupper:
   948                           	callstack 0
   949  000507                     _isspace$1978:
   950                           	callstack 0
   951  000507                     ___awdiv@quotient:
   952                           	callstack 0
   953  000507                     strcpy@s:
   954                           	callstack 0
   955  000507                     tolower@c:
   956                           	callstack 0
   957  000507                     toupper@c:
   958                           	callstack 0
   959                           
   960                           ; 2 bytes @ 0x6
   961  000507                     	ds	1
   962  000508                     ?_atoi:
   963                           	callstack 0
   964  000508                     atoi@s:
   965                           	callstack 0
   966  000508                     strncmp@l:
   967                           	callstack 0
   968                           
   969                           ; 2 bytes @ 0x7
   970  000508                     	ds	1
   971  000509                     ??___fldiv:
   972  000509                     ??_tolower:
   973  000509                     ??_toupper:
   974  000509                     ??___fleq:
   975  000509                     ___fltol@sign1:
   976                           	callstack 0
   977  000509                     ___xxtofl@sign:
   978                           	callstack 0
   979  000509                     ___fpclassifyf@e:
   980                           	callstack 0
   981  000509                     strcpy@d:
   982                           	callstack 0
   983  000509                     ___lodiv@divisor:
   984                           	callstack 0
   985  000509                     ___lomod@divisor:
   986                           	callstack 0
   987                           
   988                           ; 8 bytes @ 0x8
   989  000509                     	ds	1
   990  00050A                     ??_atoi:
   991  00050A                     ___fltol@exp1:
   992                           	callstack 0
   993  00050A                     ___xxtofl@exp:
   994                           	callstack 0
   995  00050A                     strncmp@r:
   996                           	callstack 0
   997                           
   998                           ; 2 bytes @ 0x9
   999  00050A                     	ds	1
  1000  00050B                     ___xxtofl@arg:
  1001                           	callstack 0
  1002  00050B                     ___fpclassifyf@u:
  1003                           	callstack 0
  1004                           
  1005                           ; 4 bytes @ 0xA
  1006  00050B                     	ds	1
  1007  00050C                     ?_stoa:
  1008                           	callstack 0
  1009  00050C                     stoa@fp:
  1010                           	callstack 0
  1011  00050C                     fputs@s:
  1012                           	callstack 0
  1013                           
  1014                           ; 2 bytes @ 0xB
  1015  00050C                     	ds	1
  1016  00050D                     _tolower$2047:
  1017                           	callstack 0
  1018  00050D                     _toupper$2062:
  1019                           	callstack 0
  1020  00050D                     ___fldiv@rem:
  1021                           	callstack 0
  1022                           
  1023                           ; 4 bytes @ 0xC
  1024  00050D                     	ds	1
  1025  00050E                     stoa@s:
  1026                           	callstack 0
  1027  00050E                     atoi@neg:
  1028                           	callstack 0
  1029  00050E                     fputs@fp:
  1030                           	callstack 0
  1031                           
  1032                           ; 2 bytes @ 0xD
  1033  00050E                     	ds	1
  1034  00050F                     ?___flmul:
  1035                           	callstack 0
  1036  00050F                     ___flmul@b:
  1037                           	callstack 0
  1038                           
  1039                           ; 4 bytes @ 0xE
  1040  00050F                     	ds	1
  1041  000510                     ??_stoa:
  1042  000510                     fputs@c:
  1043                           	callstack 0
  1044  000510                     _atoi$1938:
  1045                           	callstack 0
  1046                           
  1047                           ; 2 bytes @ 0xF
  1048  000510                     	ds	1
  1049  000511                     ___lomod@counter:
  1050                           	callstack 0
  1051  000511                     ___fldiv@sign:
  1052                           	callstack 0
  1053  000511                     fputs@i:
  1054                           	callstack 0
  1055  000511                     stoa@nuls:
  1056                           	callstack 0
  1057  000511                     ___lodiv@quotient:
  1058                           	callstack 0
  1059                           
  1060                           ; 8 bytes @ 0x10
  1061  000511                     	ds	1
  1062  000512                     ___fldiv@new_exp:
  1063                           	callstack 0
  1064  000512                     _atoi$1940:
  1065                           	callstack 0
  1066                           
  1067                           ; 2 bytes @ 0x11
  1068  000512                     	ds	1
  1069  000513                     ?_pad:
  1070                           	callstack 0
  1071  000513                     pad@fp:
  1072                           	callstack 0
  1073  000513                     ___flmul@a:
  1074                           	callstack 0
  1075                           
  1076                           ; 4 bytes @ 0x12
  1077  000513                     	ds	1
  1078  000514                     _atoi$1939:
  1079                           	callstack 0
  1080  000514                     ___fldiv@grs:
  1081                           	callstack 0
  1082                           
  1083                           ; 4 bytes @ 0x13
  1084  000514                     	ds	1
  1085  000515                     pad@buf:
  1086                           	callstack 0
  1087  000515                     atoi@n:
  1088                           	callstack 0
  1089                           
  1090                           ; 2 bytes @ 0x14
  1091  000515                     	ds	2
  1092  000517                     ??___flmul:
  1093  000517                     pad@p:
  1094                           	callstack 0
  1095                           
  1096                           ; 2 bytes @ 0x16
  1097  000517                     	ds	1
  1098  000518                     ___fldiv@bexp:
  1099                           	callstack 0
  1100  000518                     stoa@i:
  1101                           	callstack 0
  1102                           
  1103                           ; 2 bytes @ 0x17
  1104  000518                     	ds	1
  1105  000519                     ??_pad:
  1106  000519                     ___lodiv@counter:
  1107                           	callstack 0
  1108  000519                     ___fldiv@aexp:
  1109                           	callstack 0
  1110                           
  1111                           ; 1 bytes @ 0x18
  1112  000519                     	ds	1
  1113  00051A                     ?_floorf:
  1114                           	callstack 0
  1115  00051A                     pad@i:
  1116                           	callstack 0
  1117  00051A                     stoa@w:
  1118                           	callstack 0
  1119  00051A                     floorf@x:
  1120                           	callstack 0
  1121                           
  1122                           ; 4 bytes @ 0x19
  1123  00051A                     	ds	1
  1124  00051B                     ___flmul@sign:
  1125                           	callstack 0
  1126                           
  1127                           ; 1 bytes @ 0x1A
  1128  00051B                     	ds	1
  1129  00051C                     pad@w:
  1130                           	callstack 0
  1131  00051C                     stoa@cp:
  1132                           	callstack 0
  1133  00051C                     ___flmul@grs:
  1134                           	callstack 0
  1135                           
  1136                           ; 4 bytes @ 0x1B
  1137  00051C                     	ds	2
  1138  00051E                     ??_floorf:
  1139  00051E                     ?_utoa:
  1140                           	callstack 0
  1141  00051E                     ?_xtoa:
  1142                           	callstack 0
  1143  00051E                     stoa@p:
  1144                           	callstack 0
  1145  00051E                     utoa@fp:
  1146                           	callstack 0
  1147  00051E                     xtoa@fp:
  1148                           	callstack 0
  1149                           
  1150                           ; 2 bytes @ 0x1D
  1151  00051E                     	ds	2
  1152  000520                     ___flmul@aexp:
  1153                           	callstack 0
  1154  000520                     stoa@l:
  1155                           	callstack 0
  1156  000520                     utoa@d:
  1157                           	callstack 0
  1158  000520                     xtoa@d:
  1159                           	callstack 0
  1160                           
  1161                           ; 8 bytes @ 0x1F
  1162  000520                     	ds	1
  1163  000521                     ___flmul@bexp:
  1164                           	callstack 0
  1165                           
  1166                           ; 1 bytes @ 0x20
  1167  000521                     	ds	1
  1168  000522                     ___flmul@prod:
  1169                           	callstack 0
  1170                           
  1171                           ; 4 bytes @ 0x21
  1172  000522                     	ds	2
  1173  000524                     floorf@m:
  1174                           	callstack 0
  1175                           
  1176                           ; 4 bytes @ 0x23
  1177  000524                     	ds	2
  1178  000526                     ___flmul@temp:
  1179                           	callstack 0
  1180                           
  1181                           ; 2 bytes @ 0x25
  1182  000526                     	ds	2
  1183  000528                     ??_utoa:
  1184  000528                     ?___fladd:
  1185                           	callstack 0
  1186  000528                     xtoa@x:
  1187                           	callstack 0
  1188  000528                     floorf@e:
  1189                           	callstack 0
  1190  000528                     ___flge@ff1:
  1191                           	callstack 0
  1192  000528                     ___fladd@b:
  1193                           	callstack 0
  1194                           
  1195                           ; 4 bytes @ 0x27
  1196  000528                     	ds	1
  1197  000529                     ??_xtoa:
  1198                           
  1199                           ; 1 bytes @ 0x28
  1200  000529                     	ds	1
  1201  00052A                     floorf@u:
  1202                           	callstack 0
  1203                           
  1204                           ; 4 bytes @ 0x29
  1205  00052A                     	ds	2
  1206  00052C                     ___flge@ff2:
  1207                           	callstack 0
  1208  00052C                     ___fladd@a:
  1209                           	callstack 0
  1210                           
  1211                           ; 4 bytes @ 0x2B
  1212  00052C                     	ds	4
  1213  000530                     ??___fladd:
  1214  000530                     ??___flge:
  1215  000530                     utoa@p:
  1216                           	callstack 0
  1217                           
  1218                           ; 2 bytes @ 0x2F
  1219  000530                     	ds	1
  1220  000531                     _xtoa$1881:
  1221                           	callstack 0
  1222                           
  1223                           ; 2 bytes @ 0x30
  1224  000531                     	ds	1
  1225  000532                     utoa@w:
  1226                           	callstack 0
  1227                           
  1228                           ; 2 bytes @ 0x31
  1229  000532                     	ds	1
  1230  000533                     _xtoa$1882:
  1231                           	callstack 0
  1232                           
  1233                           ; 2 bytes @ 0x32
  1234  000533                     	ds	1
  1235  000534                     ___fladd@signs:
  1236                           	callstack 0
  1237  000534                     utoa@n:
  1238                           	callstack 0
  1239                           
  1240                           ; 8 bytes @ 0x33
  1241  000534                     	ds	1
  1242  000535                     ___fladd@aexp:
  1243                           	callstack 0
  1244  000535                     xtoa@p:
  1245                           	callstack 0
  1246                           
  1247                           ; 2 bytes @ 0x34
  1248  000535                     	ds	1
  1249  000536                     ___fladd@bexp:
  1250                           	callstack 0
  1251                           
  1252                           ; 1 bytes @ 0x35
  1253  000536                     	ds	1
  1254  000537                     ___fladd@grs:
  1255                           	callstack 0
  1256  000537                     xtoa@w:
  1257                           	callstack 0
  1258                           
  1259                           ; 2 bytes @ 0x36
  1260  000537                     	ds	1
  1261  000538                     ?___flsub:
  1262                           	callstack 0
  1263  000538                     ___flsub@b:
  1264                           	callstack 0
  1265                           
  1266                           ; 4 bytes @ 0x37
  1267  000538                     	ds	1
  1268  000539                     xtoa@n:
  1269                           	callstack 0
  1270                           
  1271                           ; 8 bytes @ 0x38
  1272  000539                     	ds	3
  1273  00053C                     utoa@i:
  1274                           	callstack 0
  1275  00053C                     ___flsub@a:
  1276                           	callstack 0
  1277                           
  1278                           ; 4 bytes @ 0x3B
  1279  00053C                     	ds	4
  1280  000540                     ?_efgtoa:
  1281                           	callstack 0
  1282  000540                     efgtoa@fp:
  1283                           	callstack 0
  1284                           
  1285                           ; 2 bytes @ 0x3F
  1286  000540                     	ds	1
  1287  000541                     xtoa@i:
  1288                           	callstack 0
  1289                           
  1290                           ; 2 bytes @ 0x40
  1291  000541                     	ds	1
  1292  000542                     efgtoa@f:
  1293                           	callstack 0
  1294                           
  1295                           ; 4 bytes @ 0x41
  1296  000542                     	ds	1
  1297  000543                     xtoa@c:
  1298                           	callstack 0
  1299                           
  1300                           ; 2 bytes @ 0x42
  1301  000543                     	ds	3
  1302  000546                     efgtoa@c:
  1303                           	callstack 0
  1304                           
  1305                           ; 1 bytes @ 0x45
  1306  000546                     	ds	1
  1307  000547                     ??_efgtoa:
  1308                           
  1309                           ; 1 bytes @ 0x46
  1310  000547                     	ds	5
  1311  00054C                     ?_vfpfcnvrt:
  1312                           	callstack 0
  1313  00054C                     vfpfcnvrt@fp:
  1314                           	callstack 0
  1315                           
  1316                           ; 2 bytes @ 0x4B
  1317  00054C                     	ds	2
  1318  00054E                     vfpfcnvrt@fmt:
  1319                           	callstack 0
  1320                           
  1321                           ; 2 bytes @ 0x4D
  1322  00054E                     	ds	2
  1323  000550                     vfpfcnvrt@ap:
  1324                           	callstack 0
  1325                           
  1326                           ; 2 bytes @ 0x4F
  1327  000550                     	ds	2
  1328  000552                     ??_vfpfcnvrt:
  1329                           
  1330                           ; 1 bytes @ 0x51
  1331  000552                     	ds	4
  1332  000556                     vfprintf@cfmt:
  1333                           	callstack 0
  1334                           
  1335                           ; 2 bytes @ 0x55
  1336  000556                     	ds	2
  1337  000558                     sprintf@ap:
  1338                           	callstack 0
  1339  000558                     printf@ap:
  1340                           	callstack 0
  1341                           
  1342                           ; 2 bytes @ 0x57
  1343  000558                     	ds	2
  1344  00055A                     sprintf@f:
  1345                           	callstack 0
  1346                           
  1347                           ; 6 bytes @ 0x59
  1348  00055A                     	ds	6
  1349  000560                     
  1350                           ; 1 bytes @ 0x5F
  1351 ;;
  1352 ;;Main: autosize = 0, tempsize = 0, incstack = 0, save=0
  1353 ;;
  1354 ;; *************** function _main *****************
  1355 ;; Defined at:
  1356 ;;		line 55 in file "main.c"
  1357 ;; Parameters:    Size  Location     Type
  1358 ;;		None
  1359 ;; Auto vars:     Size  Location     Type
  1360 ;;		None
  1361 ;; Return value:  Size  Location     Type
  1362 ;;                  1    wreg      void 
  1363 ;; Registers used:
  1364 ;;		wreg, status,2, status,0, cstack
  1365 ;; Tracked objects:
  1366 ;;		On entry : 0/0
  1367 ;;		On exit  : 0/0
  1368 ;;		Unchanged: 0/0
  1369 ;; Data sizes:     COMRAM   BANK5   BANK6   BANK7   BANK8   BANK9  BANK10  BANK11  BANK12  BANK13  BANK14  BANK15  BANK1
      +6  BANK17  BANK18  BANK19  BANK20  BANK21  BANK22  BANK23  BANK24  BANK25  BANK26  BANK27  BANK28  BANK29  BANK30  BANK3
      +1  BANK32  BANK33  BANK34  BANK35  BANK36  BANK37
  1370 ;;      Params:         0       0       0       0       0       0       0       0       0       0       0       0       
      +0       0       0       0       0       0       0       0       0       0       0       0       0       0       0       
      +0       0       0       0       0       0       0
  1371 ;;      Locals:         0       0       0       0       0       0       0       0       0       0       0       0       
      +0       0       0       0       0       0       0       0       0       0       0       0       0       0       0       
      +0       0       0       0       0       0       0
  1372 ;;      Temps:          0       0       0       0       0       0       0       0       0       0       0       0       
      +0       0       0       0       0       0       0       0       0       0       0       0       0       0       0       
      +0       0       0       0       0       0       0
  1373 ;;      Totals:         0       0       0       0       0       0       0       0       0       0       0       0       
      +0       0       0       0       0       0       0       0       0       0       0       0       0       0       0       
      +0       0       0       0       0       0       0
  1374 ;;Total ram usage:        0 bytes
  1375 ;; Hardware stack levels required when called: 15
  1376 ;; This function calls:
  1377 ;;		_SYSTEM_Initialize
  1378 ;;		_TMR0_SetInterruptHandler
  1379 ;; This function is called by:
  1380 ;;		Startup code after reset
  1381 ;; This function uses a non-reentrant model
  1382 ;;
  1383                           
  1384                           	psect	text0
  1385  00687C                     __ptext0:
  1386                           	callstack 0
  1387  00687C                     _main:
  1388                           	callstack 113
  1389  00687C                     
  1390                           ;main.c: 58:     SYSTEM_Initialize();
  1391  00687C  EC4F  F034         	call	_SYSTEM_Initialize	;wreg free
  1392                           
  1393                           ;main.c: 60:     TMR0_SetInterruptHandler(sensor_interrupt);
  1394  006880  0E14               	movlw	low _sensor_interrupt
  1395  006882  0106               	movlb	6	; () banked
  1396  006884  6F64               	movwf	TMR0_SetInterruptHandler@InterruptHandler& (0+255),b
  1397  006886  0E59               	movlw	high _sensor_interrupt
  1398  006888  6F65               	movwf	(TMR0_SetInterruptHandler@InterruptHandler+1)& (0+255),b
  1399  00688A  0E00               	movlw	low (_sensor_interrupt shr (0+16))
  1400  00688C  6F66               	movwf	(TMR0_SetInterruptHandler@InterruptHandler+2)& (0+255),b
  1401  00688E  ECB0  F034         	call	_TMR0_SetInterruptHandler	;wreg free
  1402  006892                     
  1403                           ;main.c: 67:     (INTCON0bits.GIE = 1);
  1404  006892  8ED6               	bsf	214,7,c	;volatile
  1405  006894  86C3               	bsf	195,3,c	;volatile
  1406  006896                     l638:
  1407  006896  EF4B  F034         	goto	l638
  1408  00689A  EF0D  F000         	goto	start
  1409  00689E                     __end_of_main:
  1410                           	callstack 0
  1411                           
  1412 ;; *************** function _SYSTEM_Initialize *****************
  1413 ;; Defined at:
  1414 ;;		line 50 in file "mcc_generated_files/mcc.c"
  1415 ;; Parameters:    Size  Location     Type
  1416 ;;		None
  1417 ;; Auto vars:     Size  Location     Type
  1418 ;;		None
  1419 ;; Return value:  Size  Location     Type
  1420 ;;                  1    wreg      void 
  1421 ;; Registers used:
  1422 ;;		wreg, status,2, status,0, cstack
  1423 ;; Tracked objects:
  1424 ;;		On entry : 0/0
  1425 ;;		On exit  : 0/0
  1426 ;;		Unchanged: 0/0
  1427 ;; Data sizes:     COMRAM   BANK5   BANK6   BANK7   BANK8   BANK9  BANK10  BANK11  BANK12  BANK13  BANK14  BANK15  BANK1
      +6  BANK17  BANK18  BANK19  BANK20  BANK21  BANK22  BANK23  BANK24  BANK25  BANK26  BANK27  BANK28  BANK29  BANK30  BANK3
      +1  BANK32  BANK33  BANK34  BANK35  BANK36  BANK37
  1428 ;;      Params:         0       0       0       0       0       0       0       0       0       0       0       0       
      +0       0       0       0       0       0       0       0       0       0       0       0       0       0       0       
      +0       0       0       0       0       0       0
  1429 ;;      Locals:         0       0       0       0       0       0       0       0       0       0       0       0       
      +0       0       0       0       0       0       0       0       0       0       0       0       0       0       0       
      +0       0       0       0       0       0       0
  1430 ;;      Temps:          0       0       0       0       0       0       0       0       0       0       0       0       
      +0       0       0       0       0       0       0       0       0       0       0       0       0       0       0       
      +0       0       0       0       0       0       0
  1431 ;;      Totals:         0       0       0       0       0       0       0       0       0       0       0       0       
      +0       0       0       0       0       0       0       0       0       0       0       0       0       0       0       
      +0       0       0       0       0       0       0
  1432 ;;Total ram usage:        0 bytes
  1433 ;; Hardware stack levels used: 1
  1434 ;; Hardware stack levels required when called: 14
  1435 ;; This function calls:
  1436 ;;		_ADCC_Initialize
  1437 ;;		_INTERRUPT_Initialize
  1438 ;;		_OSCILLATOR_Initialize
  1439 ;;		_PIN_MANAGER_Initialize
  1440 ;;		_PMD_Initialize
  1441 ;;		_TMR0_Initialize
  1442 ;;		_UART1_Initialize
  1443 ;;		_UART5_Initialize
  1444 ;; This function is called by:
  1445 ;;		_main
  1446 ;; This function uses a non-reentrant model
  1447 ;;
  1448                           
  1449                           	psect	text1
  1450  00689E                     __ptext1:
  1451                           	callstack 0
  1452  00689E                     _SYSTEM_Initialize:
  1453                           	callstack 113
  1454  00689E                     
  1455                           ;mcc_generated_files/mcc.c: 52:     INTERRUPT_Initialize();
  1456  00689E  ECC0  F034         	call	_INTERRUPT_Initialize	;wreg free
  1457  0068A2                     
  1458                           ;mcc_generated_files/mcc.c: 53:     PMD_Initialize();
  1459  0068A2  EC2C  F034         	call	_PMD_Initialize	;wreg free
  1460  0068A6                     
  1461                           ;mcc_generated_files/mcc.c: 54:     PIN_MANAGER_Initialize();
  1462  0068A6  EC14  F02F         	call	_PIN_MANAGER_Initialize	;wreg free
  1463  0068AA                     
  1464                           ;mcc_generated_files/mcc.c: 55:     OSCILLATOR_Initialize();
  1465  0068AA  EC60  F034         	call	_OSCILLATOR_Initialize	;wreg free
  1466  0068AE                     
  1467                           ;mcc_generated_files/mcc.c: 56:     ADCC_Initialize();
  1468  0068AE  ECDA  F031         	call	_ADCC_Initialize	;wreg free
  1469  0068B2                     
  1470                           ;mcc_generated_files/mcc.c: 57:     TMR0_Initialize();
  1471  0068B2  ECBA  F033         	call	_TMR0_Initialize	;wreg free
  1472  0068B6                     
  1473                           ;mcc_generated_files/mcc.c: 58:     UART1_Initialize();
  1474  0068B6  EC9D  F030         	call	_UART1_Initialize	;wreg free
  1475  0068BA                     
  1476                           ;mcc_generated_files/mcc.c: 59:     UART5_Initialize();
  1477  0068BA  ECDB  F030         	call	_UART5_Initialize	;wreg free
  1478  0068BE  0012               	return		;funcret
  1479  0068C0                     __end_of_SYSTEM_Initialize:
  1480                           	callstack 0
  1481                           
  1482 ;; *************** function _UART5_Initialize *****************
  1483 ;; Defined at:
  1484 ;;		line 66 in file "mcc_generated_files/uart5.c"
  1485 ;; Parameters:    Size  Location     Type
  1486 ;;		None
  1487 ;; Auto vars:     Size  Location     Type
  1488 ;;		None
  1489 ;; Return value:  Size  Location     Type
  1490 ;;                  1    wreg      void 
  1491 ;; Registers used:
  1492 ;;		wreg, status,2, status,0, cstack
  1493 ;; Tracked objects:
  1494 ;;		On entry : 0/0
  1495 ;;		On exit  : 0/0
  1496 ;;		Unchanged: 0/0
  1497 ;; Data sizes:     COMRAM   BANK5   BANK6   BANK7   BANK8   BANK9  BANK10  BANK11  BANK12  BANK13  BANK14  BANK15  BANK1
      +6  BANK17  BANK18  BANK19  BANK20  BANK21  BANK22  BANK23  BANK24  BANK25  BANK26  BANK27  BANK28  BANK29  BANK30  BANK3
      +1  BANK32  BANK33  BANK34  BANK35  BANK36  BANK37
  1498 ;;      Params:         0       0       0       0       0       0       0       0       0       0       0       0       
      +0       0       0       0       0       0       0       0       0       0       0       0       0       0       0       
      +0       0       0       0       0       0       0
  1499 ;;      Locals:         0       0       0       0       0       0       0       0       0       0       0       0       
      +0       0       0       0       0       0       0       0       0       0       0       0       0       0       0       
      +0       0       0       0       0       0       0
  1500 ;;      Temps:          0       0       0       0       0       0       0       0       0       0       0       0       
      +0       0       0       0       0       0       0       0       0       0       0       0       0       0       0       
      +0       0       0       0       0       0       0
  1501 ;;      Totals:         0       0       0       0       0       0       0       0       0       0       0       0       
      +0       0       0       0       0       0       0       0       0       0       0       0       0       0       0       
      +0       0       0       0       0       0       0
  1502 ;;Total ram usage:        0 bytes
  1503 ;; Hardware stack levels used: 1
  1504 ;; Hardware stack levels required when called: 13
  1505 ;; This function calls:
  1506 ;;		_UART5_SetErrorHandler
  1507 ;;		_UART5_SetFramingErrorHandler
  1508 ;;		_UART5_SetOverrunErrorHandler
  1509 ;; This function is called by:
  1510 ;;		_SYSTEM_Initialize
  1511 ;; This function uses a non-reentrant model
  1512 ;;
  1513                           
  1514                           	psect	text2
  1515  0061B6                     __ptext2:
  1516                           	callstack 0
  1517  0061B6                     _UART5_Initialize:
  1518                           	callstack 113
  1519  0061B6                     
  1520                           ;mcc_generated_files/uart5.c: 73:     U5P1L = 0x00;
  1521  0061B6  0E00               	movlw	0
  1522  0061B8  0102               	movlb	2	; () banked
  1523  0061BA  6FF1               	movwf	241,b	;volatile
  1524                           
  1525                           ;mcc_generated_files/uart5.c: 76:     U5P2L = 0x00;
  1526  0061BC  0E00               	movlw	0
  1527  0061BE  6FF3               	movwf	243,b	;volatile
  1528                           
  1529                           ;mcc_generated_files/uart5.c: 79:     U5P3L = 0x00;
  1530  0061C0  0E00               	movlw	0
  1531  0061C2  6FF5               	movwf	245,b	;volatile
  1532                           
  1533                           ;mcc_generated_files/uart5.c: 82:     U5CON0 = 0xB0;
  1534  0061C4  0EB0               	movlw	176
  1535  0061C6  6FF7               	movwf	247,b	;volatile
  1536                           
  1537                           ;mcc_generated_files/uart5.c: 85:     U5CON1 = 0x80;
  1538  0061C8  0E80               	movlw	128
  1539  0061CA  6FF8               	movwf	248,b	;volatile
  1540                           
  1541                           ;mcc_generated_files/uart5.c: 88:     U5CON2 = 0x00;
  1542  0061CC  0E00               	movlw	0
  1543  0061CE  6FF9               	movwf	249,b	;volatile
  1544                           
  1545                           ;mcc_generated_files/uart5.c: 91:     U5BRGL = 0x67;
  1546  0061D0  0E67               	movlw	103
  1547  0061D2  6FFA               	movwf	250,b	;volatile
  1548                           
  1549                           ;mcc_generated_files/uart5.c: 94:     U5BRGH = 0x00;
  1550  0061D4  0E00               	movlw	0
  1551  0061D6  6FFB               	movwf	251,b	;volatile
  1552                           
  1553                           ;mcc_generated_files/uart5.c: 97:     U5FIFO = 0x00;
  1554  0061D8  0E00               	movlw	0
  1555  0061DA  6FFC               	movwf	252,b	;volatile
  1556                           
  1557                           ;mcc_generated_files/uart5.c: 100:     U5UIR = 0x00;
  1558  0061DC  0E00               	movlw	0
  1559  0061DE  6FFD               	movwf	253,b	;volatile
  1560                           
  1561                           ;mcc_generated_files/uart5.c: 103:     U5ERRIR = 0x00;
  1562  0061E0  0E00               	movlw	0
  1563  0061E2  6FFE               	movwf	254,b	;volatile
  1564                           
  1565                           ;mcc_generated_files/uart5.c: 106:     U5ERRIE = 0x00;
  1566  0061E4  0E00               	movlw	0
  1567  0061E6  6FFF               	movwf	255,b	;volatile
  1568  0061E8                     
  1569                           ; BSR set to: 2
  1570                           ;mcc_generated_files/uart5.c: 109:     UART5_SetFramingErrorHandler(UART5_DefaultFraming
      +                          ErrorHandler);
  1571  0061E8  0E00               	movlw	0
  1572  0061EA  0106               	movlb	6	; () banked
  1573  0061EC  6F64               	movwf	UART5_SetFramingErrorHandler@interruptHandler& (0+255),b
  1574  0061EE  0E00               	movlw	0
  1575  0061F0  6F65               	movwf	(UART5_SetFramingErrorHandler@interruptHandler+1)& (0+255),b
  1576  0061F2  0E00               	movlw	0
  1577  0061F4  6F66               	movwf	(UART5_SetFramingErrorHandler@interruptHandler+2)& (0+255),b
  1578  0061F6  EC8D  F034         	call	_UART5_SetFramingErrorHandler	;wreg free
  1579  0061FA                     
  1580                           ;mcc_generated_files/uart5.c: 110:     UART5_SetOverrunErrorHandler(UART5_DefaultOverrun
      +                          ErrorHandler);
  1581  0061FA  0E00               	movlw	0
  1582  0061FC  0106               	movlb	6	; () banked
  1583  0061FE  6F64               	movwf	UART5_SetOverrunErrorHandler@interruptHandler& (0+255),b
  1584  006200  0E00               	movlw	0
  1585  006202  6F65               	movwf	(UART5_SetOverrunErrorHandler@interruptHandler+1)& (0+255),b
  1586  006204  0E00               	movlw	0
  1587  006206  6F66               	movwf	(UART5_SetOverrunErrorHandler@interruptHandler+2)& (0+255),b
  1588  006208  EC86  F034         	call	_UART5_SetOverrunErrorHandler	;wreg free
  1589  00620C                     
  1590                           ;mcc_generated_files/uart5.c: 111:     UART5_SetErrorHandler(UART5_DefaultErrorHandler);
  1591  00620C  0E00               	movlw	0
  1592  00620E  0106               	movlb	6	; () banked
  1593  006210  6F64               	movwf	UART5_SetErrorHandler@interruptHandler& (0+255),b
  1594  006212  0E00               	movlw	0
  1595  006214  6F65               	movwf	(UART5_SetErrorHandler@interruptHandler+1)& (0+255),b
  1596  006216  0E00               	movlw	0
  1597  006218  6F66               	movwf	(UART5_SetErrorHandler@interruptHandler+2)& (0+255),b
  1598  00621A  EC94  F034         	call	_UART5_SetErrorHandler	;wreg free
  1599  00621E                     
  1600                           ;mcc_generated_files/uart5.c: 113:     uart5RxLastError.status = 0;
  1601  00621E  0E00               	movlw	0
  1602  006220  0106               	movlb	6	; () banked
  1603  006222  6F01               	movwf	_uart5RxLastError& (0+255),b	;volatile
  1604  006224                     
  1605                           ; BSR set to: 6
  1606  006224  0012               	return		;funcret
  1607  006226                     __end_of_UART5_Initialize:
  1608                           	callstack 0
  1609                           
  1610 ;; *************** function _UART5_SetOverrunErrorHandler *****************
  1611 ;; Defined at:
  1612 ;;		line 195 in file "mcc_generated_files/uart5.c"
  1613 ;; Parameters:    Size  Location     Type
  1614 ;;  interruptHan    3    0[BANK6 ] PTR FTN()void 
  1615 ;;		 -> UART5_DefaultOverrunErrorHandler(1), 
  1616 ;; Auto vars:     Size  Location     Type
  1617 ;;		None
  1618 ;; Return value:  Size  Location     Type
  1619 ;;                  1    wreg      void 
  1620 ;; Registers used:
  1621 ;;		wreg, status,2, status,0
  1622 ;; Tracked objects:
  1623 ;;		On entry : 0/0
  1624 ;;		On exit  : 0/0
  1625 ;;		Unchanged: 0/0
  1626 ;; Data sizes:     COMRAM   BANK5   BANK6   BANK7   BANK8   BANK9  BANK10  BANK11  BANK12  BANK13  BANK14  BANK15  BANK1
      +6  BANK17  BANK18  BANK19  BANK20  BANK21  BANK22  BANK23  BANK24  BANK25  BANK26  BANK27  BANK28  BANK29  BANK30  BANK3
      +1  BANK32  BANK33  BANK34  BANK35  BANK36  BANK37
  1627 ;;      Params:         0       0       3       0       0       0       0       0       0       0       0       0       
      +0       0       0       0       0       0       0       0       0       0       0       0       0       0       0       
      +0       0       0       0       0       0       0
  1628 ;;      Locals:         0       0       0       0       0       0       0       0       0       0       0       0       
      +0       0       0       0       0       0       0       0       0       0       0       0       0       0       0       
      +0       0       0       0       0       0       0
  1629 ;;      Temps:          0       0       0       0       0       0       0       0       0       0       0       0       
      +0       0       0       0       0       0       0       0       0       0       0       0       0       0       0       
      +0       0       0       0       0       0       0
  1630 ;;      Totals:         0       0       3       0       0       0       0       0       0       0       0       0       
      +0       0       0       0       0       0       0       0       0       0       0       0       0       0       0       
      +0       0       0       0       0       0       0
  1631 ;;Total ram usage:        3 bytes
  1632 ;; Hardware stack levels used: 1
  1633 ;; Hardware stack levels required when called: 12
  1634 ;; This function calls:
  1635 ;;		Nothing
  1636 ;; This function is called by:
  1637 ;;		_UART5_Initialize
  1638 ;; This function uses a non-reentrant model
  1639 ;;
  1640                           
  1641                           	psect	text3
  1642  00690C                     __ptext3:
  1643                           	callstack 0
  1644  00690C                     _UART5_SetOverrunErrorHandler:
  1645                           	callstack 113
  1646  00690C                     
  1647                           ;mcc_generated_files/uart5.c: 196:     UART5_OverrunErrorHandler = interruptHandler;
  1648  00690C  C664  F65E         	movff	UART5_SetOverrunErrorHandler@interruptHandler,_UART5_OverrunErrorHandler
  1649  006910  C665  F65F         	movff	UART5_SetOverrunErrorHandler@interruptHandler+1,_UART5_OverrunErrorHandler+1
  1650  006914  C666  F660         	movff	UART5_SetOverrunErrorHandler@interruptHandler+2,_UART5_OverrunErrorHandler+2
  1651  006918  0012               	return		;funcret
  1652  00691A                     __end_of_UART5_SetOverrunErrorHandler:
  1653                           	callstack 0
  1654                           
  1655 ;; *************** function _UART5_SetFramingErrorHandler *****************
  1656 ;; Defined at:
  1657 ;;		line 191 in file "mcc_generated_files/uart5.c"
  1658 ;; Parameters:    Size  Location     Type
  1659 ;;  interruptHan    3    0[BANK6 ] PTR FTN()void 
  1660 ;;		 -> UART5_DefaultFramingErrorHandler(1), 
  1661 ;; Auto vars:     Size  Location     Type
  1662 ;;		None
  1663 ;; Return value:  Size  Location     Type
  1664 ;;                  1    wreg      void 
  1665 ;; Registers used:
  1666 ;;		wreg, status,2, status,0
  1667 ;; Tracked objects:
  1668 ;;		On entry : 0/0
  1669 ;;		On exit  : 0/0
  1670 ;;		Unchanged: 0/0
  1671 ;; Data sizes:     COMRAM   BANK5   BANK6   BANK7   BANK8   BANK9  BANK10  BANK11  BANK12  BANK13  BANK14  BANK15  BANK1
      +6  BANK17  BANK18  BANK19  BANK20  BANK21  BANK22  BANK23  BANK24  BANK25  BANK26  BANK27  BANK28  BANK29  BANK30  BANK3
      +1  BANK32  BANK33  BANK34  BANK35  BANK36  BANK37
  1672 ;;      Params:         0       0       3       0       0       0       0       0       0       0       0       0       
      +0       0       0       0       0       0       0       0       0       0       0       0       0       0       0       
      +0       0       0       0       0       0       0
  1673 ;;      Locals:         0       0       0       0       0       0       0       0       0       0       0       0       
      +0       0       0       0       0       0       0       0       0       0       0       0       0       0       0       
      +0       0       0       0       0       0       0
  1674 ;;      Temps:          0       0       0       0       0       0       0       0       0       0       0       0       
      +0       0       0       0       0       0       0       0       0       0       0       0       0       0       0       
      +0       0       0       0       0       0       0
  1675 ;;      Totals:         0       0       3       0       0       0       0       0       0       0       0       0       
      +0       0       0       0       0       0       0       0       0       0       0       0       0       0       0       
      +0       0       0       0       0       0       0
  1676 ;;Total ram usage:        3 bytes
  1677 ;; Hardware stack levels used: 1
  1678 ;; Hardware stack levels required when called: 12
  1679 ;; This function calls:
  1680 ;;		Nothing
  1681 ;; This function is called by:
  1682 ;;		_UART5_Initialize
  1683 ;; This function uses a non-reentrant model
  1684 ;;
  1685                           
  1686                           	psect	text4
  1687  00691A                     __ptext4:
  1688                           	callstack 0
  1689  00691A                     _UART5_SetFramingErrorHandler:
  1690                           	callstack 113
  1691  00691A                     
  1692                           ;mcc_generated_files/uart5.c: 192:     UART5_FramingErrorHandler = interruptHandler;
  1693  00691A  C664  F661         	movff	UART5_SetFramingErrorHandler@interruptHandler,_UART5_FramingErrorHandler
  1694  00691E  C665  F662         	movff	UART5_SetFramingErrorHandler@interruptHandler+1,_UART5_FramingErrorHandler+1
  1695  006922  C666  F663         	movff	UART5_SetFramingErrorHandler@interruptHandler+2,_UART5_FramingErrorHandler+2
  1696  006926  0012               	return		;funcret
  1697  006928                     __end_of_UART5_SetFramingErrorHandler:
  1698                           	callstack 0
  1699                           
  1700 ;; *************** function _UART5_SetErrorHandler *****************
  1701 ;; Defined at:
  1702 ;;		line 199 in file "mcc_generated_files/uart5.c"
  1703 ;; Parameters:    Size  Location     Type
  1704 ;;  interruptHan    3    0[BANK6 ] PTR FTN()void 
  1705 ;;		 -> UART5_DefaultErrorHandler(1), 
  1706 ;; Auto vars:     Size  Location     Type
  1707 ;;		None
  1708 ;; Return value:  Size  Location     Type
  1709 ;;                  1    wreg      void 
  1710 ;; Registers used:
  1711 ;;		wreg, status,2, status,0
  1712 ;; Tracked objects:
  1713 ;;		On entry : 0/0
  1714 ;;		On exit  : 0/0
  1715 ;;		Unchanged: 0/0
  1716 ;; Data sizes:     COMRAM   BANK5   BANK6   BANK7   BANK8   BANK9  BANK10  BANK11  BANK12  BANK13  BANK14  BANK15  BANK1
      +6  BANK17  BANK18  BANK19  BANK20  BANK21  BANK22  BANK23  BANK24  BANK25  BANK26  BANK27  BANK28  BANK29  BANK30  BANK3
      +1  BANK32  BANK33  BANK34  BANK35  BANK36  BANK37
  1717 ;;      Params:         0       0       3       0       0       0       0       0       0       0       0       0       
      +0       0       0       0       0       0       0       0       0       0       0       0       0       0       0       
      +0       0       0       0       0       0       0
  1718 ;;      Locals:         0       0       0       0       0       0       0       0       0       0       0       0       
      +0       0       0       0       0       0       0       0       0       0       0       0       0       0       0       
      +0       0       0       0       0       0       0
  1719 ;;      Temps:          0       0       0       0       0       0       0       0       0       0       0       0       
      +0       0       0       0       0       0       0       0       0       0       0       0       0       0       0       
      +0       0       0       0       0       0       0
  1720 ;;      Totals:         0       0       3       0       0       0       0       0       0       0       0       0       
      +0       0       0       0       0       0       0       0       0       0       0       0       0       0       0       
      +0       0       0       0       0       0       0
  1721 ;;Total ram usage:        3 bytes
  1722 ;; Hardware stack levels used: 1
  1723 ;; Hardware stack levels required when called: 12
  1724 ;; This function calls:
  1725 ;;		Nothing
  1726 ;; This function is called by:
  1727 ;;		_UART5_Initialize
  1728 ;; This function uses a non-reentrant model
  1729 ;;
  1730                           
  1731                           	psect	text5
  1732  006928                     __ptext5:
  1733                           	callstack 0
  1734  006928                     _UART5_SetErrorHandler:
  1735                           	callstack 113
  1736  006928                     
  1737                           ;mcc_generated_files/uart5.c: 200:     UART5_ErrorHandler = interruptHandler;
  1738  006928  C664  F65B         	movff	UART5_SetErrorHandler@interruptHandler,_UART5_ErrorHandler
  1739  00692C  C665  F65C         	movff	UART5_SetErrorHandler@interruptHandler+1,_UART5_ErrorHandler+1
  1740  006930  C666  F65D         	movff	UART5_SetErrorHandler@interruptHandler+2,_UART5_ErrorHandler+2
  1741  006934  0012               	return		;funcret
  1742  006936                     __end_of_UART5_SetErrorHandler:
  1743                           	callstack 0
  1744                           
  1745 ;; *************** function _UART1_Initialize *****************
  1746 ;; Defined at:
  1747 ;;		line 66 in file "mcc_generated_files/uart1.c"
  1748 ;; Parameters:    Size  Location     Type
  1749 ;;		None
  1750 ;; Auto vars:     Size  Location     Type
  1751 ;;		None
  1752 ;; Return value:  Size  Location     Type
  1753 ;;                  1    wreg      void 
  1754 ;; Registers used:
  1755 ;;		wreg, status,2, status,0, cstack
  1756 ;; Tracked objects:
  1757 ;;		On entry : 0/0
  1758 ;;		On exit  : 0/0
  1759 ;;		Unchanged: 0/0
  1760 ;; Data sizes:     COMRAM   BANK5   BANK6   BANK7   BANK8   BANK9  BANK10  BANK11  BANK12  BANK13  BANK14  BANK15  BANK1
      +6  BANK17  BANK18  BANK19  BANK20  BANK21  BANK22  BANK23  BANK24  BANK25  BANK26  BANK27  BANK28  BANK29  BANK30  BANK3
      +1  BANK32  BANK33  BANK34  BANK35  BANK36  BANK37
  1761 ;;      Params:         0       0       0       0       0       0       0       0       0       0       0       0       
      +0       0       0       0       0       0       0       0       0       0       0       0       0       0       0       
      +0       0       0       0       0       0       0
  1762 ;;      Locals:         0       0       0       0       0       0       0       0       0       0       0       0       
      +0       0       0       0       0       0       0       0       0       0       0       0       0       0       0       
      +0       0       0       0       0       0       0
  1763 ;;      Temps:          0       0       0       0       0       0       0       0       0       0       0       0       
      +0       0       0       0       0       0       0       0       0       0       0       0       0       0       0       
      +0       0       0       0       0       0       0
  1764 ;;      Totals:         0       0       0       0       0       0       0       0       0       0       0       0       
      +0       0       0       0       0       0       0       0       0       0       0       0       0       0       0       
      +0       0       0       0       0       0       0
  1765 ;;Total ram usage:        0 bytes
  1766 ;; Hardware stack levels used: 1
  1767 ;; Hardware stack levels required when called: 13
  1768 ;; This function calls:
  1769 ;;		_UART1_SetErrorHandler
  1770 ;;		_UART1_SetFramingErrorHandler
  1771 ;;		_UART1_SetOverrunErrorHandler
  1772 ;; This function is called by:
  1773 ;;		_SYSTEM_Initialize
  1774 ;; This function uses a non-reentrant model
  1775 ;;
  1776                           
  1777                           	psect	text6
  1778  00613A                     __ptext6:
  1779                           	callstack 0
  1780  00613A                     _UART1_Initialize:
  1781                           	callstack 113
  1782  00613A                     
  1783                           ;mcc_generated_files/uart1.c: 73:     U1P1L = 0x00;
  1784  00613A  0E00               	movlw	0
  1785  00613C  0102               	movlb	2	; () banked
  1786  00613E  6FA5               	movwf	165,b	;volatile
  1787                           
  1788                           ;mcc_generated_files/uart1.c: 76:     U1P1H = 0x00;
  1789  006140  0E00               	movlw	0
  1790  006142  6FA6               	movwf	166,b	;volatile
  1791                           
  1792                           ;mcc_generated_files/uart1.c: 79:     U1P2L = 0x00;
  1793  006144  0E00               	movlw	0
  1794  006146  6FA7               	movwf	167,b	;volatile
  1795                           
  1796                           ;mcc_generated_files/uart1.c: 82:     U1P2H = 0x00;
  1797  006148  0E00               	movlw	0
  1798  00614A  6FA8               	movwf	168,b	;volatile
  1799                           
  1800                           ;mcc_generated_files/uart1.c: 85:     U1P3L = 0x00;
  1801  00614C  0E00               	movlw	0
  1802  00614E  6FA9               	movwf	169,b	;volatile
  1803                           
  1804                           ;mcc_generated_files/uart1.c: 88:     U1P3H = 0x00;
  1805  006150  0E00               	movlw	0
  1806  006152  6FAA               	movwf	170,b	;volatile
  1807                           
  1808                           ;mcc_generated_files/uart1.c: 91:     U1CON0 = 0xB0;
  1809  006154  0EB0               	movlw	176
  1810  006156  6FAB               	movwf	171,b	;volatile
  1811                           
  1812                           ;mcc_generated_files/uart1.c: 94:     U1CON1 = 0x80;
  1813  006158  0E80               	movlw	128
  1814  00615A  6FAC               	movwf	172,b	;volatile
  1815                           
  1816                           ;mcc_generated_files/uart1.c: 97:     U1CON2 = 0x00;
  1817  00615C  0E00               	movlw	0
  1818  00615E  6FAD               	movwf	173,b	;volatile
  1819                           
  1820                           ;mcc_generated_files/uart1.c: 100:     U1BRGL = 0x67;
  1821  006160  0E67               	movlw	103
  1822  006162  6FAE               	movwf	174,b	;volatile
  1823                           
  1824                           ;mcc_generated_files/uart1.c: 103:     U1BRGH = 0x00;
  1825  006164  0E00               	movlw	0
  1826  006166  6FAF               	movwf	175,b	;volatile
  1827                           
  1828                           ;mcc_generated_files/uart1.c: 106:     U1FIFO = 0x00;
  1829  006168  0E00               	movlw	0
  1830  00616A  6FB0               	movwf	176,b	;volatile
  1831                           
  1832                           ;mcc_generated_files/uart1.c: 109:     U1UIR = 0x00;
  1833  00616C  0E00               	movlw	0
  1834  00616E  6FB1               	movwf	177,b	;volatile
  1835                           
  1836                           ;mcc_generated_files/uart1.c: 112:     U1ERRIR = 0x00;
  1837  006170  0E00               	movlw	0
  1838  006172  6FB2               	movwf	178,b	;volatile
  1839                           
  1840                           ;mcc_generated_files/uart1.c: 115:     U1ERRIE = 0x00;
  1841  006174  0E00               	movlw	0
  1842  006176  6FB3               	movwf	179,b	;volatile
  1843  006178                     
  1844                           ; BSR set to: 2
  1845                           ;mcc_generated_files/uart1.c: 118:     UART1_SetFramingErrorHandler(UART1_DefaultFraming
      +                          ErrorHandler);
  1846  006178  0E00               	movlw	0
  1847  00617A  0106               	movlb	6	; () banked
  1848  00617C  6F64               	movwf	UART1_SetFramingErrorHandler@interruptHandler& (0+255),b
  1849  00617E  0E00               	movlw	0
  1850  006180  6F65               	movwf	(UART1_SetFramingErrorHandler@interruptHandler+1)& (0+255),b
  1851  006182  0E00               	movlw	0
  1852  006184  6F66               	movwf	(UART1_SetFramingErrorHandler@interruptHandler+2)& (0+255),b
  1853  006186  ECA2  F034         	call	_UART1_SetFramingErrorHandler	;wreg free
  1854  00618A                     
  1855                           ;mcc_generated_files/uart1.c: 119:     UART1_SetOverrunErrorHandler(UART1_DefaultOverrun
      +                          ErrorHandler);
  1856  00618A  0E00               	movlw	0
  1857  00618C  0106               	movlb	6	; () banked
  1858  00618E  6F64               	movwf	UART1_SetOverrunErrorHandler@interruptHandler& (0+255),b
  1859  006190  0E00               	movlw	0
  1860  006192  6F65               	movwf	(UART1_SetOverrunErrorHandler@interruptHandler+1)& (0+255),b
  1861  006194  0E00               	movlw	0
  1862  006196  6F66               	movwf	(UART1_SetOverrunErrorHandler@interruptHandler+2)& (0+255),b
  1863  006198  EC9B  F034         	call	_UART1_SetOverrunErrorHandler	;wreg free
  1864  00619C                     
  1865                           ;mcc_generated_files/uart1.c: 120:     UART1_SetErrorHandler(UART1_DefaultErrorHandler);
  1866  00619C  0E00               	movlw	0
  1867  00619E  0106               	movlb	6	; () banked
  1868  0061A0  6F64               	movwf	UART1_SetErrorHandler@interruptHandler& (0+255),b
  1869  0061A2  0E00               	movlw	0
  1870  0061A4  6F65               	movwf	(UART1_SetErrorHandler@interruptHandler+1)& (0+255),b
  1871  0061A6  0E00               	movlw	0
  1872  0061A8  6F66               	movwf	(UART1_SetErrorHandler@interruptHandler+2)& (0+255),b
  1873  0061AA  ECA9  F034         	call	_UART1_SetErrorHandler	;wreg free
  1874  0061AE                     
  1875                           ;mcc_generated_files/uart1.c: 122:     uart1RxLastError.status = 0;
  1876  0061AE  0E00               	movlw	0
  1877  0061B0  0106               	movlb	6	; () banked
  1878  0061B2  6F00               	movwf	_uart1RxLastError& (0+255),b	;volatile
  1879  0061B4                     
  1880                           ; BSR set to: 6
  1881  0061B4  0012               	return		;funcret
  1882  0061B6                     __end_of_UART1_Initialize:
  1883                           	callstack 0
  1884                           
  1885 ;; *************** function _UART1_SetOverrunErrorHandler *****************
  1886 ;; Defined at:
  1887 ;;		line 194 in file "mcc_generated_files/uart1.c"
  1888 ;; Parameters:    Size  Location     Type
  1889 ;;  interruptHan    3    0[BANK6 ] PTR FTN()void 
  1890 ;;		 -> UART1_DefaultOverrunErrorHandler(1), 
  1891 ;; Auto vars:     Size  Location     Type
  1892 ;;		None
  1893 ;; Return value:  Size  Location     Type
  1894 ;;                  1    wreg      void 
  1895 ;; Registers used:
  1896 ;;		wreg, status,2, status,0
  1897 ;; Tracked objects:
  1898 ;;		On entry : 0/0
  1899 ;;		On exit  : 0/0
  1900 ;;		Unchanged: 0/0
  1901 ;; Data sizes:     COMRAM   BANK5   BANK6   BANK7   BANK8   BANK9  BANK10  BANK11  BANK12  BANK13  BANK14  BANK15  BANK1
      +6  BANK17  BANK18  BANK19  BANK20  BANK21  BANK22  BANK23  BANK24  BANK25  BANK26  BANK27  BANK28  BANK29  BANK30  BANK3
      +1  BANK32  BANK33  BANK34  BANK35  BANK36  BANK37
  1902 ;;      Params:         0       0       3       0       0       0       0       0       0       0       0       0       
      +0       0       0       0       0       0       0       0       0       0       0       0       0       0       0       
      +0       0       0       0       0       0       0
  1903 ;;      Locals:         0       0       0       0       0       0       0       0       0       0       0       0       
      +0       0       0       0       0       0       0       0       0       0       0       0       0       0       0       
      +0       0       0       0       0       0       0
  1904 ;;      Temps:          0       0       0       0       0       0       0       0       0       0       0       0       
      +0       0       0       0       0       0       0       0       0       0       0       0       0       0       0       
      +0       0       0       0       0       0       0
  1905 ;;      Totals:         0       0       3       0       0       0       0       0       0       0       0       0       
      +0       0       0       0       0       0       0       0       0       0       0       0       0       0       0       
      +0       0       0       0       0       0       0
  1906 ;;Total ram usage:        3 bytes
  1907 ;; Hardware stack levels used: 1
  1908 ;; Hardware stack levels required when called: 12
  1909 ;; This function calls:
  1910 ;;		Nothing
  1911 ;; This function is called by:
  1912 ;;		_UART1_Initialize
  1913 ;; This function uses a non-reentrant model
  1914 ;;
  1915                           
  1916                           	psect	text7
  1917  006936                     __ptext7:
  1918                           	callstack 0
  1919  006936                     _UART1_SetOverrunErrorHandler:
  1920                           	callstack 113
  1921  006936                     
  1922                           ;mcc_generated_files/uart1.c: 195:     UART1_OverrunErrorHandler = interruptHandler;
  1923  006936  C664  F655         	movff	UART1_SetOverrunErrorHandler@interruptHandler,_UART1_OverrunErrorHandler
  1924  00693A  C665  F656         	movff	UART1_SetOverrunErrorHandler@interruptHandler+1,_UART1_OverrunErrorHandler+1
  1925  00693E  C666  F657         	movff	UART1_SetOverrunErrorHandler@interruptHandler+2,_UART1_OverrunErrorHandler+2
  1926  006942  0012               	return		;funcret
  1927  006944                     __end_of_UART1_SetOverrunErrorHandler:
  1928                           	callstack 0
  1929                           
  1930 ;; *************** function _UART1_SetFramingErrorHandler *****************
  1931 ;; Defined at:
  1932 ;;		line 190 in file "mcc_generated_files/uart1.c"
  1933 ;; Parameters:    Size  Location     Type
  1934 ;;  interruptHan    3    0[BANK6 ] PTR FTN()void 
  1935 ;;		 -> UART1_DefaultFramingErrorHandler(1), 
  1936 ;; Auto vars:     Size  Location     Type
  1937 ;;		None
  1938 ;; Return value:  Size  Location     Type
  1939 ;;                  1    wreg      void 
  1940 ;; Registers used:
  1941 ;;		wreg, status,2, status,0
  1942 ;; Tracked objects:
  1943 ;;		On entry : 0/0
  1944 ;;		On exit  : 0/0
  1945 ;;		Unchanged: 0/0
  1946 ;; Data sizes:     COMRAM   BANK5   BANK6   BANK7   BANK8   BANK9  BANK10  BANK11  BANK12  BANK13  BANK14  BANK15  BANK1
      +6  BANK17  BANK18  BANK19  BANK20  BANK21  BANK22  BANK23  BANK24  BANK25  BANK26  BANK27  BANK28  BANK29  BANK30  BANK3
      +1  BANK32  BANK33  BANK34  BANK35  BANK36  BANK37
  1947 ;;      Params:         0       0       3       0       0       0       0       0       0       0       0       0       
      +0       0       0       0       0       0       0       0       0       0       0       0       0       0       0       
      +0       0       0       0       0       0       0
  1948 ;;      Locals:         0       0       0       0       0       0       0       0       0       0       0       0       
      +0       0       0       0       0       0       0       0       0       0       0       0       0       0       0       
      +0       0       0       0       0       0       0
  1949 ;;      Temps:          0       0       0       0       0       0       0       0       0       0       0       0       
      +0       0       0       0       0       0       0       0       0       0       0       0       0       0       0       
      +0       0       0       0       0       0       0
  1950 ;;      Totals:         0       0       3       0       0       0       0       0       0       0       0       0       
      +0       0       0       0       0       0       0       0       0       0       0       0       0       0       0       
      +0       0       0       0       0       0       0
  1951 ;;Total ram usage:        3 bytes
  1952 ;; Hardware stack levels used: 1
  1953 ;; Hardware stack levels required when called: 12
  1954 ;; This function calls:
  1955 ;;		Nothing
  1956 ;; This function is called by:
  1957 ;;		_UART1_Initialize
  1958 ;; This function uses a non-reentrant model
  1959 ;;
  1960                           
  1961                           	psect	text8
  1962  006944                     __ptext8:
  1963                           	callstack 0
  1964  006944                     _UART1_SetFramingErrorHandler:
  1965                           	callstack 113
  1966  006944                     
  1967                           ;mcc_generated_files/uart1.c: 191:     UART1_FramingErrorHandler = interruptHandler;
  1968  006944  C664  F658         	movff	UART1_SetFramingErrorHandler@interruptHandler,_UART1_FramingErrorHandler
  1969  006948  C665  F659         	movff	UART1_SetFramingErrorHandler@interruptHandler+1,_UART1_FramingErrorHandler+1
  1970  00694C  C666  F65A         	movff	UART1_SetFramingErrorHandler@interruptHandler+2,_UART1_FramingErrorHandler+2
  1971  006950  0012               	return		;funcret
  1972  006952                     __end_of_UART1_SetFramingErrorHandler:
  1973                           	callstack 0
  1974                           
  1975 ;; *************** function _UART1_SetErrorHandler *****************
  1976 ;; Defined at:
  1977 ;;		line 198 in file "mcc_generated_files/uart1.c"
  1978 ;; Parameters:    Size  Location     Type
  1979 ;;  interruptHan    3    0[BANK6 ] PTR FTN()void 
  1980 ;;		 -> UART1_DefaultErrorHandler(1), 
  1981 ;; Auto vars:     Size  Location     Type
  1982 ;;		None
  1983 ;; Return value:  Size  Location     Type
  1984 ;;                  1    wreg      void 
  1985 ;; Registers used:
  1986 ;;		wreg, status,2, status,0
  1987 ;; Tracked objects:
  1988 ;;		On entry : 0/0
  1989 ;;		On exit  : 0/0
  1990 ;;		Unchanged: 0/0
  1991 ;; Data sizes:     COMRAM   BANK5   BANK6   BANK7   BANK8   BANK9  BANK10  BANK11  BANK12  BANK13  BANK14  BANK15  BANK1
      +6  BANK17  BANK18  BANK19  BANK20  BANK21  BANK22  BANK23  BANK24  BANK25  BANK26  BANK27  BANK28  BANK29  BANK30  BANK3
      +1  BANK32  BANK33  BANK34  BANK35  BANK36  BANK37
  1992 ;;      Params:         0       0       3       0       0       0       0       0       0       0       0       0       
      +0       0       0       0       0       0       0       0       0       0       0       0       0       0       0       
      +0       0       0       0       0       0       0
  1993 ;;      Locals:         0       0       0       0       0       0       0       0       0       0       0       0       
      +0       0       0       0       0       0       0       0       0       0       0       0       0       0       0       
      +0       0       0       0       0       0       0
  1994 ;;      Temps:          0       0       0       0       0       0       0       0       0       0       0       0       
      +0       0       0       0       0       0       0       0       0       0       0       0       0       0       0       
      +0       0       0       0       0       0       0
  1995 ;;      Totals:         0       0       3       0       0       0       0       0       0       0       0       0       
      +0       0       0       0       0       0       0       0       0       0       0       0       0       0       0       
      +0       0       0       0       0       0       0
  1996 ;;Total ram usage:        3 bytes
  1997 ;; Hardware stack levels used: 1
  1998 ;; Hardware stack levels required when called: 12
  1999 ;; This function calls:
  2000 ;;		Nothing
  2001 ;; This function is called by:
  2002 ;;		_UART1_Initialize
  2003 ;; This function uses a non-reentrant model
  2004 ;;
  2005                           
  2006                           	psect	text9
  2007  006952                     __ptext9:
  2008                           	callstack 0
  2009  006952                     _UART1_SetErrorHandler:
  2010                           	callstack 113
  2011  006952                     
  2012                           ;mcc_generated_files/uart1.c: 199:     UART1_ErrorHandler = interruptHandler;
  2013  006952  C664  F652         	movff	UART1_SetErrorHandler@interruptHandler,_UART1_ErrorHandler
  2014  006956  C665  F653         	movff	UART1_SetErrorHandler@interruptHandler+1,_UART1_ErrorHandler+1
  2015  00695A  C666  F654         	movff	UART1_SetErrorHandler@interruptHandler+2,_UART1_ErrorHandler+2
  2016  00695E  0012               	return		;funcret
  2017  006960                     __end_of_UART1_SetErrorHandler:
  2018                           	callstack 0
  2019                           
  2020 ;; *************** function _TMR0_Initialize *****************
  2021 ;; Defined at:
  2022 ;;		line 66 in file "mcc_generated_files/tmr0.c"
  2023 ;; Parameters:    Size  Location     Type
  2024 ;;		None
  2025 ;; Auto vars:     Size  Location     Type
  2026 ;;		None
  2027 ;; Return value:  Size  Location     Type
  2028 ;;                  1    wreg      void 
  2029 ;; Registers used:
  2030 ;;		wreg, status,2, status,0, cstack
  2031 ;; Tracked objects:
  2032 ;;		On entry : 0/0
  2033 ;;		On exit  : 0/0
  2034 ;;		Unchanged: 0/0
  2035 ;; Data sizes:     COMRAM   BANK5   BANK6   BANK7   BANK8   BANK9  BANK10  BANK11  BANK12  BANK13  BANK14  BANK15  BANK1
      +6  BANK17  BANK18  BANK19  BANK20  BANK21  BANK22  BANK23  BANK24  BANK25  BANK26  BANK27  BANK28  BANK29  BANK30  BANK3
      +1  BANK32  BANK33  BANK34  BANK35  BANK36  BANK37
  2036 ;;      Params:         0       0       0       0       0       0       0       0       0       0       0       0       
      +0       0       0       0       0       0       0       0       0       0       0       0       0       0       0       
      +0       0       0       0       0       0       0
  2037 ;;      Locals:         0       0       0       0       0       0       0       0       0       0       0       0       
      +0       0       0       0       0       0       0       0       0       0       0       0       0       0       0       
      +0       0       0       0       0       0       0
  2038 ;;      Temps:          0       0       0       0       0       0       0       0       0       0       0       0       
      +0       0       0       0       0       0       0       0       0       0       0       0       0       0       0       
      +0       0       0       0       0       0       0
  2039 ;;      Totals:         0       0       0       0       0       0       0       0       0       0       0       0       
      +0       0       0       0       0       0       0       0       0       0       0       0       0       0       0       
      +0       0       0       0       0       0       0
  2040 ;;Total ram usage:        0 bytes
  2041 ;; Hardware stack levels used: 1
  2042 ;; Hardware stack levels required when called: 13
  2043 ;; This function calls:
  2044 ;;		_TMR0_SetInterruptHandler
  2045 ;; This function is called by:
  2046 ;;		_SYSTEM_Initialize
  2047 ;; This function uses a non-reentrant model
  2048 ;;
  2049                           
  2050                           	psect	text10
  2051  006774                     __ptext10:
  2052                           	callstack 0
  2053  006774                     _TMR0_Initialize:
  2054                           	callstack 113
  2055  006774                     
  2056                           ;mcc_generated_files/tmr0.c: 71:     T0CON1 = 0x6E;
  2057  006774  0E6E               	movlw	110
  2058  006776  0103               	movlb	3	; () banked
  2059  006778  6F1B               	movwf	27,b	;volatile
  2060                           
  2061                           ;mcc_generated_files/tmr0.c: 74:     TMR0H = 0xFC;
  2062  00677A  0EFC               	movlw	252
  2063  00677C  6F19               	movwf	25,b	;volatile
  2064                           
  2065                           ;mcc_generated_files/tmr0.c: 77:     TMR0L = 0x2F;
  2066  00677E  0E2F               	movlw	47
  2067  006780  6F18               	movwf	24,b	;volatile
  2068                           
  2069                           ;mcc_generated_files/tmr0.c: 80:     timer0ReloadVal16bit = 0xFC2F;
  2070  006782  0EFC               	movlw	252
  2071  006784  0105               	movlb	5	; () banked
  2072  006786  6FE7               	movwf	(_timer0ReloadVal16bit+1)& (0+255),b	;volatile
  2073  006788  0E2F               	movlw	47
  2074  00678A  6FE6               	movwf	_timer0ReloadVal16bit& (0+255),b	;volatile
  2075  00678C                     
  2076                           ; BSR set to: 5
  2077                           ;mcc_generated_files/tmr0.c: 83:     PIR3bits.TMR0IF = 0;
  2078  00678C  9EB1               	bcf	177,7,c	;volatile
  2079  00678E                     
  2080                           ; BSR set to: 5
  2081                           ;mcc_generated_files/tmr0.c: 86:     PIE3bits.TMR0IE = 1;
  2082  00678E  8EA1               	bsf	161,7,c	;volatile
  2083  006790                     
  2084                           ; BSR set to: 5
  2085                           ;mcc_generated_files/tmr0.c: 89:     TMR0_SetInterruptHandler(TMR0_DefaultInterruptHandl
      +                          er);
  2086  006790  0E84               	movlw	low _TMR0_DefaultInterruptHandler
  2087  006792  0106               	movlb	6	; () banked
  2088  006794  6F64               	movwf	TMR0_SetInterruptHandler@InterruptHandler& (0+255),b
  2089  006796  0E69               	movlw	high _TMR0_DefaultInterruptHandler
  2090  006798  6F65               	movwf	(TMR0_SetInterruptHandler@InterruptHandler+1)& (0+255),b
  2091  00679A  0E00               	movlw	low (_TMR0_DefaultInterruptHandler shr (0+16))
  2092  00679C  6F66               	movwf	(TMR0_SetInterruptHandler@InterruptHandler+2)& (0+255),b
  2093  00679E  ECB0  F034         	call	_TMR0_SetInterruptHandler	;wreg free
  2094  0067A2                     
  2095                           ;mcc_generated_files/tmr0.c: 92:     T0CON0 = 0x99;
  2096  0067A2  0E99               	movlw	153
  2097  0067A4  0103               	movlb	3	; () banked
  2098  0067A6  6F1A               	movwf	26,b	;volatile
  2099  0067A8                     
  2100                           ; BSR set to: 3
  2101  0067A8  0012               	return		;funcret
  2102  0067AA                     __end_of_TMR0_Initialize:
  2103                           	callstack 0
  2104                           
  2105 ;; *************** function _TMR0_SetInterruptHandler *****************
  2106 ;; Defined at:
  2107 ;;		line 151 in file "mcc_generated_files/tmr0.c"
  2108 ;; Parameters:    Size  Location     Type
  2109 ;;  InterruptHan    3    0[BANK6 ] PTR FTN()void 
  2110 ;;		 -> sensor_interrupt(1), TMR0_DefaultInterruptHandler(1), 
  2111 ;; Auto vars:     Size  Location     Type
  2112 ;;		None
  2113 ;; Return value:  Size  Location     Type
  2114 ;;                  1    wreg      void 
  2115 ;; Registers used:
  2116 ;;		wreg, status,2, status,0
  2117 ;; Tracked objects:
  2118 ;;		On entry : 0/0
  2119 ;;		On exit  : 0/0
  2120 ;;		Unchanged: 0/0
  2121 ;; Data sizes:     COMRAM   BANK5   BANK6   BANK7   BANK8   BANK9  BANK10  BANK11  BANK12  BANK13  BANK14  BANK15  BANK1
      +6  BANK17  BANK18  BANK19  BANK20  BANK21  BANK22  BANK23  BANK24  BANK25  BANK26  BANK27  BANK28  BANK29  BANK30  BANK3
      +1  BANK32  BANK33  BANK34  BANK35  BANK36  BANK37
  2122 ;;      Params:         0       0       3       0       0       0       0       0       0       0       0       0       
      +0       0       0       0       0       0       0       0       0       0       0       0       0       0       0       
      +0       0       0       0       0       0       0
  2123 ;;      Locals:         0       0       0       0       0       0       0       0       0       0       0       0       
      +0       0       0       0       0       0       0       0       0       0       0       0       0       0       0       
      +0       0       0       0       0       0       0
  2124 ;;      Temps:          0       0       0       0       0       0       0       0       0       0       0       0       
      +0       0       0       0       0       0       0       0       0       0       0       0       0       0       0       
      +0       0       0       0       0       0       0
  2125 ;;      Totals:         0       0       3       0       0       0       0       0       0       0       0       0       
      +0       0       0       0       0       0       0       0       0       0       0       0       0       0       0       
      +0       0       0       0       0       0       0
  2126 ;;Total ram usage:        3 bytes
  2127 ;; Hardware stack levels used: 1
  2128 ;; Hardware stack levels required when called: 12
  2129 ;; This function calls:
  2130 ;;		Nothing
  2131 ;; This function is called by:
  2132 ;;		_TMR0_Initialize
  2133 ;;		_main
  2134 ;; This function uses a non-reentrant model
  2135 ;;
  2136                           
  2137                           	psect	text11
  2138  006960                     __ptext11:
  2139                           	callstack 0
  2140  006960                     _TMR0_SetInterruptHandler:
  2141                           	callstack 115
  2142  006960                     
  2143                           ;mcc_generated_files/tmr0.c: 152:     TMR0_InterruptHandler = InterruptHandler;
  2144  006960  C664  F5E3         	movff	TMR0_SetInterruptHandler@InterruptHandler,_TMR0_InterruptHandler
  2145  006964  C665  F5E4         	movff	TMR0_SetInterruptHandler@InterruptHandler+1,_TMR0_InterruptHandler+1
  2146  006968  C666  F5E5         	movff	TMR0_SetInterruptHandler@InterruptHandler+2,_TMR0_InterruptHandler+2
  2147  00696C  0012               	return		;funcret
  2148  00696E                     __end_of_TMR0_SetInterruptHandler:
  2149                           	callstack 0
  2150                           
  2151 ;; *************** function _PMD_Initialize *****************
  2152 ;; Defined at:
  2153 ;;		line 78 in file "mcc_generated_files/mcc.c"
  2154 ;; Parameters:    Size  Location     Type
  2155 ;;		None
  2156 ;; Auto vars:     Size  Location     Type
  2157 ;;		None
  2158 ;; Return value:  Size  Location     Type
  2159 ;;                  1    wreg      void 
  2160 ;; Registers used:
  2161 ;;		wreg, status,2
  2162 ;; Tracked objects:
  2163 ;;		On entry : 0/0
  2164 ;;		On exit  : 0/0
  2165 ;;		Unchanged: 0/0
  2166 ;; Data sizes:     COMRAM   BANK5   BANK6   BANK7   BANK8   BANK9  BANK10  BANK11  BANK12  BANK13  BANK14  BANK15  BANK1
      +6  BANK17  BANK18  BANK19  BANK20  BANK21  BANK22  BANK23  BANK24  BANK25  BANK26  BANK27  BANK28  BANK29  BANK30  BANK3
      +1  BANK32  BANK33  BANK34  BANK35  BANK36  BANK37
  2167 ;;      Params:         0       0       0       0       0       0       0       0       0       0       0       0       
      +0       0       0       0       0       0       0       0       0       0       0       0       0       0       0       
      +0       0       0       0       0       0       0
  2168 ;;      Locals:         0       0       0       0       0       0       0       0       0       0       0       0       
      +0       0       0       0       0       0       0       0       0       0       0       0       0       0       0       
      +0       0       0       0       0       0       0
  2169 ;;      Temps:          0       0       0       0       0       0       0       0       0       0       0       0       
      +0       0       0       0       0       0       0       0       0       0       0       0       0       0       0       
      +0       0       0       0       0       0       0
  2170 ;;      Totals:         0       0       0       0       0       0       0       0       0       0       0       0       
      +0       0       0       0       0       0       0       0       0       0       0       0       0       0       0       
      +0       0       0       0       0       0       0
  2171 ;;Total ram usage:        0 bytes
  2172 ;; Hardware stack levels used: 1
  2173 ;; Hardware stack levels required when called: 12
  2174 ;; This function calls:
  2175 ;;		Nothing
  2176 ;; This function is called by:
  2177 ;;		_SYSTEM_Initialize
  2178 ;; This function uses a non-reentrant model
  2179 ;;
  2180                           
  2181                           	psect	text12
  2182  006858                     __ptext12:
  2183                           	callstack 0
  2184  006858                     _PMD_Initialize:
  2185                           	callstack 114
  2186  006858                     
  2187                           ;mcc_generated_files/mcc.c: 81:     PMD0 = 0x00;
  2188  006858  0E00               	movlw	0
  2189  00685A  0100               	movlb	0	; () banked
  2190  00685C  6F60               	movwf	96,b	;volatile
  2191                           
  2192                           ;mcc_generated_files/mcc.c: 83:     PMD1 = 0x00;
  2193  00685E  0E00               	movlw	0
  2194  006860  6F61               	movwf	97,b	;volatile
  2195                           
  2196                           ;mcc_generated_files/mcc.c: 85:     PMD3 = 0x00;
  2197  006862  0E00               	movlw	0
  2198  006864  6F63               	movwf	99,b	;volatile
  2199                           
  2200                           ;mcc_generated_files/mcc.c: 87:     PMD4 = 0x00;
  2201  006866  0E00               	movlw	0
  2202  006868  6F64               	movwf	100,b	;volatile
  2203                           
  2204                           ;mcc_generated_files/mcc.c: 89:     PMD5 = 0x00;
  2205  00686A  0E00               	movlw	0
  2206  00686C  6F65               	movwf	101,b	;volatile
  2207                           
  2208                           ;mcc_generated_files/mcc.c: 91:     PMD6 = 0x00;
  2209  00686E  0E00               	movlw	0
  2210  006870  6F66               	movwf	102,b	;volatile
  2211                           
  2212                           ;mcc_generated_files/mcc.c: 93:     PMD7 = 0x00;
  2213  006872  0E00               	movlw	0
  2214  006874  6F67               	movwf	103,b	;volatile
  2215                           
  2216                           ;mcc_generated_files/mcc.c: 95:     PMD8 = 0x00;
  2217  006876  0E00               	movlw	0
  2218  006878  6F68               	movwf	104,b	;volatile
  2219  00687A                     
  2220                           ; BSR set to: 0
  2221  00687A  0012               	return		;funcret
  2222  00687C                     __end_of_PMD_Initialize:
  2223                           	callstack 0
  2224                           
  2225 ;; *************** function _PIN_MANAGER_Initialize *****************
  2226 ;; Defined at:
  2227 ;;		line 55 in file "mcc_generated_files/pin_manager.c"
  2228 ;; Parameters:    Size  Location     Type
  2229 ;;		None
  2230 ;; Auto vars:     Size  Location     Type
  2231 ;;		None
  2232 ;; Return value:  Size  Location     Type
  2233 ;;                  1    wreg      void 
  2234 ;; Registers used:
  2235 ;;		wreg, status,2
  2236 ;; Tracked objects:
  2237 ;;		On entry : 0/0
  2238 ;;		On exit  : 0/0
  2239 ;;		Unchanged: 0/0
  2240 ;; Data sizes:     COMRAM   BANK5   BANK6   BANK7   BANK8   BANK9  BANK10  BANK11  BANK12  BANK13  BANK14  BANK15  BANK1
      +6  BANK17  BANK18  BANK19  BANK20  BANK21  BANK22  BANK23  BANK24  BANK25  BANK26  BANK27  BANK28  BANK29  BANK30  BANK3
      +1  BANK32  BANK33  BANK34  BANK35  BANK36  BANK37
  2241 ;;      Params:         0       0       0       0       0       0       0       0       0       0       0       0       
      +0       0       0       0       0       0       0       0       0       0       0       0       0       0       0       
      +0       0       0       0       0       0       0
  2242 ;;      Locals:         0       0       0       0       0       0       0       0       0       0       0       0       
      +0       0       0       0       0       0       0       0       0       0       0       0       0       0       0       
      +0       0       0       0       0       0       0
  2243 ;;      Temps:          0       0       0       0       0       0       0       0       0       0       0       0       
      +0       0       0       0       0       0       0       0       0       0       0       0       0       0       0       
      +0       0       0       0       0       0       0
  2244 ;;      Totals:         0       0       0       0       0       0       0       0       0       0       0       0       
      +0       0       0       0       0       0       0       0       0       0       0       0       0       0       0       
      +0       0       0       0       0       0       0
  2245 ;;Total ram usage:        0 bytes
  2246 ;; Hardware stack levels used: 1
  2247 ;; Hardware stack levels required when called: 12
  2248 ;; This function calls:
  2249 ;;		Nothing
  2250 ;; This function is called by:
  2251 ;;		_SYSTEM_Initialize
  2252 ;; This function uses a non-reentrant model
  2253 ;;
  2254                           
  2255                           	psect	text13
  2256  005E28                     __ptext13:
  2257                           	callstack 0
  2258  005E28                     _PIN_MANAGER_Initialize:
  2259                           	callstack 114
  2260  005E28                     
  2261                           ;mcc_generated_files/pin_manager.c: 60:     LATE = 0x00;
  2262  005E28  0E00               	movlw	0
  2263  005E2A  6EC2               	movwf	194,c	;volatile
  2264                           
  2265                           ;mcc_generated_files/pin_manager.c: 61:     LATD = 0x00;
  2266  005E2C  0E00               	movlw	0
  2267  005E2E  6EC1               	movwf	193,c	;volatile
  2268                           
  2269                           ;mcc_generated_files/pin_manager.c: 62:     LATA = 0x00;
  2270  005E30  0E00               	movlw	0
  2271  005E32  6EBE               	movwf	190,c	;volatile
  2272                           
  2273                           ;mcc_generated_files/pin_manager.c: 63:     LATF = 0x00;
  2274  005E34  0E00               	movlw	0
  2275  005E36  6EC3               	movwf	195,c	;volatile
  2276                           
  2277                           ;mcc_generated_files/pin_manager.c: 64:     LATB = 0x00;
  2278  005E38  0E00               	movlw	0
  2279  005E3A  6EBF               	movwf	191,c	;volatile
  2280                           
  2281                           ;mcc_generated_files/pin_manager.c: 65:     LATC = 0x00;
  2282  005E3C  0E00               	movlw	0
  2283  005E3E  6EC0               	movwf	192,c	;volatile
  2284                           
  2285                           ;mcc_generated_files/pin_manager.c: 70:     TRISE = 0x07;
  2286  005E40  0E07               	movlw	7
  2287  005E42  6ECA               	movwf	202,c	;volatile
  2288                           
  2289                           ;mcc_generated_files/pin_manager.c: 71:     TRISF = 0xF6;
  2290  005E44  0EF6               	movlw	246
  2291  005E46  6ECB               	movwf	203,c	;volatile
  2292  005E48                     
  2293                           ;mcc_generated_files/pin_manager.c: 72:     TRISA = 0xFF;
  2294  005E48  68C6               	setf	198,c	;volatile
  2295                           
  2296                           ;mcc_generated_files/pin_manager.c: 73:     TRISB = 0xEF;
  2297  005E4A  0EEF               	movlw	239
  2298  005E4C  6EC7               	movwf	199,c	;volatile
  2299                           
  2300                           ;mcc_generated_files/pin_manager.c: 74:     TRISC = 0xFB;
  2301  005E4E  0EFB               	movlw	251
  2302  005E50  6EC8               	movwf	200,c	;volatile
  2303  005E52                     
  2304                           ;mcc_generated_files/pin_manager.c: 75:     TRISD = 0xFF;
  2305  005E52  68C9               	setf	201,c	;volatile
  2306  005E54                     
  2307                           ;mcc_generated_files/pin_manager.c: 80:     ANSELD = 0xFF;
  2308  005E54  0104               	movlb	4	; () banked
  2309  005E56  6918               	setf	24,b	;volatile
  2310                           
  2311                           ;mcc_generated_files/pin_manager.c: 81:     ANSELC = 0xF3;
  2312  005E58  0EF3               	movlw	243
  2313  005E5A  6F10               	movwf	16,b	;volatile
  2314                           
  2315                           ;mcc_generated_files/pin_manager.c: 82:     ANSELB = 0xEF;
  2316  005E5C  0EEF               	movlw	239
  2317  005E5E  6F08               	movwf	8,b	;volatile
  2318                           
  2319                           ;mcc_generated_files/pin_manager.c: 83:     ANSELE = 0x07;
  2320  005E60  0E07               	movlw	7
  2321  005E62  6F20               	movwf	32,b	;volatile
  2322                           
  2323                           ;mcc_generated_files/pin_manager.c: 84:     ANSELF = 0xF6;
  2324  005E64  0EF6               	movlw	246
  2325  005E66  6F28               	movwf	40,b	;volatile
  2326                           
  2327                           ;mcc_generated_files/pin_manager.c: 85:     ANSELA = 0xDF;
  2328  005E68  0EDF               	movlw	223
  2329  005E6A  6F00               	movwf	0,b	;volatile
  2330                           
  2331                           ;mcc_generated_files/pin_manager.c: 90:     WPUD = 0x00;
  2332  005E6C  0E00               	movlw	0
  2333  005E6E  6F19               	movwf	25,b	;volatile
  2334                           
  2335                           ;mcc_generated_files/pin_manager.c: 91:     WPUF = 0x00;
  2336  005E70  0E00               	movlw	0
  2337  005E72  6F29               	movwf	41,b	;volatile
  2338                           
  2339                           ;mcc_generated_files/pin_manager.c: 92:     WPUE = 0x00;
  2340  005E74  0E00               	movlw	0
  2341  005E76  6F21               	movwf	33,b	;volatile
  2342                           
  2343                           ;mcc_generated_files/pin_manager.c: 93:     WPUB = 0x00;
  2344  005E78  0E00               	movlw	0
  2345  005E7A  6F09               	movwf	9,b	;volatile
  2346                           
  2347                           ;mcc_generated_files/pin_manager.c: 94:     WPUA = 0x00;
  2348  005E7C  0E00               	movlw	0
  2349  005E7E  6F01               	movwf	1,b	;volatile
  2350                           
  2351                           ;mcc_generated_files/pin_manager.c: 95:     WPUC = 0x00;
  2352  005E80  0E00               	movlw	0
  2353  005E82  6F11               	movwf	17,b	;volatile
  2354                           
  2355                           ;mcc_generated_files/pin_manager.c: 100:     RB1I2C = 0x00;
  2356  005E84  0E00               	movlw	0
  2357  005E86  0102               	movlb	2	; () banked
  2358  005E88  6F89               	movwf	137,b	;volatile
  2359                           
  2360                           ;mcc_generated_files/pin_manager.c: 101:     RB2I2C = 0x00;
  2361  005E8A  0E00               	movlw	0
  2362  005E8C  6F88               	movwf	136,b	;volatile
  2363                           
  2364                           ;mcc_generated_files/pin_manager.c: 102:     RC3I2C = 0x00;
  2365  005E8E  0E00               	movlw	0
  2366  005E90  6F87               	movwf	135,b	;volatile
  2367                           
  2368                           ;mcc_generated_files/pin_manager.c: 103:     RC4I2C = 0x00;
  2369  005E92  0E00               	movlw	0
  2370  005E94  6F86               	movwf	134,b	;volatile
  2371                           
  2372                           ;mcc_generated_files/pin_manager.c: 108:     ODCONE = 0x00;
  2373  005E96  0E00               	movlw	0
  2374  005E98  0104               	movlb	4	; () banked
  2375  005E9A  6F22               	movwf	34,b	;volatile
  2376                           
  2377                           ;mcc_generated_files/pin_manager.c: 109:     ODCONF = 0x00;
  2378  005E9C  0E00               	movlw	0
  2379  005E9E  6F2A               	movwf	42,b	;volatile
  2380                           
  2381                           ;mcc_generated_files/pin_manager.c: 110:     ODCONA = 0x00;
  2382  005EA0  0E00               	movlw	0
  2383  005EA2  6F02               	movwf	2,b	;volatile
  2384                           
  2385                           ;mcc_generated_files/pin_manager.c: 111:     ODCONB = 0x00;
  2386  005EA4  0E00               	movlw	0
  2387  005EA6  6F0A               	movwf	10,b	;volatile
  2388                           
  2389                           ;mcc_generated_files/pin_manager.c: 112:     ODCONC = 0x00;
  2390  005EA8  0E00               	movlw	0
  2391  005EAA  6F12               	movwf	18,b	;volatile
  2392                           
  2393                           ;mcc_generated_files/pin_manager.c: 113:     ODCOND = 0x00;
  2394  005EAC  0E00               	movlw	0
  2395  005EAE  6F1A               	movwf	26,b	;volatile
  2396  005EB0                     
  2397                           ; BSR set to: 4
  2398                           ;mcc_generated_files/pin_manager.c: 118:     SLRCONA = 0xFF;
  2399  005EB0  6903               	setf	3,b	;volatile
  2400  005EB2                     
  2401                           ; BSR set to: 4
  2402                           ;mcc_generated_files/pin_manager.c: 119:     SLRCONB = 0xFF;
  2403  005EB2  690B               	setf	11,b	;volatile
  2404  005EB4                     
  2405                           ; BSR set to: 4
  2406                           ;mcc_generated_files/pin_manager.c: 120:     SLRCONC = 0xFF;
  2407  005EB4  6913               	setf	19,b	;volatile
  2408  005EB6                     
  2409                           ; BSR set to: 4
  2410                           ;mcc_generated_files/pin_manager.c: 121:     SLRCOND = 0xFF;
  2411  005EB6  691B               	setf	27,b	;volatile
  2412                           
  2413                           ;mcc_generated_files/pin_manager.c: 122:     SLRCONE = 0x07;
  2414  005EB8  0E07               	movlw	7
  2415  005EBA  6F23               	movwf	35,b	;volatile
  2416  005EBC                     
  2417                           ; BSR set to: 4
  2418                           ;mcc_generated_files/pin_manager.c: 123:     SLRCONF = 0xFF;
  2419  005EBC  692B               	setf	43,b	;volatile
  2420  005EBE                     
  2421                           ; BSR set to: 4
  2422                           ;mcc_generated_files/pin_manager.c: 128:     INLVLA = 0xFF;
  2423  005EBE  6904               	setf	4,b	;volatile
  2424  005EC0                     
  2425                           ; BSR set to: 4
  2426                           ;mcc_generated_files/pin_manager.c: 129:     INLVLB = 0xFF;
  2427  005EC0  690C               	setf	12,b	;volatile
  2428  005EC2                     
  2429                           ; BSR set to: 4
  2430                           ;mcc_generated_files/pin_manager.c: 130:     INLVLC = 0xFF;
  2431  005EC2  6914               	setf	20,b	;volatile
  2432  005EC4                     
  2433                           ; BSR set to: 4
  2434                           ;mcc_generated_files/pin_manager.c: 131:     INLVLD = 0xFF;
  2435  005EC4  691C               	setf	28,b	;volatile
  2436                           
  2437                           ;mcc_generated_files/pin_manager.c: 132:     INLVLE = 0x0F;
  2438  005EC6  0E0F               	movlw	15
  2439  005EC8  6F24               	movwf	36,b	;volatile
  2440  005ECA                     
  2441                           ; BSR set to: 4
  2442                           ;mcc_generated_files/pin_manager.c: 133:     INLVLF = 0xFF;
  2443  005ECA  692C               	setf	44,b	;volatile
  2444                           
  2445                           ;mcc_generated_files/pin_manager.c: 142:     U5RXPPS = 0x05;
  2446  005ECC  0E05               	movlw	5
  2447  005ECE  0102               	movlb	2	; () banked
  2448  005ED0  6F7A               	movwf	122,b	;volatile
  2449                           
  2450                           ;mcc_generated_files/pin_manager.c: 143:     RC2PPS = 0x20;
  2451  005ED2  0E20               	movlw	32
  2452  005ED4  6F13               	movwf	19,b	;volatile
  2453                           
  2454                           ;mcc_generated_files/pin_manager.c: 144:     RF0PPS = 0x2C;
  2455  005ED6  0E2C               	movlw	44
  2456  005ED8  6F29               	movwf	41,b	;volatile
  2457                           
  2458                           ;mcc_generated_files/pin_manager.c: 145:     U1RXPPS = 0x13;
  2459  005EDA  0E13               	movlw	19
  2460  005EDC  6F72               	movwf	114,b	;volatile
  2461  005EDE                     
  2462                           ; BSR set to: 2
  2463  005EDE  0012               	return		;funcret
  2464  005EE0                     __end_of_PIN_MANAGER_Initialize:
  2465                           	callstack 0
  2466                           
  2467 ;; *************** function _OSCILLATOR_Initialize *****************
  2468 ;; Defined at:
  2469 ;;		line 62 in file "mcc_generated_files/mcc.c"
  2470 ;; Parameters:    Size  Location     Type
  2471 ;;		None
  2472 ;; Auto vars:     Size  Location     Type
  2473 ;;		None
  2474 ;; Return value:  Size  Location     Type
  2475 ;;                  1    wreg      void 
  2476 ;; Registers used:
  2477 ;;		wreg, status,2
  2478 ;; Tracked objects:
  2479 ;;		On entry : 0/0
  2480 ;;		On exit  : 0/0
  2481 ;;		Unchanged: 0/0
  2482 ;; Data sizes:     COMRAM   BANK5   BANK6   BANK7   BANK8   BANK9  BANK10  BANK11  BANK12  BANK13  BANK14  BANK15  BANK1
      +6  BANK17  BANK18  BANK19  BANK20  BANK21  BANK22  BANK23  BANK24  BANK25  BANK26  BANK27  BANK28  BANK29  BANK30  BANK3
      +1  BANK32  BANK33  BANK34  BANK35  BANK36  BANK37
  2483 ;;      Params:         0       0       0       0       0       0       0       0       0       0       0       0       
      +0       0       0       0       0       0       0       0       0       0       0       0       0       0       0       
      +0       0       0       0       0       0       0
  2484 ;;      Locals:         0       0       0       0       0       0       0       0       0       0       0       0       
      +0       0       0       0       0       0       0       0       0       0       0       0       0       0       0       
      +0       0       0       0       0       0       0
  2485 ;;      Temps:          0       0       0       0       0       0       0       0       0       0       0       0       
      +0       0       0       0       0       0       0       0       0       0       0       0       0       0       0       
      +0       0       0       0       0       0       0
  2486 ;;      Totals:         0       0       0       0       0       0       0       0       0       0       0       0       
      +0       0       0       0       0       0       0       0       0       0       0       0       0       0       0       
      +0       0       0       0       0       0       0
  2487 ;;Total ram usage:        0 bytes
  2488 ;; Hardware stack levels used: 1
  2489 ;; Hardware stack levels required when called: 12
  2490 ;; This function calls:
  2491 ;;		Nothing
  2492 ;; This function is called by:
  2493 ;;		_SYSTEM_Initialize
  2494 ;; This function uses a non-reentrant model
  2495 ;;
  2496                           
  2497                           	psect	text14
  2498  0068C0                     __ptext14:
  2499                           	callstack 0
  2500  0068C0                     _OSCILLATOR_Initialize:
  2501                           	callstack 114
  2502  0068C0                     
  2503                           ;mcc_generated_files/mcc.c: 65:     OSCCON1 = 0x62;
  2504  0068C0  0E62               	movlw	98
  2505  0068C2  0100               	movlb	0	; () banked
  2506  0068C4  6FAD               	movwf	173,b	;volatile
  2507                           
  2508                           ;mcc_generated_files/mcc.c: 67:     OSCCON3 = 0x00;
  2509  0068C6  0E00               	movlw	0
  2510  0068C8  6FAF               	movwf	175,b	;volatile
  2511                           
  2512                           ;mcc_generated_files/mcc.c: 69:     OSCEN = 0x00;
  2513  0068CA  0E00               	movlw	0
  2514  0068CC  6FB3               	movwf	179,b	;volatile
  2515                           
  2516                           ;mcc_generated_files/mcc.c: 71:     OSCFRQ = 0x05;
  2517  0068CE  0E05               	movlw	5
  2518  0068D0  6FB1               	movwf	177,b	;volatile
  2519                           
  2520                           ;mcc_generated_files/mcc.c: 73:     OSCTUNE = 0x00;
  2521  0068D2  0E00               	movlw	0
  2522  0068D4  6FB0               	movwf	176,b	;volatile
  2523                           
  2524                           ;mcc_generated_files/mcc.c: 75:     ACTCON = 0x00;
  2525  0068D6  0E00               	movlw	0
  2526  0068D8  6FAC               	movwf	172,b	;volatile
  2527  0068DA                     
  2528                           ; BSR set to: 0
  2529  0068DA  0012               	return		;funcret
  2530  0068DC                     __end_of_OSCILLATOR_Initialize:
  2531                           	callstack 0
  2532                           
  2533 ;; *************** function _INTERRUPT_Initialize *****************
  2534 ;; Defined at:
  2535 ;;		line 52 in file "mcc_generated_files/interrupt_manager.c"
  2536 ;; Parameters:    Size  Location     Type
  2537 ;;		None
  2538 ;; Auto vars:     Size  Location     Type
  2539 ;;		None
  2540 ;; Return value:  Size  Location     Type
  2541 ;;                  1    wreg      void 
  2542 ;; Registers used:
  2543 ;;		None
  2544 ;; Tracked objects:
  2545 ;;		On entry : 0/0
  2546 ;;		On exit  : 0/0
  2547 ;;		Unchanged: 0/0
  2548 ;; Data sizes:     COMRAM   BANK5   BANK6   BANK7   BANK8   BANK9  BANK10  BANK11  BANK12  BANK13  BANK14  BANK15  BANK1
      +6  BANK17  BANK18  BANK19  BANK20  BANK21  BANK22  BANK23  BANK24  BANK25  BANK26  BANK27  BANK28  BANK29  BANK30  BANK3
      +1  BANK32  BANK33  BANK34  BANK35  BANK36  BANK37
  2549 ;;      Params:         0       0       0       0       0       0       0       0       0       0       0       0       
      +0       0       0       0       0       0       0       0       0       0       0       0       0       0       0       
      +0       0       0       0       0       0       0
  2550 ;;      Locals:         0       0       0       0       0       0       0       0       0       0       0       0       
      +0       0       0       0       0       0       0       0       0       0       0       0       0       0       0       
      +0       0       0       0       0       0       0
  2551 ;;      Temps:          0       0       0       0       0       0       0       0       0       0       0       0       
      +0       0       0       0       0       0       0       0       0       0       0       0       0       0       0       
      +0       0       0       0       0       0       0
  2552 ;;      Totals:         0       0       0       0       0       0       0       0       0       0       0       0       
      +0       0       0       0       0       0       0       0       0       0       0       0       0       0       0       
      +0       0       0       0       0       0       0
  2553 ;;Total ram usage:        0 bytes
  2554 ;; Hardware stack levels used: 1
  2555 ;; Hardware stack levels required when called: 12
  2556 ;; This function calls:
  2557 ;;		Nothing
  2558 ;; This function is called by:
  2559 ;;		_SYSTEM_Initialize
  2560 ;; This function uses a non-reentrant model
  2561 ;;
  2562                           
  2563                           	psect	text15
  2564  006980                     __ptext15:
  2565                           	callstack 0
  2566  006980                     _INTERRUPT_Initialize:
  2567                           	callstack 114
  2568  006980                     
  2569                           ;mcc_generated_files/interrupt_manager.c: 55:     INTCON0bits.IPEN = 0;
  2570  006980  9AD6               	bcf	214,5,c	;volatile
  2571  006982  0012               	return		;funcret
  2572  006984                     __end_of_INTERRUPT_Initialize:
  2573                           	callstack 0
  2574                           
  2575 ;; *************** function _ADCC_Initialize *****************
  2576 ;; Defined at:
  2577 ;;		line 62 in file "mcc_generated_files/adcc.c"
  2578 ;; Parameters:    Size  Location     Type
  2579 ;;		None
  2580 ;; Auto vars:     Size  Location     Type
  2581 ;;		None
  2582 ;; Return value:  Size  Location     Type
  2583 ;;                  1    wreg      void 
  2584 ;; Registers used:
  2585 ;;		wreg, status,2
  2586 ;; Tracked objects:
  2587 ;;		On entry : 0/0
  2588 ;;		On exit  : 0/0
  2589 ;;		Unchanged: 0/0
  2590 ;; Data sizes:     COMRAM   BANK5   BANK6   BANK7   BANK8   BANK9  BANK10  BANK11  BANK12  BANK13  BANK14  BANK15  BANK1
      +6  BANK17  BANK18  BANK19  BANK20  BANK21  BANK22  BANK23  BANK24  BANK25  BANK26  BANK27  BANK28  BANK29  BANK30  BANK3
      +1  BANK32  BANK33  BANK34  BANK35  BANK36  BANK37
  2591 ;;      Params:         0       0       0       0       0       0       0       0       0       0       0       0       
      +0       0       0       0       0       0       0       0       0       0       0       0       0       0       0       
      +0       0       0       0       0       0       0
  2592 ;;      Locals:         0       0       0       0       0       0       0       0       0       0       0       0       
      +0       0       0       0       0       0       0       0       0       0       0       0       0       0       0       
      +0       0       0       0       0       0       0
  2593 ;;      Temps:          0       0       0       0       0       0       0       0       0       0       0       0       
      +0       0       0       0       0       0       0       0       0       0       0       0       0       0       0       
      +0       0       0       0       0       0       0
  2594 ;;      Totals:         0       0       0       0       0       0       0       0       0       0       0       0       
      +0       0       0       0       0       0       0       0       0       0       0       0       0       0       0       
      +0       0       0       0       0       0       0
  2595 ;;Total ram usage:        0 bytes
  2596 ;; Hardware stack levels used: 1
  2597 ;; Hardware stack levels required when called: 12
  2598 ;; This function calls:
  2599 ;;		Nothing
  2600 ;; This function is called by:
  2601 ;;		_SYSTEM_Initialize
  2602 ;; This function uses a non-reentrant model
  2603 ;;
  2604                           
  2605                           	psect	text16
  2606  0063B4                     __ptext16:
  2607                           	callstack 0
  2608  0063B4                     _ADCC_Initialize:
  2609                           	callstack 114
  2610  0063B4                     
  2611                           ;mcc_generated_files/adcc.c: 66:     ADLTHL = 0x00;
  2612  0063B4  0E00               	movlw	0
  2613  0063B6  0103               	movlb	3	; () banked
  2614  0063B8  6FD9               	movwf	217,b	;volatile
  2615                           
  2616                           ;mcc_generated_files/adcc.c: 68:     ADLTHH = 0x00;
  2617  0063BA  0E00               	movlw	0
  2618  0063BC  6FDA               	movwf	218,b	;volatile
  2619                           
  2620                           ;mcc_generated_files/adcc.c: 70:     ADUTHL = 0x00;
  2621  0063BE  0E00               	movlw	0
  2622  0063C0  6FDB               	movwf	219,b	;volatile
  2623                           
  2624                           ;mcc_generated_files/adcc.c: 72:     ADUTHH = 0x00;
  2625  0063C2  0E00               	movlw	0
  2626  0063C4  6FDC               	movwf	220,b	;volatile
  2627                           
  2628                           ;mcc_generated_files/adcc.c: 74:     ADSTPTL = 0x00;
  2629  0063C6  0E00               	movlw	0
  2630  0063C8  6FDF               	movwf	223,b	;volatile
  2631                           
  2632                           ;mcc_generated_files/adcc.c: 76:     ADSTPTH = 0x00;
  2633  0063CA  0E00               	movlw	0
  2634  0063CC  6FE0               	movwf	224,b	;volatile
  2635                           
  2636                           ;mcc_generated_files/adcc.c: 78:     ADACCU = 0x00;
  2637  0063CE  0E00               	movlw	0
  2638  0063D0  6FE5               	movwf	229,b	;volatile
  2639                           
  2640                           ;mcc_generated_files/adcc.c: 80:     ADRPT = 0x00;
  2641  0063D2  0E00               	movlw	0
  2642  0063D4  6FE7               	movwf	231,b	;volatile
  2643                           
  2644                           ;mcc_generated_files/adcc.c: 82:     ADPCH = 0x00;
  2645  0063D6  0E00               	movlw	0
  2646  0063D8  6FEC               	movwf	236,b	;volatile
  2647                           
  2648                           ;mcc_generated_files/adcc.c: 84:     ADACQL = 0x00;
  2649  0063DA  0E00               	movlw	0
  2650  0063DC  6FEE               	movwf	238,b	;volatile
  2651                           
  2652                           ;mcc_generated_files/adcc.c: 86:     ADACQH = 0x00;
  2653  0063DE  0E00               	movlw	0
  2654  0063E0  6FEF               	movwf	239,b	;volatile
  2655                           
  2656                           ;mcc_generated_files/adcc.c: 88:     ADCAP = 0x00;
  2657  0063E2  0E00               	movlw	0
  2658  0063E4  6FF0               	movwf	240,b	;volatile
  2659                           
  2660                           ;mcc_generated_files/adcc.c: 90:     ADPREL = 0x00;
  2661  0063E6  0E00               	movlw	0
  2662  0063E8  6FF1               	movwf	241,b	;volatile
  2663                           
  2664                           ;mcc_generated_files/adcc.c: 92:     ADPREH = 0x00;
  2665  0063EA  0E00               	movlw	0
  2666  0063EC  6FF2               	movwf	242,b	;volatile
  2667                           
  2668                           ;mcc_generated_files/adcc.c: 94:     ADCON1 = 0x00;
  2669  0063EE  0E00               	movlw	0
  2670  0063F0  6FF4               	movwf	244,b	;volatile
  2671                           
  2672                           ;mcc_generated_files/adcc.c: 96:     ADCON2 = 0x10;
  2673  0063F2  0E10               	movlw	16
  2674  0063F4  6FF5               	movwf	245,b	;volatile
  2675                           
  2676                           ;mcc_generated_files/adcc.c: 98:     ADCON3 = 0x00;
  2677  0063F6  0E00               	movlw	0
  2678  0063F8  6FF6               	movwf	246,b	;volatile
  2679                           
  2680                           ;mcc_generated_files/adcc.c: 100:     ADSTAT = 0x00;
  2681  0063FA  0E00               	movlw	0
  2682  0063FC  6FF7               	movwf	247,b	;volatile
  2683                           
  2684                           ;mcc_generated_files/adcc.c: 102:     ADREF = 0x00;
  2685  0063FE  0E00               	movlw	0
  2686  006400  6FF8               	movwf	248,b	;volatile
  2687                           
  2688                           ;mcc_generated_files/adcc.c: 104:     ADACT = 0x00;
  2689  006402  0E00               	movlw	0
  2690  006404  6FF9               	movwf	249,b	;volatile
  2691                           
  2692                           ;mcc_generated_files/adcc.c: 106:     ADCLK = 0x03;
  2693  006406  0E03               	movlw	3
  2694  006408  6FFA               	movwf	250,b	;volatile
  2695                           
  2696                           ;mcc_generated_files/adcc.c: 108:     ADCON0 = 0x84;
  2697  00640A  0E84               	movlw	132
  2698  00640C  6FF3               	movwf	243,b	;volatile
  2699  00640E                     
  2700                           ; BSR set to: 3
  2701  00640E  0012               	return		;funcret
  2702  006410                     __end_of_ADCC_Initialize:
  2703                           	callstack 0
  2704                           
  2705 ;; *************** function _INTERRUPT_InterruptManager *****************
  2706 ;; Defined at:
  2707 ;;		line 58 in file "mcc_generated_files/interrupt_manager.c"
  2708 ;; Parameters:    Size  Location     Type
  2709 ;;		None
  2710 ;; Auto vars:     Size  Location     Type
  2711 ;;		None
  2712 ;; Return value:  Size  Location     Type
  2713 ;;                  1    wreg      void 
  2714 ;; Registers used:
  2715 ;;		wreg, fsr0l, fsr0h, fsr1l, fsr1h, fsr2l, fsr2h, status,2, status,0, pclath, tosl, tblptrl, tblptrh, tblptru, prodl, 
      +prodh, cstack
  2716 ;; Tracked objects:
  2717 ;;		On entry : 0/0
  2718 ;;		On exit  : 0/0
  2719 ;;		Unchanged: 0/0
  2720 ;; Data sizes:     COMRAM   BANK5   BANK6   BANK7   BANK8   BANK9  BANK10  BANK11  BANK12  BANK13  BANK14  BANK15  BANK1
      +6  BANK17  BANK18  BANK19  BANK20  BANK21  BANK22  BANK23  BANK24  BANK25  BANK26  BANK27  BANK28  BANK29  BANK30  BANK3
      +1  BANK32  BANK33  BANK34  BANK35  BANK36  BANK37
  2721 ;;      Params:         0       0       0       0       0       0       0       0       0       0       0       0       
      +0       0       0       0       0       0       0       0       0       0       0       0       0       0       0       
      +0       0       0       0       0       0       0
  2722 ;;      Locals:         0       0       0       0       0       0       0       0       0       0       0       0       
      +0       0       0       0       0       0       0       0       0       0       0       0       0       0       0       
      +0       0       0       0       0       0       0
  2723 ;;      Temps:          0       4       0       0       0       0       0       0       0       0       0       0       
      +0       0       0       0       0       0       0       0       0       0       0       0       0       0       0       
      +0       0       0       0       0       0       0
  2724 ;;      Totals:         0       4       0       0       0       0       0       0       0       0       0       0       
      +0       0       0       0       0       0       0       0       0       0       0       0       0       0       0       
      +0       0       0       0       0       0       0
  2725 ;;Total ram usage:        4 bytes
  2726 ;; Hardware stack levels used: 1
  2727 ;; Hardware stack levels required when called: 11
  2728 ;; This function calls:
  2729 ;;		_TMR0_ISR
  2730 ;; This function is called by:
  2731 ;;		Interrupt level 2
  2732 ;; This function uses a non-reentrant model
  2733 ;;
  2734                           
  2735                           	psect	text17
  2736  006410                     __ptext17:
  2737                           	callstack 0
  2738  006410                     _INTERRUPT_InterruptManager:
  2739                           	callstack 113
  2740                           
  2741                           ; BSR set to: 3
  2742                           ;incstack = 0
  2743  006410  0061 F3D8  F5C8    	movff	tblptrl,??_INTERRUPT_InterruptManager
  2744  006416  0061 F3DC  F5C9    	movff	tblptrh,??_INTERRUPT_InterruptManager+1
  2745  00641C  0061 F3E0  F5CA    	movff	tblptru,??_INTERRUPT_InterruptManager+2
  2746  006422  0061 F3D4  F5CB    	movff	tablat,??_INTERRUPT_InterruptManager+3
  2747  006428                     
  2748                           ;mcc_generated_files/interrupt_manager.c: 61:     if(PIE3bits.TMR0IE == 1 && PIR3bits.TM
      +                          R0IF == 1)
  2749  006428  AEA1               	btfss	161,7,c	;volatile
  2750  00642A  EF19  F032         	goto	i2u647_41
  2751  00642E  EF1B  F032         	goto	i2u647_40
  2752  006432                     i2u647_41:
  2753  006432  EF24  F032         	goto	i2l557
  2754  006436                     i2u647_40:
  2755  006436  AEB1               	btfss	177,7,c	;volatile
  2756  006438  EF20  F032         	goto	i2u648_41
  2757  00643C  EF22  F032         	goto	i2u648_40
  2758  006440                     i2u648_41:
  2759  006440  EF24  F032         	goto	i2l557
  2760  006444                     i2u648_40:
  2761  006444                     
  2762                           ;mcc_generated_files/interrupt_manager.c: 62:     {;mcc_generated_files/interrupt_manage
      +                          r.c: 63:         TMR0_ISR();
  2763  006444  ECEE  F032         	call	_TMR0_ISR	;wreg free
  2764  006448                     i2l557:
  2765  006448  0061  F72C  F4F5   	movff	??_INTERRUPT_InterruptManager+3,tablat
  2766  00644E  0061  F728  F4F8   	movff	??_INTERRUPT_InterruptManager+2,tblptru
  2767  006454  0061  F724  F4F7   	movff	??_INTERRUPT_InterruptManager+1,tblptrh
  2768  00645A  0061  F720  F4F6   	movff	??_INTERRUPT_InterruptManager,tblptrl
  2769  006460  0011               	retfie		f
  2770  006462                     __end_of_INTERRUPT_InterruptManager:
  2771                           	callstack 0
  2772                           
  2773 ;; *************** function _TMR0_ISR *****************
  2774 ;; Defined at:
  2775 ;;		line 134 in file "mcc_generated_files/tmr0.c"
  2776 ;; Parameters:    Size  Location     Type
  2777 ;;		None
  2778 ;; Auto vars:     Size  Location     Type
  2779 ;;		None
  2780 ;; Return value:  Size  Location     Type
  2781 ;;                  1    wreg      void 
  2782 ;; Registers used:
  2783 ;;		wreg, fsr0l, fsr0h, fsr1l, fsr1h, fsr2l, fsr2h, status,2, status,0, pclath, tosl, tblptrl, tblptrh, tblptru, prodl, 
      +prodh, cstack
  2784 ;; Tracked objects:
  2785 ;;		On entry : 0/0
  2786 ;;		On exit  : 0/0
  2787 ;;		Unchanged: 0/0
  2788 ;; Data sizes:     COMRAM   BANK5   BANK6   BANK7   BANK8   BANK9  BANK10  BANK11  BANK12  BANK13  BANK14  BANK15  BANK1
      +6  BANK17  BANK18  BANK19  BANK20  BANK21  BANK22  BANK23  BANK24  BANK25  BANK26  BANK27  BANK28  BANK29  BANK30  BANK3
      +1  BANK32  BANK33  BANK34  BANK35  BANK36  BANK37
  2789 ;;      Params:         0       0       0       0       0       0       0       0       0       0       0       0       
      +0       0       0       0       0       0       0       0       0       0       0       0       0       0       0       
      +0       0       0       0       0       0       0
  2790 ;;      Locals:         0       0       0       0       0       0       0       0       0       0       0       0       
      +0       0       0       0       0       0       0       0       0       0       0       0       0       0       0       
      +0       0       0       0       0       0       0
  2791 ;;      Temps:          0       0       0       0       0       0       0       0       0       0       0       0       
      +0       0       0       0       0       0       0       0       0       0       0       0       0       0       0       
      +0       0       0       0       0       0       0
  2792 ;;      Totals:         0       0       0       0       0       0       0       0       0       0       0       0       
      +0       0       0       0       0       0       0       0       0       0       0       0       0       0       0       
      +0       0       0       0       0       0       0
  2793 ;;Total ram usage:        0 bytes
  2794 ;; Hardware stack levels used: 1
  2795 ;; Hardware stack levels required when called: 10
  2796 ;; This function calls:
  2797 ;;		Absolute function
  2798 ;;		_TMR0_DefaultInterruptHandler
  2799 ;;		_sensor_interrupt
  2800 ;; This function is called by:
  2801 ;;		_INTERRUPT_InterruptManager
  2802 ;; This function uses a non-reentrant model
  2803 ;;
  2804                           
  2805                           	psect	text18
  2806  0065DC                     __ptext18:
  2807                           	callstack 0
  2808  0065DC                     _TMR0_ISR:
  2809                           	callstack 113
  2810  0065DC                     
  2811                           ;mcc_generated_files/tmr0.c: 137:     PIR3bits.TMR0IF = 0;
  2812  0065DC  9EB1               	bcf	177,7,c	;volatile
  2813  0065DE                     
  2814                           ;mcc_generated_files/tmr0.c: 139:     TMR0H = timer0ReloadVal16bit >> 8;
  2815  0065DE  0105               	movlb	5	; () banked
  2816  0065E0  51E7               	movf	(_timer0ReloadVal16bit+1)& (0+255),w,b	;volatile
  2817  0065E2  0103               	movlb	3	; () banked
  2818  0065E4  6F19               	movwf	25,b	;volatile
  2819  0065E6                     
  2820                           ; BSR set to: 3
  2821                           ;mcc_generated_files/tmr0.c: 140:     TMR0L = (uint8_t) timer0ReloadVal16bit;
  2822  0065E6  0061  F798  F318   	movff	_timer0ReloadVal16bit,792	;volatile
  2823  0065EC                     
  2824                           ; BSR set to: 3
  2825                           ;mcc_generated_files/tmr0.c: 142:     if(TMR0_InterruptHandler)
  2826  0065EC  0105               	movlb	5	; () banked
  2827  0065EE  51E3               	movf	_TMR0_InterruptHandler& (0+255),w,b
  2828  0065F0  11E4               	iorwf	(_TMR0_InterruptHandler+1)& (0+255),w,b
  2829  0065F2  11E5               	iorwf	(_TMR0_InterruptHandler+2)& (0+255),w,b
  2830  0065F4  B4D8               	btfsc	status,2,c
  2831  0065F6  EFFF  F032         	goto	i2u638_41
  2832  0065FA  EF01  F033         	goto	i2u638_40
  2833  0065FE                     i2u638_41:
  2834  0065FE  EF0E  F033         	goto	i2l601
  2835  006602                     i2u638_40:
  2836  006602                     
  2837                           ; BSR set to: 5
  2838                           ;mcc_generated_files/tmr0.c: 143:     {;mcc_generated_files/tmr0.c: 144:         TMR0_In
      +                          terruptHandler();
  2839  006602  D802               	call	i2u639_48
  2840  006604  EF0E  F033         	goto	i2u639_49
  2841  006608                     i2u639_48:
  2842  006608  0005               	push	
  2843  00660A  6EFA               	movwf	pclath,c
  2844  00660C  51E3               	movf	_TMR0_InterruptHandler& (0+255),w,b
  2845  00660E  6EFD               	movwf	tosl,c
  2846  006610  51E4               	movf	(_TMR0_InterruptHandler+1)& (0+255),w,b
  2847  006612  6EFE               	movwf	tosh,c
  2848  006614  51E5               	movf	(_TMR0_InterruptHandler+2)& (0+255),w,b
  2849  006616  6EFF               	movwf	tosu,c
  2850  006618  50FA               	movf	pclath,w,c
  2851  00661A  0012               	return		;indir
  2852  00661C                     i2u639_49:
  2853  00661C                     i2l601:
  2854  00661C  0012               	return		;funcret
  2855  00661E                     __end_of_TMR0_ISR:
  2856                           	callstack 0
  2857                           
  2858 ;; *************** function _TMR0_DefaultInterruptHandler *****************
  2859 ;; Defined at:
  2860 ;;		line 155 in file "mcc_generated_files/tmr0.c"
  2861 ;; Parameters:    Size  Location     Type
  2862 ;;		None
  2863 ;; Auto vars:     Size  Location     Type
  2864 ;;		None
  2865 ;; Return value:  Size  Location     Type
  2866 ;;                  1    wreg      void 
  2867 ;; Registers used:
  2868 ;;		None
  2869 ;; Tracked objects:
  2870 ;;		On entry : 0/0
  2871 ;;		On exit  : 0/0
  2872 ;;		Unchanged: 0/0
  2873 ;; Data sizes:     COMRAM   BANK5   BANK6   BANK7   BANK8   BANK9  BANK10  BANK11  BANK12  BANK13  BANK14  BANK15  BANK1
      +6  BANK17  BANK18  BANK19  BANK20  BANK21  BANK22  BANK23  BANK24  BANK25  BANK26  BANK27  BANK28  BANK29  BANK30  BANK3
      +1  BANK32  BANK33  BANK34  BANK35  BANK36  BANK37
  2874 ;;      Params:         0       0       0       0       0       0       0       0       0       0       0       0       
      +0       0       0       0       0       0       0       0       0       0       0       0       0       0       0       
      +0       0       0       0       0       0       0
  2875 ;;      Locals:         0       0       0       0       0       0       0       0       0       0       0       0       
      +0       0       0       0       0       0       0       0       0       0       0       0       0       0       0       
      +0       0       0       0       0       0       0
  2876 ;;      Temps:          0       0       0       0       0       0       0       0       0       0       0       0       
      +0       0       0       0       0       0       0       0       0       0       0       0       0       0       0       
      +0       0       0       0       0       0       0
  2877 ;;      Totals:         0       0       0       0       0       0       0       0       0       0       0       0       
      +0       0       0       0       0       0       0       0       0       0       0       0       0       0       0       
      +0       0       0       0       0       0       0
  2878 ;;Total ram usage:        0 bytes
  2879 ;; Hardware stack levels used: 1
  2880 ;; This function calls:
  2881 ;;		Nothing
  2882 ;; This function is called by:
  2883 ;;		_TMR0_Initialize
  2884 ;;		_TMR0_ISR
  2885 ;; This function uses a non-reentrant model
  2886 ;;
  2887                           
  2888                           	psect	text19
  2889  006984                     __ptext19:
  2890                           	callstack 0
  2891  006984                     _TMR0_DefaultInterruptHandler:
  2892                           	callstack 122
  2893  006984  0012               	return		;funcret
  2894  006986                     __end_of_TMR0_DefaultInterruptHandler:
  2895                           	callstack 0
  2896                           
  2897 ;; *************** function _sensor_interrupt *****************
  2898 ;; Defined at:
  2899 ;;		line 80 in file "main.c"
  2900 ;; Parameters:    Size  Location     Type
  2901 ;;		None
  2902 ;; Auto vars:     Size  Location     Type
  2903 ;;  value_hex       4   98[BANK5 ] unsigned char [4]
  2904 ;;  moist_level     4   94[BANK5 ] unsigned char [4]
  2905 ;;  value           2  102[BANK5 ] unsigned short 
  2906 ;; Return value:  Size  Location     Type
  2907 ;;                  1    wreg      void 
  2908 ;; Registers used:
  2909 ;;		wreg, fsr0l, fsr0h, fsr1l, fsr1h, fsr2l, fsr2h, status,2, status,0, tblptrl, tblptrh, tblptru, prodl, prodh, cstack
  2910 ;; Tracked objects:
  2911 ;;		On entry : 0/0
  2912 ;;		On exit  : 0/0
  2913 ;;		Unchanged: 0/0
  2914 ;; Data sizes:     COMRAM   BANK5   BANK6   BANK7   BANK8   BANK9  BANK10  BANK11  BANK12  BANK13  BANK14  BANK15  BANK1
      +6  BANK17  BANK18  BANK19  BANK20  BANK21  BANK22  BANK23  BANK24  BANK25  BANK26  BANK27  BANK28  BANK29  BANK30  BANK3
      +1  BANK32  BANK33  BANK34  BANK35  BANK36  BANK37
  2915 ;;      Params:         0       0       0       0       0       0       0       0       0       0       0       0       
      +0       0       0       0       0       0       0       0       0       0       0       0       0       0       0       
      +0       0       0       0       0       0       0
  2916 ;;      Locals:         0      10       0       0       0       0       0       0       0       0       0       0       
      +0       0       0       0       0       0       0       0       0       0       0       0       0       0       0       
      +0       0       0       0       0       0       0
  2917 ;;      Temps:          0       0       0       0       0       0       0       0       0       0       0       0       
      +0       0       0       0       0       0       0       0       0       0       0       0       0       0       0       
      +0       0       0       0       0       0       0
  2918 ;;      Totals:         0      10       0       0       0       0       0       0       0       0       0       0       
      +0       0       0       0       0       0       0       0       0       0       0       0       0       0       0       
      +0       0       0       0       0       0       0
  2919 ;;Total ram usage:       10 bytes
  2920 ;; Hardware stack levels used: 1
  2921 ;; Hardware stack levels required when called: 9
  2922 ;; This function calls:
  2923 ;;		_ADCC_GetSingleConversion
  2924 ;;		___fladd
  2925 ;;		___flmul
  2926 ;;		___xxtofl
  2927 ;;		_printf
  2928 ;;		_send_data
  2929 ;;		_sprintf
  2930 ;; This function is called by:
  2931 ;;		_main
  2932 ;;		_TMR0_ISR
  2933 ;; This function uses a non-reentrant model
  2934 ;;
  2935                           
  2936                           	psect	text20
  2937  005914                     __ptext20:
  2938                           	callstack 0
  2939  005914                     _sensor_interrupt:
  2940                           	callstack 113
  2941  005914  96C3               	bcf	195,3,c	;volatile
  2942  005916                     
  2943                           ;main.c: 82:     uint16_t value;;main.c: 83:     value = ADCC_GetSingleConversion(sensor
      +                          );
  2944  005916  0E00               	movlw	0
  2945  005918  ECD5  F033         	call	_ADCC_GetSingleConversion
  2946  00591C  C501  F5C6         	movff	?_ADCC_GetSingleConversion,sensor_interrupt@value
  2947  005920  C502  F5C7         	movff	?_ADCC_GetSingleConversion+1,sensor_interrupt@value+1
  2948  005924                     
  2949                           ;main.c: 87:     double moist_level = -0.133333*value + 180;
  2950  005924  0E72               	movlw	114
  2951  005926  6E13               	movwf	___flmul@a^(0+1280),c
  2952  005928  0E88               	movlw	136
  2953  00592A  6E14               	movwf	(___flmul@a+1)^(0+1280),c
  2954  00592C  0E08               	movlw	8
  2955  00592E  6E15               	movwf	(___flmul@a+2)^(0+1280),c
  2956  005930  0EBE               	movlw	190
  2957  005932  6E16               	movwf	(___flmul@a+3)^(0+1280),c
  2958  005934  C5C6  F501         	movff	sensor_interrupt@value,___xxtofl@val
  2959  005938  C5C7  F502         	movff	sensor_interrupt@value+1,___xxtofl@val+1
  2960  00593C  6A03               	clrf	(___xxtofl@val+2)^(0+1280),c
  2961  00593E  6A04               	clrf	(___xxtofl@val+3)^(0+1280),c
  2962  005940  0E00               	movlw	0
  2963  005942  ECEA  F028         	call	___xxtofl
  2964  005946  C501  F50F         	movff	?___xxtofl,___flmul@b
  2965  00594A  C502  F510         	movff	?___xxtofl+1,___flmul@b+1
  2966  00594E  C503  F511         	movff	?___xxtofl+2,___flmul@b+2
  2967  005952  C504  F512         	movff	?___xxtofl+3,___flmul@b+3
  2968  005956  ECA0  F020         	call	___flmul	;wreg free
  2969  00595A  C50F  F528         	movff	?___flmul,___fladd@b
  2970  00595E  C510  F529         	movff	?___flmul+1,___fladd@b+1
  2971  005962  C511  F52A         	movff	?___flmul+2,___fladd@b+2
  2972  005966  C512  F52B         	movff	?___flmul+3,___fladd@b+3
  2973  00596A  0E00               	movlw	0
  2974  00596C  6E2C               	movwf	___fladd@a^(0+1280),c
  2975  00596E  0E00               	movlw	0
  2976  005970  6E2D               	movwf	(___fladd@a+1)^(0+1280),c
  2977  005972  0E34               	movlw	52
  2978  005974  6E2E               	movwf	(___fladd@a+2)^(0+1280),c
  2979  005976  0E43               	movlw	67
  2980  005978  6E2F               	movwf	(___fladd@a+3)^(0+1280),c
  2981  00597A  EC40  F01E         	call	___fladd	;wreg free
  2982  00597E  C528  F5BE         	movff	?___fladd,sensor_interrupt@moist_level
  2983  005982  C529  F5BF         	movff	?___fladd+1,sensor_interrupt@moist_level+1
  2984  005986  C52A  F5C0         	movff	?___fladd+2,sensor_interrupt@moist_level+2
  2985  00598A  C52B  F5C1         	movff	?___fladd+3,sensor_interrupt@moist_level+3
  2986  00598E                     
  2987                           ;main.c: 88:     char value_hex[4];;main.c: 89:     printf("valor int: %u\n",(unsigned i
      +                          nt)value);
  2988  00598E  0E25               	movlw	low STR_1
  2989  005990  0105               	movlb	5	; () banked
  2990  005992  6FB8               	movwf	printf@fmt& (0+255),b
  2991  005994  0E26               	movlw	high STR_1
  2992  005996  6FB9               	movwf	(printf@fmt+1)& (0+255),b
  2993  005998  C5C6  F5BA         	movff	sensor_interrupt@value,?_printf+2
  2994  00599C  C5C7  F5BB         	movff	sensor_interrupt@value+1,?_printf+3
  2995  0059A0  EC18  F034         	call	_printf	;wreg free
  2996  0059A4                     
  2997                           ;main.c: 90:     sprintf(value_hex,"%04x", value);
  2998  0059A4  0EC2               	movlw	low sensor_interrupt@value_hex
  2999  0059A6  0105               	movlb	5	; () banked
  3000  0059A8  6FB8               	movwf	sprintf@s& (0+255),b
  3001  0059AA  0E05               	movlw	high sensor_interrupt@value_hex
  3002  0059AC  6FB9               	movwf	(sprintf@s+1)& (0+255),b
  3003  0059AE  0E4A               	movlw	low STR_2
  3004  0059B0  6FBA               	movwf	sprintf@fmt& (0+255),b
  3005  0059B2  0E26               	movlw	high STR_2
  3006  0059B4  6FBB               	movwf	(sprintf@fmt+1)& (0+255),b
  3007  0059B6  C5C6  F5BC         	movff	sensor_interrupt@value,?_sprintf+4
  3008  0059BA  C5C7  F5BD         	movff	sensor_interrupt@value+1,?_sprintf+5
  3009  0059BE  EC31  F032         	call	_sprintf	;wreg free
  3010  0059C2                     
  3011                           ;main.c: 91:     printf("valor hex: %s\n", value_hex);
  3012  0059C2  0E16               	movlw	low STR_3
  3013  0059C4  0105               	movlb	5	; () banked
  3014  0059C6  6FB8               	movwf	printf@fmt& (0+255),b
  3015  0059C8  0E26               	movlw	high STR_3
  3016  0059CA  6FB9               	movwf	(printf@fmt+1)& (0+255),b
  3017  0059CC  0EC2               	movlw	low sensor_interrupt@value_hex
  3018  0059CE  6FBA               	movwf	(?_printf+2)& (0+255),b
  3019  0059D0  0E05               	movlw	high sensor_interrupt@value_hex
  3020  0059D2  6FBB               	movwf	(?_printf+3)& (0+255),b
  3021  0059D4  EC18  F034         	call	_printf	;wreg free
  3022  0059D8                     
  3023                           ;main.c: 92:     printf("%% de Humedad: %.2f\n",moist_level);
  3024  0059D8  0E01               	movlw	low STR_4
  3025  0059DA  0105               	movlb	5	; () banked
  3026  0059DC  6FB8               	movwf	printf@fmt& (0+255),b
  3027  0059DE  0E26               	movlw	high STR_4
  3028  0059E0  6FB9               	movwf	(printf@fmt+1)& (0+255),b
  3029  0059E2  C5BE  F5BA         	movff	sensor_interrupt@moist_level,?_printf+2
  3030  0059E6  C5BF  F5BB         	movff	sensor_interrupt@moist_level+1,?_printf+3
  3031  0059EA  C5C0  F5BC         	movff	sensor_interrupt@moist_level+2,?_printf+4
  3032  0059EE  C5C1  F5BD         	movff	sensor_interrupt@moist_level+3,?_printf+5
  3033  0059F2  EC18  F034         	call	_printf	;wreg free
  3034  0059F6                     
  3035                           ;main.c: 93:     send_data(value_hex);
  3036  0059F6  0EC2               	movlw	low sensor_interrupt@value_hex
  3037  0059F8  6E04               	movwf	send_data@val^(0+1280),c
  3038  0059FA  0E05               	movlw	high sensor_interrupt@value_hex
  3039  0059FC  6E05               	movwf	(send_data@val+1)^(0+1280),c
  3040  0059FE  EC1D  F030         	call	_send_data	;wreg free
  3041  005A02  86C3               	bsf	195,3,c	;volatile
  3042  005A04  0012               	return		;funcret
  3043  005A06                     __end_of_sensor_interrupt:
  3044                           	callstack 0
  3045                           
  3046 ;; *************** function _sprintf *****************
  3047 ;; Defined at:
  3048 ;;		line 9 in file "C:\Program Files\Microchip\xc8\v2.32\pic\sources\c99\common\nf_sprintf.c"
  3049 ;; Parameters:    Size  Location     Type
  3050 ;;  s               2   88[BANK5 ] PTR unsigned char 
  3051 ;;		 -> sensor_interrupt@value_hex(4), 
  3052 ;;  fmt             2   90[BANK5 ] PTR const unsigned char 
  3053 ;;		 -> STR_2(5), 
  3054 ;; Auto vars:     Size  Location     Type
  3055 ;;  f               6   89[COMRAM] struct _IO_FILE
  3056 ;;  ap              2   87[COMRAM] PTR void [1]
  3057 ;;		 -> ?_printf(2), ?_sprintf(2), 
  3058 ;;  ret             2    0        int 
  3059 ;; Return value:  Size  Location     Type
  3060 ;;                  2   88[BANK5 ] int 
  3061 ;; Registers used:
  3062 ;;		wreg, fsr0l, fsr0h, fsr1l, fsr1h, fsr2l, fsr2h, status,2, status,0, tblptrl, tblptrh, tblptru, prodl, prodh, cstack
  3063 ;; Tracked objects:
  3064 ;;		On entry : 0/0
  3065 ;;		On exit  : 0/0
  3066 ;;		Unchanged: 0/0
  3067 ;; Data sizes:     COMRAM   BANK5   BANK6   BANK7   BANK8   BANK9  BANK10  BANK11  BANK12  BANK13  BANK14  BANK15  BANK1
      +6  BANK17  BANK18  BANK19  BANK20  BANK21  BANK22  BANK23  BANK24  BANK25  BANK26  BANK27  BANK28  BANK29  BANK30  BANK3
      +1  BANK32  BANK33  BANK34  BANK35  BANK36  BANK37
  3068 ;;      Params:         0       6       0       0       0       0       0       0       0       0       0       0       
      +0       0       0       0       0       0       0       0       0       0       0       0       0       0       0       
      +0       0       0       0       0       0       0
  3069 ;;      Locals:         8       0       0       0       0       0       0       0       0       0       0       0       
      +0       0       0       0       0       0       0       0       0       0       0       0       0       0       0       
      +0       0       0       0       0       0       0
  3070 ;;      Temps:          0       0       0       0       0       0       0       0       0       0       0       0       
      +0       0       0       0       0       0       0       0       0       0       0       0       0       0       0       
      +0       0       0       0       0       0       0
  3071 ;;      Totals:         8       6       0       0       0       0       0       0       0       0       0       0       
      +0       0       0       0       0       0       0       0       0       0       0       0       0       0       0       
      +0       0       0       0       0       0       0
  3072 ;;Total ram usage:       14 bytes
  3073 ;; Hardware stack levels used: 1
  3074 ;; Hardware stack levels required when called: 8
  3075 ;; This function calls:
  3076 ;;		_vfprintf
  3077 ;; This function is called by:
  3078 ;;		_sensor_interrupt
  3079 ;; This function uses a non-reentrant model
  3080 ;;
  3081                           
  3082                           	psect	text21
  3083  006462                     __ptext21:
  3084                           	callstack 0
  3085  006462                     _sprintf:
  3086                           	callstack 113
  3087  006462  0EBC               	movlw	low (?_sprintf+4)
  3088  006464  6E58               	movwf	sprintf@ap^(0+1280),c
  3089  006466  0E05               	movlw	high (?_sprintf+4)
  3090  006468  6E59               	movwf	(sprintf@ap+1)^(0+1280),c
  3091  00646A  C5B8  F55A         	movff	sprintf@s,sprintf@f
  3092  00646E  C5B9  F55B         	movff	sprintf@s+1,sprintf@f+1
  3093  006472  0E00               	movlw	0
  3094  006474  6E5D               	movwf	(sprintf@f+3)^(0+1280),c
  3095  006476  0E00               	movlw	0
  3096  006478  6E5C               	movwf	(sprintf@f+2)^(0+1280),c
  3097  00647A  0E00               	movlw	0
  3098  00647C  6E5F               	movwf	(sprintf@f+5)^(0+1280),c
  3099  00647E  0E00               	movlw	0
  3100  006480  6E5E               	movwf	(sprintf@f+4)^(0+1280),c
  3101  006482  0E5A               	movlw	low sprintf@f
  3102  006484  0105               	movlb	5	; () banked
  3103  006486  6FB2               	movwf	vfprintf@fp& (0+255),b
  3104  006488  0E05               	movlw	high sprintf@f
  3105  00648A  6FB3               	movwf	(vfprintf@fp+1)& (0+255),b
  3106  00648C  C5BA  F5B4         	movff	sprintf@fmt,vfprintf@fmt
  3107  006490  C5BB  F5B5         	movff	sprintf@fmt+1,vfprintf@fmt+1
  3108  006494  0E58               	movlw	low sprintf@ap
  3109  006496  6FB6               	movwf	vfprintf@ap& (0+255),b
  3110  006498  0E05               	movlw	high sprintf@ap
  3111  00649A  6FB7               	movwf	(vfprintf@ap+1)& (0+255),b
  3112  00649C  EC13  F031         	call	_vfprintf	;wreg free
  3113  0064A0  505C               	movf	(sprintf@f+2)^(0+1280),w,c
  3114  0064A2  0105               	movlb	5	; () banked
  3115  0064A4  25B8               	addwf	sprintf@s& (0+255),w,b
  3116  0064A6  6ED9               	movwf	fsr2l,c
  3117  0064A8  505D               	movf	(sprintf@f+3)^(0+1280),w,c
  3118  0064AA  21B9               	addwfc	(sprintf@s+1)& (0+255),w,b
  3119  0064AC  6EDA               	movwf	fsr2h,c
  3120  0064AE  0E00               	movlw	0
  3121  0064B0  6EDF               	movwf	indf2,c
  3122  0064B2                     
  3123                           ; BSR set to: 5
  3124  0064B2  0012               	return		;funcret
  3125  0064B4                     __end_of_sprintf:
  3126                           	callstack 0
  3127                           
  3128 ;; *************** function _send_data *****************
  3129 ;; Defined at:
  3130 ;;		line 106 in file "main.c"
  3131 ;; Parameters:    Size  Location     Type
  3132 ;;  val             2    3[COMRAM] PTR unsigned char 
  3133 ;;		 -> sensor_interrupt@value_hex(4), 
  3134 ;; Auto vars:     Size  Location     Type
  3135 ;;		None
  3136 ;; Return value:  Size  Location     Type
  3137 ;;                  1    wreg      void 
  3138 ;; Registers used:
  3139 ;;		wreg, fsr0l, fsr0h, status,2, status,0, tblptrl, tblptrh, tblptru, cstack
  3140 ;; Tracked objects:
  3141 ;;		On entry : 0/0
  3142 ;;		On exit  : 0/0
  3143 ;;		Unchanged: 0/0
  3144 ;; Data sizes:     COMRAM   BANK5   BANK6   BANK7   BANK8   BANK9  BANK10  BANK11  BANK12  BANK13  BANK14  BANK15  BANK1
      +6  BANK17  BANK18  BANK19  BANK20  BANK21  BANK22  BANK23  BANK24  BANK25  BANK26  BANK27  BANK28  BANK29  BANK30  BANK3
      +1  BANK32  BANK33  BANK34  BANK35  BANK36  BANK37
  3145 ;;      Params:         2       0       0       0       0       0       0       0       0       0       0       0       
      +0       0       0       0       0       0       0       0       0       0       0       0       0       0       0       
      +0       0       0       0       0       0       0
  3146 ;;      Locals:         0       0       0       0       0       0       0       0       0       0       0       0       
      +0       0       0       0       0       0       0       0       0       0       0       0       0       0       0       
      +0       0       0       0       0       0       0
  3147 ;;      Temps:          2       0       0       0       0       0       0       0       0       0       0       0       
      +0       0       0       0       0       0       0       0       0       0       0       0       0       0       0       
      +0       0       0       0       0       0       0
  3148 ;;      Totals:         4       0       0       0       0       0       0       0       0       0       0       0       
      +0       0       0       0       0       0       0       0       0       0       0       0       0       0       0       
      +0       0       0       0       0       0       0
  3149 ;;Total ram usage:        4 bytes
  3150 ;; Hardware stack levels used: 1
  3151 ;; Hardware stack levels required when called: 2
  3152 ;; This function calls:
  3153 ;;		_send_AT
  3154 ;; This function is called by:
  3155 ;;		_sensor_interrupt
  3156 ;; This function uses a non-reentrant model
  3157 ;;
  3158                           
  3159                           	psect	text22
  3160  00603A                     __ptext22:
  3161                           	callstack 0
  3162  00603A                     _send_data:
  3163                           	callstack 119
  3164  00603A                     
  3165                           ;main.c: 107:     send_AT("AT \r\n");
  3166  00603A  0E44               	movlw	low STR_5
  3167  00603C  6E02               	movwf	send_AT@t^(0+1280),c
  3168  00603E  0E26               	movlw	high STR_5
  3169  006040  6E03               	movwf	(send_AT@t+1)^(0+1280),c
  3170  006042  EC5E  F030         	call	_send_AT	;wreg free
  3171  006046                     
  3172                           ;main.c: 108:     _delay((unsigned long)((500)*(4000000/4000.0)));
  3173  006046  0E03               	movlw	3
  3174  006048  6E07               	movwf	(??_send_data+1)^(0+1280),c
  3175  00604A  0E8A               	movlw	138
  3176  00604C  6E06               	movwf	??_send_data^(0+1280),c
  3177  00604E  0E56               	movlw	86
  3178  006050                     i2u649_47:
  3179  006050  2EE8               	decfsz	wreg,f,c
  3180  006052  D7FE               	bra	i2u649_47
  3181  006054  2E06               	decfsz	??_send_data^(0+1280),f,c
  3182  006056  D7FC               	bra	i2u649_47
  3183  006058  2E07               	decfsz	(??_send_data+1)^(0+1280),f,c
  3184  00605A  D7FA               	bra	i2u649_47
  3185  00605C                     
  3186                           ;main.c: 109:     send_AT("AT$RC \r\n");
  3187  00605C  0E34               	movlw	low STR_6
  3188  00605E  6E02               	movwf	send_AT@t^(0+1280),c
  3189  006060  0E26               	movlw	high STR_6
  3190  006062  6E03               	movwf	(send_AT@t+1)^(0+1280),c
  3191  006064  EC5E  F030         	call	_send_AT	;wreg free
  3192                           
  3193                           ;main.c: 110:     _delay((unsigned long)((500)*(4000000/4000.0)));
  3194  006068  0E03               	movlw	3
  3195  00606A  6E07               	movwf	(??_send_data+1)^(0+1280),c
  3196  00606C  0E8A               	movlw	138
  3197  00606E  6E06               	movwf	??_send_data^(0+1280),c
  3198  006070  0E56               	movlw	86
  3199  006072                     i2u650_47:
  3200  006072  2EE8               	decfsz	wreg,f,c
  3201  006074  D7FE               	bra	i2u650_47
  3202  006076  2E06               	decfsz	??_send_data^(0+1280),f,c
  3203  006078  D7FC               	bra	i2u650_47
  3204  00607A  2E07               	decfsz	(??_send_data+1)^(0+1280),f,c
  3205  00607C  D7FA               	bra	i2u650_47
  3206  00607E                     
  3207                           ;main.c: 111:     send_AT("AT$SF=");
  3208  00607E  0E3D               	movlw	low STR_7
  3209  006080  6E02               	movwf	send_AT@t^(0+1280),c
  3210  006082  0E26               	movlw	high STR_7
  3211  006084  6E03               	movwf	(send_AT@t+1)^(0+1280),c
  3212  006086  EC5E  F030         	call	_send_AT	;wreg free
  3213  00608A                     
  3214                           ;main.c: 112:     send_AT(val);
  3215  00608A  C504  F502         	movff	send_data@val,send_AT@t
  3216  00608E  C505  F503         	movff	send_data@val+1,send_AT@t+1
  3217  006092  EC5E  F030         	call	_send_AT	;wreg free
  3218  006096                     
  3219                           ;main.c: 113:     send_AT("\r\n");
  3220  006096  0E3A               	movlw	low (STR_6+6)
  3221  006098  6E02               	movwf	send_AT@t^(0+1280),c
  3222  00609A  0E26               	movlw	high (STR_6+6)
  3223  00609C  6E03               	movwf	(send_AT@t+1)^(0+1280),c
  3224  00609E  EC5E  F030         	call	_send_AT	;wreg free
  3225  0060A2                     
  3226                           ;main.c: 114:     _delay((unsigned long)((5000)*(4000000/4000.0)));
  3227  0060A2  0E1A               	movlw	26
  3228  0060A4  6E07               	movwf	(??_send_data+1)^(0+1280),c
  3229  0060A6  0E5E               	movlw	94
  3230  0060A8  6E06               	movwf	??_send_data^(0+1280),c
  3231  0060AA  0E6E               	movlw	110
  3232  0060AC                     i2u651_47:
  3233  0060AC  2EE8               	decfsz	wreg,f,c
  3234  0060AE  D7FE               	bra	i2u651_47
  3235  0060B0  2E06               	decfsz	??_send_data^(0+1280),f,c
  3236  0060B2  D7FC               	bra	i2u651_47
  3237  0060B4  2E07               	decfsz	(??_send_data+1)^(0+1280),f,c
  3238  0060B6  D7FA               	bra	i2u651_47
  3239  0060B8  D000               	nop2	
  3240  0060BA  0012               	return		;funcret
  3241  0060BC                     __end_of_send_data:
  3242                           	callstack 0
  3243                           
  3244 ;; *************** function _send_AT *****************
  3245 ;; Defined at:
  3246 ;;		line 97 in file "main.c"
  3247 ;; Parameters:    Size  Location     Type
  3248 ;;  t               2    1[COMRAM] PTR unsigned char 
  3249 ;;		 -> STR_8(3), STR_7(7), STR_6(9), STR_5(6), 
  3250 ;;		 -> sensor_interrupt@value_hex(4), 
  3251 ;; Auto vars:     Size  Location     Type
  3252 ;;		None
  3253 ;; Return value:  Size  Location     Type
  3254 ;;                  1    wreg      void 
  3255 ;; Registers used:
  3256 ;;		wreg, fsr0l, fsr0h, status,2, status,0, tblptrl, tblptrh, tblptru, cstack
  3257 ;; Tracked objects:
  3258 ;;		On entry : 0/0
  3259 ;;		On exit  : 0/0
  3260 ;;		Unchanged: 0/0
  3261 ;; Data sizes:     COMRAM   BANK5   BANK6   BANK7   BANK8   BANK9  BANK10  BANK11  BANK12  BANK13  BANK14  BANK15  BANK1
      +6  BANK17  BANK18  BANK19  BANK20  BANK21  BANK22  BANK23  BANK24  BANK25  BANK26  BANK27  BANK28  BANK29  BANK30  BANK3
      +1  BANK32  BANK33  BANK34  BANK35  BANK36  BANK37
  3262 ;;      Params:         2       0       0       0       0       0       0       0       0       0       0       0       
      +0       0       0       0       0       0       0       0       0       0       0       0       0       0       0       
      +0       0       0       0       0       0       0
  3263 ;;      Locals:         0       0       0       0       0       0       0       0       0       0       0       0       
      +0       0       0       0       0       0       0       0       0       0       0       0       0       0       0       
      +0       0       0       0       0       0       0
  3264 ;;      Temps:          0       0       0       0       0       0       0       0       0       0       0       0       
      +0       0       0       0       0       0       0       0       0       0       0       0       0       0       0       
      +0       0       0       0       0       0       0
  3265 ;;      Totals:         2       0       0       0       0       0       0       0       0       0       0       0       
      +0       0       0       0       0       0       0       0       0       0       0       0       0       0       0       
      +0       0       0       0       0       0       0
  3266 ;;Total ram usage:        2 bytes
  3267 ;; Hardware stack levels used: 1
  3268 ;; Hardware stack levels required when called: 1
  3269 ;; This function calls:
  3270 ;;		_UART1_Write
  3271 ;;		_UART1_is_tx_ready
  3272 ;; This function is called by:
  3273 ;;		_send_data
  3274 ;; This function uses a non-reentrant model
  3275 ;;
  3276                           
  3277                           	psect	text23
  3278  0060BC                     __ptext23:
  3279                           	callstack 0
  3280  0060BC                     _send_AT:
  3281                           	callstack 119
  3282  0060BC                     
  3283                           ;main.c: 98:     while(*t) {
  3284  0060BC  EF81  F030         	goto	i2l5353
  3285  0060C0                     i2l5347:
  3286                           
  3287                           ;main.c: 99:         if (UART1_is_tx_ready()) {
  3288  0060C0  ECEE  F033         	call	_UART1_is_tx_ready	;wreg free
  3289  0060C4  0900               	iorlw	0
  3290  0060C6  B4D8               	btfsc	status,2,c
  3291  0060C8  EF68  F030         	goto	i2u615_41
  3292  0060CC  EF6A  F030         	goto	i2u615_40
  3293  0060D0                     i2u615_41:
  3294  0060D0  EF81  F030         	goto	i2l5353
  3295  0060D4                     i2u615_40:
  3296  0060D4                     
  3297                           ;main.c: 100:             UART1_Write(*t);
  3298  0060D4  0061  F408  F4F6   	movff	send_AT@t,tblptrl
  3299  0060DA  0061  F40C  F4F7   	movff	send_AT@t+1,tblptrh
  3300  0060E0  0E00               	movlw	low (__smallconst shr (0+16))
  3301  0060E2  6EF8               	movwf	tblptru,c
  3302  0060E4  0E25               	movlw	(high __ramtop+-1)
  3303  0060E6  64F7               	cpfsgt	tblptrh,c
  3304  0060E8  D003               	bra	i2u616_47
  3305  0060EA  0008               	tblrd		*
  3306  0060EC  50F5               	movf	tablat,w,c
  3307  0060EE  D005               	bra	i2u616_40
  3308  0060F0                     i2u616_47:
  3309  0060F0  C4F6 F4E9          	movff	tblptrl,fsr0l
  3310  0060F4  C4F7 F4EA          	movff	tblptrh,fsr0h
  3311  0060F8  50EF               	movf	indf0,w,c
  3312  0060FA                     i2u616_40:
  3313  0060FA  EC6E  F034         	call	_UART1_Write
  3314  0060FE                     
  3315                           ;main.c: 101:             ++t;
  3316  0060FE  4A02               	infsnz	send_AT@t^(0+1280),f,c
  3317  006100  2A03               	incf	(send_AT@t+1)^(0+1280),f,c
  3318  006102                     i2l5353:
  3319                           
  3320                           ;main.c: 98:     while(*t) {
  3321  006102  0061  F408  F4F6   	movff	send_AT@t,tblptrl
  3322  006108  0061  F40C  F4F7   	movff	send_AT@t+1,tblptrh
  3323  00610E  0E00               	movlw	low (__smallconst shr (0+16))
  3324  006110  6EF8               	movwf	tblptru,c
  3325  006112  0E25               	movlw	(high __ramtop+-1)
  3326  006114  64F7               	cpfsgt	tblptrh,c
  3327  006116  D003               	bra	i2u617_47
  3328  006118  0008               	tblrd		*
  3329  00611A  50F5               	movf	tablat,w,c
  3330  00611C  D005               	bra	i2u617_40
  3331  00611E                     i2u617_47:
  3332  00611E  C4F6 F4E9          	movff	tblptrl,fsr0l
  3333  006122  C4F7 F4EA          	movff	tblptrh,fsr0h
  3334  006126  50EF               	movf	indf0,w,c
  3335  006128                     i2u617_40:
  3336  006128  0900               	iorlw	0
  3337  00612A  A4D8               	btfss	status,2,c
  3338  00612C  EF9A  F030         	goto	i2u618_41
  3339  006130  EF9C  F030         	goto	i2u618_40
  3340  006134                     i2u618_41:
  3341  006134  EF60  F030         	goto	i2l5347
  3342  006138                     i2u618_40:
  3343  006138  0012               	return		;funcret
  3344  00613A                     __end_of_send_AT:
  3345                           	callstack 0
  3346                           
  3347 ;; *************** function _UART1_is_tx_ready *****************
  3348 ;; Defined at:
  3349 ;;		line 131 in file "mcc_generated_files/uart1.c"
  3350 ;; Parameters:    Size  Location     Type
  3351 ;;		None
  3352 ;; Auto vars:     Size  Location     Type
  3353 ;;		None
  3354 ;; Return value:  Size  Location     Type
  3355 ;;                  1    wreg      _Bool 
  3356 ;; Registers used:
  3357 ;;		wreg, status,2
  3358 ;; Tracked objects:
  3359 ;;		On entry : 0/0
  3360 ;;		On exit  : 0/0
  3361 ;;		Unchanged: 0/0
  3362 ;; Data sizes:     COMRAM   BANK5   BANK6   BANK7   BANK8   BANK9  BANK10  BANK11  BANK12  BANK13  BANK14  BANK15  BANK1
      +6  BANK17  BANK18  BANK19  BANK20  BANK21  BANK22  BANK23  BANK24  BANK25  BANK26  BANK27  BANK28  BANK29  BANK30  BANK3
      +1  BANK32  BANK33  BANK34  BANK35  BANK36  BANK37
  3363 ;;      Params:         0       0       0       0       0       0       0       0       0       0       0       0       
      +0       0       0       0       0       0       0       0       0       0       0       0       0       0       0       
      +0       0       0       0       0       0       0
  3364 ;;      Locals:         1       0       0       0       0       0       0       0       0       0       0       0       
      +0       0       0       0       0       0       0       0       0       0       0       0       0       0       0       
      +0       0       0       0       0       0       0
  3365 ;;      Temps:          0       0       0       0       0       0       0       0       0       0       0       0       
      +0       0       0       0       0       0       0       0       0       0       0       0       0       0       0       
      +0       0       0       0       0       0       0
  3366 ;;      Totals:         1       0       0       0       0       0       0       0       0       0       0       0       
      +0       0       0       0       0       0       0       0       0       0       0       0       0       0       0       
      +0       0       0       0       0       0       0
  3367 ;;Total ram usage:        1 bytes
  3368 ;; Hardware stack levels used: 1
  3369 ;; This function calls:
  3370 ;;		Nothing
  3371 ;; This function is called by:
  3372 ;;		_send_AT
  3373 ;; This function uses a non-reentrant model
  3374 ;;
  3375                           
  3376                           	psect	text24
  3377  0067DC                     __ptext24:
  3378                           	callstack 0
  3379  0067DC                     _UART1_is_tx_ready:
  3380                           	callstack 119
  3381  0067DC                     
  3382                           ;mcc_generated_files/uart1.c: 133:     return (_Bool)(PIR4bits.U1TXIF && U1CON0bits.TXEN
      +                          );
  3383  0067DC  0E00               	movlw	0
  3384  0067DE  6E01               	movwf	_UART1_is_tx_ready$920^(0+1280),c
  3385  0067E0  A2B2               	btfss	178,1,c	;volatile
  3386  0067E2  EFF5  F033         	goto	i2u587_41
  3387  0067E6  EFF7  F033         	goto	i2u587_40
  3388  0067EA                     i2u587_41:
  3389  0067EA  EF01  F034         	goto	i2l499
  3390  0067EE                     i2u587_40:
  3391  0067EE  0102               	movlb	2	; () banked
  3392  0067F0  ABAB               	btfss	171,5,b	;volatile
  3393  0067F2  EFFD  F033         	goto	i2u588_41
  3394  0067F6  EFFF  F033         	goto	i2u588_40
  3395  0067FA                     i2u588_41:
  3396  0067FA  EF01  F034         	goto	i2l499
  3397  0067FE                     i2u588_40:
  3398  0067FE                     
  3399                           ; BSR set to: 2
  3400  0067FE  0E01               	movlw	1
  3401  006800  6E01               	movwf	_UART1_is_tx_ready$920^(0+1280),c
  3402  006802                     i2l499:
  3403  006802  5001               	movf	_UART1_is_tx_ready$920^(0+1280),w,c
  3404  006804  0012               	return		;funcret
  3405  006806                     __end_of_UART1_is_tx_ready:
  3406                           	callstack 0
  3407                           
  3408 ;; *************** function _UART1_Write *****************
  3409 ;; Defined at:
  3410 ;;		line 170 in file "mcc_generated_files/uart1.c"
  3411 ;; Parameters:    Size  Location     Type
  3412 ;;  txData          1    wreg     unsigned char 
  3413 ;; Auto vars:     Size  Location     Type
  3414 ;;  txData          1    0[COMRAM] unsigned char 
  3415 ;; Return value:  Size  Location     Type
  3416 ;;                  1    wreg      void 
  3417 ;; Registers used:
  3418 ;;		wreg
  3419 ;; Tracked objects:
  3420 ;;		On entry : 0/0
  3421 ;;		On exit  : 0/0
  3422 ;;		Unchanged: 0/0
  3423 ;; Data sizes:     COMRAM   BANK5   BANK6   BANK7   BANK8   BANK9  BANK10  BANK11  BANK12  BANK13  BANK14  BANK15  BANK1
      +6  BANK17  BANK18  BANK19  BANK20  BANK21  BANK22  BANK23  BANK24  BANK25  BANK26  BANK27  BANK28  BANK29  BANK30  BANK3
      +1  BANK32  BANK33  BANK34  BANK35  BANK36  BANK37
  3424 ;;      Params:         0       0       0       0       0       0       0       0       0       0       0       0       
      +0       0       0       0       0       0       0       0       0       0       0       0       0       0       0       
      +0       0       0       0       0       0       0
  3425 ;;      Locals:         1       0       0       0       0       0       0       0       0       0       0       0       
      +0       0       0       0       0       0       0       0       0       0       0       0       0       0       0       
      +0       0       0       0       0       0       0
  3426 ;;      Temps:          0       0       0       0       0       0       0       0       0       0       0       0       
      +0       0       0       0       0       0       0       0       0       0       0       0       0       0       0       
      +0       0       0       0       0       0       0
  3427 ;;      Totals:         1       0       0       0       0       0       0       0       0       0       0       0       
      +0       0       0       0       0       0       0       0       0       0       0       0       0       0       0       
      +0       0       0       0       0       0       0
  3428 ;;Total ram usage:        1 bytes
  3429 ;; Hardware stack levels used: 1
  3430 ;; This function calls:
  3431 ;;		Nothing
  3432 ;; This function is called by:
  3433 ;;		_send_AT
  3434 ;; This function uses a non-reentrant model
  3435 ;;
  3436                           
  3437                           	psect	text25
  3438  0068DC                     __ptext25:
  3439                           	callstack 0
  3440  0068DC                     _UART1_Write:
  3441                           	callstack 119
  3442                           
  3443                           ;incstack = 0
  3444                           ;UART1_Write@txData stored from wreg
  3445  0068DC  6E01               	movwf	UART1_Write@txData^(0+1280),c
  3446  0068DE                     i2l518:
  3447                           
  3448                           ;mcc_generated_files/uart1.c: 172:     while(0 == PIR4bits.U1TXIF)
  3449  0068DE  A2B2               	btfss	178,1,c	;volatile
  3450  0068E0  EF74  F034         	goto	i2u589_41
  3451  0068E4  EF76  F034         	goto	i2u589_40
  3452  0068E8                     i2u589_41:
  3453  0068E8  EF6F  F034         	goto	i2l518
  3454  0068EC                     i2u589_40:
  3455  0068EC                     
  3456                           ;mcc_generated_files/uart1.c: 176:     U1TXB = txData;
  3457  0068EC  0061  F404  F2A3   	movff	UART1_Write@txData,675	;volatile
  3458  0068F2  0012               	return		;funcret
  3459  0068F4                     __end_of_UART1_Write:
  3460                           	callstack 0
  3461                           
  3462 ;; *************** function _printf *****************
  3463 ;; Defined at:
  3464 ;;		line 5 in file "C:\Program Files\Microchip\xc8\v2.32\pic\sources\c99\common\printf.c"
  3465 ;; Parameters:    Size  Location     Type
  3466 ;;  fmt             2   88[BANK5 ] PTR const unsigned char 
  3467 ;;		 -> STR_4(21), STR_3(15), STR_1(15), 
  3468 ;; Auto vars:     Size  Location     Type
  3469 ;;  ap              2   87[COMRAM] PTR void [1]
  3470 ;;		 -> ?_printf(2), ?_sprintf(2), 
  3471 ;;  ret             2    0        int 
  3472 ;; Return value:  Size  Location     Type
  3473 ;;                  2   88[BANK5 ] int 
  3474 ;; Registers used:
  3475 ;;		wreg, fsr0l, fsr0h, fsr1l, fsr1h, fsr2l, fsr2h, status,2, status,0, tblptrl, tblptrh, tblptru, prodl, prodh, cstack
  3476 ;; Tracked objects:
  3477 ;;		On entry : 0/0
  3478 ;;		On exit  : 0/0
  3479 ;;		Unchanged: 0/0
  3480 ;; Data sizes:     COMRAM   BANK5   BANK6   BANK7   BANK8   BANK9  BANK10  BANK11  BANK12  BANK13  BANK14  BANK15  BANK1
      +6  BANK17  BANK18  BANK19  BANK20  BANK21  BANK22  BANK23  BANK24  BANK25  BANK26  BANK27  BANK28  BANK29  BANK30  BANK3
      +1  BANK32  BANK33  BANK34  BANK35  BANK36  BANK37
  3481 ;;      Params:         0       6       0       0       0       0       0       0       0       0       0       0       
      +0       0       0       0       0       0       0       0       0       0       0       0       0       0       0       
      +0       0       0       0       0       0       0
  3482 ;;      Locals:         2       0       0       0       0       0       0       0       0       0       0       0       
      +0       0       0       0       0       0       0       0       0       0       0       0       0       0       0       
      +0       0       0       0       0       0       0
  3483 ;;      Temps:          0       0       0       0       0       0       0       0       0       0       0       0       
      +0       0       0       0       0       0       0       0       0       0       0       0       0       0       0       
      +0       0       0       0       0       0       0
  3484 ;;      Totals:         2       6       0       0       0       0       0       0       0       0       0       0       
      +0       0       0       0       0       0       0       0       0       0       0       0       0       0       0       
      +0       0       0       0       0       0       0
  3485 ;;Total ram usage:        8 bytes
  3486 ;; Hardware stack levels used: 1
  3487 ;; Hardware stack levels required when called: 8
  3488 ;; This function calls:
  3489 ;;		_vfprintf
  3490 ;; This function is called by:
  3491 ;;		_sensor_interrupt
  3492 ;; This function uses a non-reentrant model
  3493 ;;
  3494                           
  3495                           	psect	text26
  3496  006830                     __ptext26:
  3497                           	callstack 0
  3498  006830                     _printf:
  3499                           	callstack 113
  3500  006830  0EBA               	movlw	low (?_printf+2)
  3501  006832  6E58               	movwf	printf@ap^(0+1280),c
  3502  006834  0E05               	movlw	high (?_printf+2)
  3503  006836  6E59               	movwf	(printf@ap+1)^(0+1280),c
  3504  006838  0E00               	movlw	0
  3505  00683A  0105               	movlb	5	; () banked
  3506  00683C  6FB2               	movwf	vfprintf@fp& (0+255),b
  3507  00683E  0E00               	movlw	0
  3508  006840  6FB3               	movwf	(vfprintf@fp+1)& (0+255),b
  3509  006842  C5B8  F5B4         	movff	printf@fmt,vfprintf@fmt
  3510  006846  C5B9  F5B5         	movff	printf@fmt+1,vfprintf@fmt+1
  3511  00684A  0E58               	movlw	low printf@ap
  3512  00684C  6FB6               	movwf	vfprintf@ap& (0+255),b
  3513  00684E  0E05               	movlw	high printf@ap
  3514  006850  6FB7               	movwf	(vfprintf@ap+1)& (0+255),b
  3515  006852  EC13  F031         	call	_vfprintf	;wreg free
  3516  006856  0012               	return		;funcret
  3517  006858                     __end_of_printf:
  3518                           	callstack 0
  3519                           
  3520 ;; *************** function _vfprintf *****************
  3521 ;; Defined at:
  3522 ;;		line 1390 in file "C:\Program Files\Microchip\xc8\v2.32\pic\sources\c99\common\doprnt.c"
  3523 ;; Parameters:    Size  Location     Type
  3524 ;;  fp              2   82[BANK5 ] PTR struct _IO_FILE
  3525 ;;		 -> NULL(0), sprintf@f(6), 
  3526 ;;  fmt             2   84[BANK5 ] PTR const unsigned char 
  3527 ;;		 -> STR_4(21), STR_3(15), STR_2(5), STR_1(15), 
  3528 ;;  ap              2   86[BANK5 ] PTR PTR void 
  3529 ;;		 -> printf@ap(2), sprintf@ap(2), 
  3530 ;; Auto vars:     Size  Location     Type
  3531 ;;  cfmt            2   85[COMRAM] PTR unsigned char 
  3532 ;;		 -> STR_4(21), STR_3(15), STR_2(5), STR_1(15), 
  3533 ;; Return value:  Size  Location     Type
  3534 ;;                  2   82[BANK5 ] int 
  3535 ;; Registers used:
  3536 ;;		wreg, fsr0l, fsr0h, fsr1l, fsr1h, fsr2l, fsr2h, status,2, status,0, tblptrl, tblptrh, tblptru, prodl, prodh, cstack
  3537 ;; Tracked objects:
  3538 ;;		On entry : 0/0
  3539 ;;		On exit  : 0/0
  3540 ;;		Unchanged: 0/0
  3541 ;; Data sizes:     COMRAM   BANK5   BANK6   BANK7   BANK8   BANK9  BANK10  BANK11  BANK12  BANK13  BANK14  BANK15  BANK1
      +6  BANK17  BANK18  BANK19  BANK20  BANK21  BANK22  BANK23  BANK24  BANK25  BANK26  BANK27  BANK28  BANK29  BANK30  BANK3
      +1  BANK32  BANK33  BANK34  BANK35  BANK36  BANK37
  3542 ;;      Params:         0       6       0       0       0       0       0       0       0       0       0       0       
      +0       0       0       0       0       0       0       0       0       0       0       0       0       0       0       
      +0       0       0       0       0       0       0
  3543 ;;      Locals:         2       0       0       0       0       0       0       0       0       0       0       0       
      +0       0       0       0       0       0       0       0       0       0       0       0       0       0       0       
      +0       0       0       0       0       0       0
  3544 ;;      Temps:          0       0       0       0       0       0       0       0       0       0       0       0       
      +0       0       0       0       0       0       0       0       0       0       0       0       0       0       0       
      +0       0       0       0       0       0       0
  3545 ;;      Totals:         2       6       0       0       0       0       0       0       0       0       0       0       
      +0       0       0       0       0       0       0       0       0       0       0       0       0       0       0       
      +0       0       0       0       0       0       0
  3546 ;;Total ram usage:        8 bytes
  3547 ;; Hardware stack levels used: 1
  3548 ;; Hardware stack levels required when called: 7
  3549 ;; This function calls:
  3550 ;;		_vfpfcnvrt
  3551 ;; This function is called by:
  3552 ;;		_sprintf
  3553 ;;		_printf
  3554 ;; This function uses a non-reentrant model
  3555 ;;
  3556                           
  3557                           	psect	text27
  3558  006226                     __ptext27:
  3559                           	callstack 0
  3560  006226                     _vfprintf:
  3561                           	callstack 113
  3562  006226                     
  3563                           ;C:\Program Files\Microchip\xc8\v2.32\pic\sources\c99\common\doprnt.c: 1390: int vfprint
      +                          f(FILE *fp, const char *fmt, va_list ap);C:\Program Files\Microchip\xc8\v2.32\pic\source
      +                          s\c99\common\doprnt.c: 1391: {;C:\Program Files\Microchip\xc8\v2.32\pic\sources\c99\comm
      +                          on\doprnt.c: 1393:     char *cfmt;;C:\Program Files\Microchip\xc8\v2.32\pic\sources\c99\
      +                          common\doprnt.c: 1395:     cfmt = (char *)fmt;
  3564  006226  C5B4  F556         	movff	vfprintf@fmt,vfprintf@cfmt
  3565  00622A  C5B5  F557         	movff	vfprintf@fmt+1,vfprintf@cfmt+1
  3566  00622E                     
  3567                           ;C:\Program Files\Microchip\xc8\v2.32\pic\sources\c99\common\doprnt.c: 1396:     nout = 
      +                          0;
  3568  00622E  0E00               	movlw	0
  3569  006230  0105               	movlb	5	; () banked
  3570  006232  6FD5               	movwf	(_nout+1)& (0+255),b
  3571  006234  0E00               	movlw	0
  3572  006236  6FD4               	movwf	_nout& (0+255),b
  3573                           
  3574                           ;C:\Program Files\Microchip\xc8\v2.32\pic\sources\c99\common\doprnt.c: 1397:     while (
      +                          *cfmt) {
  3575  006238  EF31  F031         	goto	i2l5361
  3576  00623C                     i2l5359:
  3577                           
  3578                           ; BSR set to: 5
  3579                           ;C:\Program Files\Microchip\xc8\v2.32\pic\sources\c99\common\doprnt.c: 1398:         nou
      +                          t += vfpfcnvrt(fp, &cfmt, ap);
  3580  00623C  C5B2  F54C         	movff	vfprintf@fp,vfpfcnvrt@fp
  3581  006240  C5B3  F54D         	movff	vfprintf@fp+1,vfpfcnvrt@fp+1
  3582  006244  0E56               	movlw	low vfprintf@cfmt
  3583  006246  6E4E               	movwf	vfpfcnvrt@fmt^(0+1280),c
  3584  006248  0E05               	movlw	high vfprintf@cfmt
  3585  00624A  6E4F               	movwf	(vfpfcnvrt@fmt+1)^(0+1280),c
  3586  00624C  C5B6  F550         	movff	vfprintf@ap,vfpfcnvrt@ap
  3587  006250  C5B7  F551         	movff	vfprintf@ap+1,vfpfcnvrt@ap+1
  3588  006254  EC60  F019         	call	_vfpfcnvrt	;wreg free
  3589  006258  504C               	movf	?_vfpfcnvrt^(0+1280),w,c
  3590  00625A  0105               	movlb	5	; () banked
  3591  00625C  27D4               	addwf	_nout& (0+255),f,b
  3592  00625E  504D               	movf	(?_vfpfcnvrt+1)^(0+1280),w,c
  3593  006260  23D5               	addwfc	(_nout+1)& (0+255),f,b
  3594  006262                     i2l5361:
  3595                           
  3596                           ; BSR set to: 5
  3597                           ;C:\Program Files\Microchip\xc8\v2.32\pic\sources\c99\common\doprnt.c: 1397:     while (
      +                          *cfmt) {
  3598  006262  0061  F558  F4F6   	movff	vfprintf@cfmt,tblptrl
  3599  006268  0061  F55C  F4F7   	movff	vfprintf@cfmt+1,tblptrh
  3600  00626E                     	if	0	;tblptru may be non-zero
  3601  00626E                     	endif
  3602  00626E                     	if	1	;Program memory is > 0xFFFF, there are 3 active tblptr bytes
  3603  00626E  0E00               	movlw	low (__mediumconst shr (0+16))
  3604  006270  6EF8               	movwf	tblptru,c
  3605  006272                     	endif
  3606  006272  0008               	tblrd		*
  3607  006274  50F5               	movf	tablat,w,c
  3608  006276  0900               	iorlw	0
  3609  006278  A4D8               	btfss	status,2,c
  3610  00627A  EF41  F031         	goto	i2u619_41
  3611  00627E  EF43  F031         	goto	i2u619_40
  3612  006282                     i2u619_41:
  3613  006282  EF1E  F031         	goto	i2l5359
  3614  006286                     i2u619_40:
  3615  006286                     
  3616                           ; BSR set to: 5
  3617                           ;C:\Program Files\Microchip\xc8\v2.32\pic\sources\c99\common\doprnt.c: 1400:     return 
      +                          nout;
  3618  006286  C5D4  F5B2         	movff	_nout,?_vfprintf
  3619  00628A  C5D5  F5B3         	movff	_nout+1,?_vfprintf+1
  3620  00628E                     
  3621                           ; BSR set to: 5
  3622  00628E  0012               	return		;funcret
  3623  006290                     __end_of_vfprintf:
  3624                           	callstack 0
  3625                           
  3626 ;; *************** function _vfpfcnvrt *****************
  3627 ;; Defined at:
  3628 ;;		line 692 in file "C:\Program Files\Microchip\xc8\v2.32\pic\sources\c99\common\doprnt.c"
  3629 ;; Parameters:    Size  Location     Type
  3630 ;;  fp              2   75[COMRAM] PTR struct _IO_FILE
  3631 ;;		 -> NULL(0), sprintf@f(6), 
  3632 ;;  fmt             2   77[COMRAM] PTR PTR unsigned char 
  3633 ;;		 -> vfprintf@cfmt(2), 
  3634 ;;  ap              2   79[COMRAM] PTR PTR void 
  3635 ;;		 -> printf@ap(2), sprintf@ap(2), 
  3636 ;; Auto vars:     Size  Location     Type
  3637 ;;  llu             8   66[BANK5 ] unsigned long long 
  3638 ;;  ll              8    0        long long 
  3639 ;;  f               4   74[BANK5 ] long long 
  3640 ;;  ct              3   78[BANK5 ] unsigned char [3]
  3641 ;;  vp              3    0        PTR void 
  3642 ;;  done            2   58[BANK5 ] int 
  3643 ;;  cp              2   56[BANK5 ] PTR unsigned char 
  3644 ;;		 -> ?_printf(2), ?_sprintf(2), sensor_interrupt@value_hex(4), sensor_interrupt@value(2), 
  3645 ;;  i               2    0        int 
  3646 ;;  c               1   81[BANK5 ] unsigned char 
  3647 ;; Return value:  Size  Location     Type
  3648 ;;                  2   75[COMRAM] int 
  3649 ;; Registers used:
  3650 ;;		wreg, fsr0l, fsr0h, fsr1l, fsr1h, fsr2l, fsr2h, status,2, status,0, tblptrl, tblptrh, tblptru, prodl, prodh, cstack
  3651 ;; Tracked objects:
  3652 ;;		On entry : 0/0
  3653 ;;		On exit  : 0/0
  3654 ;;		Unchanged: 0/0
  3655 ;; Data sizes:     COMRAM   BANK5   BANK6   BANK7   BANK8   BANK9  BANK10  BANK11  BANK12  BANK13  BANK14  BANK15  BANK1
      +6  BANK17  BANK18  BANK19  BANK20  BANK21  BANK22  BANK23  BANK24  BANK25  BANK26  BANK27  BANK28  BANK29  BANK30  BANK3
      +1  BANK32  BANK33  BANK34  BANK35  BANK36  BANK37
  3656 ;;      Params:         6       0       0       0       0       0       0       0       0       0       0       0       
      +0       0       0       0       0       0       0       0       0       0       0       0       0       0       0       
      +0       0       0       0       0       0       0
  3657 ;;      Locals:         0      26       0       0       0       0       0       0       0       0       0       0       
      +0       0       0       0       0       0       0       0       0       0       0       0       0       0       0       
      +0       0       0       0       0       0       0
  3658 ;;      Temps:          4       0       0       0       0       0       0       0       0       0       0       0       
      +0       0       0       0       0       0       0       0       0       0       0       0       0       0       0       
      +0       0       0       0       0       0       0
  3659 ;;      Totals:        10      26       0       0       0       0       0       0       0       0       0       0       
      +0       0       0       0       0       0       0       0       0       0       0       0       0       0       0       
      +0       0       0       0       0       0       0
  3660 ;;Total ram usage:       36 bytes
  3661 ;; Hardware stack levels used: 1
  3662 ;; Hardware stack levels required when called: 6
  3663 ;; This function calls:
  3664 ;;		_atoi
  3665 ;;		_efgtoa
  3666 ;;		_fputc
  3667 ;;		_isdigit
  3668 ;;		_isupper
  3669 ;;		_stoa
  3670 ;;		_strncmp
  3671 ;;		_tolower
  3672 ;;		_utoa
  3673 ;;		_xtoa
  3674 ;; This function is called by:
  3675 ;;		_vfprintf
  3676 ;; This function uses a non-reentrant model
  3677 ;;
  3678                           
  3679                           	psect	text28
  3680  0032C0                     __ptext28:
  3681                           	callstack 0
  3682  0032C0                     _vfpfcnvrt:
  3683                           	callstack 113
  3684  0032C0                     
  3685                           ;C:\Program Files\Microchip\xc8\v2.32\pic\sources\c99\common\doprnt.c: 692: static int v
      +                          fpfcnvrt(FILE *fp, char *fmt[], va_list ap);C:\Program Files\Microchip\xc8\v2.32\pic\sou
      +                          rces\c99\common\doprnt.c: 693: {;C:\Program Files\Microchip\xc8\v2.32\pic\sources\c99\co
      +                          mmon\doprnt.c: 694:     char c, *cp, ct[3];;C:\Program Files\Microchip\xc8\v2.32\pic\sou
      +                          rces\c99\common\doprnt.c: 695:     int done, i;;C:\Program Files\Microchip\xc8\v2.32\pic
      +                          \sources\c99\common\doprnt.c: 696:     long long ll;;C:\Program Files\Microchip\xc8\v2.3
      +                          2\pic\sources\c99\common\doprnt.c: 697:     unsigned long long llu;
  3686  0032C0  0061  F538  F4D9   	movff	vfpfcnvrt@fmt,fsr2l
  3687  0032C6  0061  F53C  F4DA   	movff	vfpfcnvrt@fmt+1,fsr2h
  3688  0032CC  C4DE F4F6          	movff	postinc2,tblptrl
  3689  0032D0  C4DD F4F7          	movff	postdec2,tblptrh
  3690  0032D4                     	if	0	;tblptru may be non-zero
  3691  0032D4                     	endif
  3692  0032D4                     	if	1	;Program memory is > 0xFFFF, there are 3 active tblptr bytes
  3693  0032D4  0E00               	movlw	low (__mediumconst shr (0+16))
  3694  0032D6  6EF8               	movwf	tblptru,c
  3695  0032D8                     	endif
  3696  0032D8  0008               	tblrd		*
  3697  0032DA  50F5               	movf	tablat,w,c
  3698  0032DC  0A25               	xorlw	37
  3699  0032DE  A4D8               	btfss	status,2,c
  3700  0032E0  EF74  F019         	goto	i2u590_41
  3701  0032E4  EF76  F019         	goto	i2u590_40
  3702  0032E8                     i2u590_41:
  3703  0032E8  EF1E  F01E         	goto	i2l5331
  3704  0032EC                     i2u590_40:
  3705  0032EC                     
  3706                           ;C:\Program Files\Microchip\xc8\v2.32\pic\sources\c99\common\doprnt.c: 703:         ++*f
      +                          mt;
  3707  0032EC  0061  F538  F4D9   	movff	vfpfcnvrt@fmt,fsr2l
  3708  0032F2  0061  F53C  F4DA   	movff	vfpfcnvrt@fmt+1,fsr2h
  3709  0032F8  2ADE               	incf	postinc2,f,c
  3710  0032FA  0E00               	movlw	0
  3711  0032FC  22DD               	addwfc	postdec2,f,c
  3712  0032FE                     
  3713                           ;C:\Program Files\Microchip\xc8\v2.32\pic\sources\c99\common\doprnt.c: 705:         flag
      +                          s = width = 0;
  3714  0032FE  0E00               	movlw	0
  3715  003300  0105               	movlb	5	; () banked
  3716  003302  6FD7               	movwf	(_width+1)& (0+255),b
  3717  003304  0E00               	movlw	0
  3718  003306  6FD6               	movwf	_width& (0+255),b
  3719  003308  C5D6  F5DA         	movff	_width,_flags
  3720  00330C  C5D7  F5DB         	movff	_width+1,_flags+1
  3721  003310                     
  3722                           ; BSR set to: 5
  3723                           ;C:\Program Files\Microchip\xc8\v2.32\pic\sources\c99\common\doprnt.c: 706:         prec
      +                           = -1;
  3724  003310  69D8               	setf	_prec& (0+255),b
  3725  003312  69D9               	setf	(_prec+1)& (0+255),b
  3726  003314                     
  3727                           ; BSR set to: 5
  3728                           ;C:\Program Files\Microchip\xc8\v2.32\pic\sources\c99\common\doprnt.c: 710:         done
      +                           = 0;
  3729  003314  0E00               	movlw	0
  3730  003316  6F9B               	movwf	(vfpfcnvrt@done+1)& (0+255),b
  3731  003318  0E00               	movlw	0
  3732  00331A  6F9A               	movwf	vfpfcnvrt@done& (0+255),b
  3733                           
  3734                           ;C:\Program Files\Microchip\xc8\v2.32\pic\sources\c99\common\doprnt.c: 711:         whil
      +                          e (!done) {
  3735  00331C  EFDC  F019         	goto	i2l5205
  3736  003320                     i2l5179:
  3737                           
  3738                           ; BSR set to: 5
  3739                           ;C:\Program Files\Microchip\xc8\v2.32\pic\sources\c99\common\doprnt.c: 714:             
      +                                  flags |= (1 << 0);
  3740  003320  81DA               	bsf	_flags& (0+255),0,b
  3741  003322                     i2l5181:
  3742                           
  3743                           ; BSR set to: 5
  3744                           ;C:\Program Files\Microchip\xc8\v2.32\pic\sources\c99\common\doprnt.c: 715:             
      +                                  ++*fmt;
  3745  003322  0061  F538  F4D9   	movff	vfpfcnvrt@fmt,fsr2l
  3746  003328  0061  F53C  F4DA   	movff	vfpfcnvrt@fmt+1,fsr2h
  3747  00332E  2ADE               	incf	postinc2,f,c
  3748  003330  0E00               	movlw	0
  3749  003332  22DD               	addwfc	postdec2,f,c
  3750                           
  3751                           ;C:\Program Files\Microchip\xc8\v2.32\pic\sources\c99\common\doprnt.c: 716:             
      +                                  break;
  3752  003334  EFDC  F019         	goto	i2l5205
  3753  003338                     i2l5183:
  3754                           
  3755                           ; BSR set to: 5
  3756                           ;C:\Program Files\Microchip\xc8\v2.32\pic\sources\c99\common\doprnt.c: 718:             
      +                                  flags |= (1 << 1);
  3757  003338  83DA               	bsf	_flags& (0+255),1,b
  3758  00333A  EF91  F019         	goto	i2l5181
  3759  00333E                     i2l5187:
  3760                           
  3761                           ; BSR set to: 5
  3762                           ;C:\Program Files\Microchip\xc8\v2.32\pic\sources\c99\common\doprnt.c: 722:             
      +                                  flags |= (1 << 2);
  3763  00333E  85DA               	bsf	_flags& (0+255),2,b
  3764  003340  EF91  F019         	goto	i2l5181
  3765  003344                     i2l5191:
  3766                           
  3767                           ; BSR set to: 5
  3768                           ;C:\Program Files\Microchip\xc8\v2.32\pic\sources\c99\common\doprnt.c: 726:             
      +                                  flags |= (1 << 3);
  3769  003344  87DA               	bsf	_flags& (0+255),3,b
  3770  003346  EF91  F019         	goto	i2l5181
  3771  00334A                     i2l5195:
  3772                           
  3773                           ; BSR set to: 5
  3774                           ;C:\Program Files\Microchip\xc8\v2.32\pic\sources\c99\common\doprnt.c: 730:             
      +                                  flags |= (1 << 4);
  3775  00334A  89DA               	bsf	_flags& (0+255),4,b
  3776  00334C  EF91  F019         	goto	i2l5181
  3777  003350                     i2l5199:
  3778                           
  3779                           ; BSR set to: 5
  3780                           ;C:\Program Files\Microchip\xc8\v2.32\pic\sources\c99\common\doprnt.c: 734:             
      +                                  done = 1;
  3781  003350  0E00               	movlw	0
  3782  003352  6F9B               	movwf	(vfpfcnvrt@done+1)& (0+255),b
  3783  003354  0E01               	movlw	1
  3784  003356  6F9A               	movwf	vfpfcnvrt@done& (0+255),b
  3785                           
  3786                           ;C:\Program Files\Microchip\xc8\v2.32\pic\sources\c99\common\doprnt.c: 735:             
      +                                  break;
  3787  003358  EFDC  F019         	goto	i2l5205
  3788  00335C                     i2l5203:
  3789                           
  3790                           ; BSR set to: 5
  3791  00335C  0061  F538  F4D9   	movff	vfpfcnvrt@fmt,fsr2l
  3792  003362  0061  F53C  F4DA   	movff	vfpfcnvrt@fmt+1,fsr2h
  3793  003368  C4DE F4F6          	movff	postinc2,tblptrl
  3794  00336C  C4DD F4F7          	movff	postdec2,tblptrh
  3795  003370                     	if	0	;tblptru may be non-zero
  3796  003370                     	endif
  3797  003370                     	if	1	;Program memory is > 0xFFFF, there are 3 active tblptr bytes
  3798  003370  0E00               	movlw	low (__mediumconst shr (0+16))
  3799  003372  6EF8               	movwf	tblptru,c
  3800  003374                     	endif
  3801  003374  0008               	tblrd		*
  3802  003376  50F5               	movf	tablat,w,c
  3803  003378  6E52               	movwf	??_vfpfcnvrt^(0+1280),c
  3804  00337A  6A53               	clrf	(??_vfpfcnvrt+1)^(0+1280),c
  3805                           
  3806                           ; Switch on 2 bytes has been partitioned into a top level switch of size 1, and 1 sub-sw
      +                          itches
  3807                           ; Switch size 1, requested type "simple"
  3808                           ; Number of cases is 1, Range of values is 0 to 0
  3809                           ; switch strategies available:
  3810                           ; Name         Instructions Cycles
  3811                           ; simple_byte            4     3 (average)
  3812                           ;	Chosen strategy is simple_byte
  3813  00337C  5053               	movf	(??_vfpfcnvrt+1)^(0+1280),w,c
  3814  00337E  0A00               	xorlw	0	; case 0
  3815  003380  B4D8               	btfsc	status,2,c
  3816  003382  EFC5  F019         	goto	i2l5693
  3817  003386  EFA8  F019         	goto	i2l5199
  3818  00338A                     i2l5693:
  3819                           
  3820                           ; BSR set to: 5
  3821                           ; Switch size 1, requested type "simple"
  3822                           ; Number of cases is 5, Range of values is 32 to 48
  3823                           ; switch strategies available:
  3824                           ; Name         Instructions Cycles
  3825                           ; simple_byte           16     9 (average)
  3826                           ;	Chosen strategy is simple_byte
  3827  00338A  5052               	movf	??_vfpfcnvrt^(0+1280),w,c
  3828  00338C  0A20               	xorlw	32	; case 32
  3829  00338E  B4D8               	btfsc	status,2,c
  3830  003390  EFA2  F019         	goto	i2l5191
  3831  003394  0A03               	xorlw	3	; case 35
  3832  003396  B4D8               	btfsc	status,2,c
  3833  003398  EFA5  F019         	goto	i2l5195
  3834  00339C  0A08               	xorlw	8	; case 43
  3835  00339E  B4D8               	btfsc	status,2,c
  3836  0033A0  EF9F  F019         	goto	i2l5187
  3837  0033A4  0A06               	xorlw	6	; case 45
  3838  0033A6  B4D8               	btfsc	status,2,c
  3839  0033A8  EF90  F019         	goto	i2l5179
  3840  0033AC  0A1D               	xorlw	29	; case 48
  3841  0033AE  B4D8               	btfsc	status,2,c
  3842  0033B0  EF9C  F019         	goto	i2l5183
  3843  0033B4  EFA8  F019         	goto	i2l5199
  3844  0033B8                     i2l5205:
  3845                           
  3846                           ; BSR set to: 5
  3847                           ;C:\Program Files\Microchip\xc8\v2.32\pic\sources\c99\common\doprnt.c: 711:         whil
      +                          e (!done) {
  3848  0033B8  519A               	movf	vfpfcnvrt@done& (0+255),w,b
  3849  0033BA  119B               	iorwf	(vfpfcnvrt@done+1)& (0+255),w,b
  3850  0033BC  B4D8               	btfsc	status,2,c
  3851  0033BE  EFE3  F019         	goto	i2u591_41
  3852  0033C2  EFE5  F019         	goto	i2u591_40
  3853  0033C6                     i2u591_41:
  3854  0033C6  EFAE  F019         	goto	i2l5203
  3855  0033CA                     i2u591_40:
  3856  0033CA                     
  3857                           ; BSR set to: 5
  3858                           ;C:\Program Files\Microchip\xc8\v2.32\pic\sources\c99\common\doprnt.c: 738:         if (
      +                          flags & (1 << 0)) {
  3859  0033CA  A1DA               	btfss	_flags& (0+255),0,b
  3860  0033CC  EFEA  F019         	goto	i2u592_41
  3861  0033D0  EFEC  F019         	goto	i2u592_40
  3862  0033D4                     i2u592_41:
  3863  0033D4  EFED  F019         	goto	i2l5209
  3864  0033D8                     i2u592_40:
  3865  0033D8                     
  3866                           ; BSR set to: 5
  3867                           ;C:\Program Files\Microchip\xc8\v2.32\pic\sources\c99\common\doprnt.c: 739:             
      +                          flags &= ~(1 << 1);
  3868  0033D8  93DA               	bcf	_flags& (0+255),1,b
  3869  0033DA                     i2l5209:
  3870                           
  3871                           ; BSR set to: 5
  3872                           ;C:\Program Files\Microchip\xc8\v2.32\pic\sources\c99\common\doprnt.c: 745:         if (
      +                          (*fmt)[0] == '*') {
  3873  0033DA  0061  F538  F4D9   	movff	vfpfcnvrt@fmt,fsr2l
  3874  0033E0  0061  F53C  F4DA   	movff	vfpfcnvrt@fmt+1,fsr2h
  3875  0033E6  C4DE F4F6          	movff	postinc2,tblptrl
  3876  0033EA  C4DD F4F7          	movff	postdec2,tblptrh
  3877  0033EE                     	if	0	;tblptru may be non-zero
  3878  0033EE                     	endif
  3879  0033EE                     	if	1	;Program memory is > 0xFFFF, there are 3 active tblptr bytes
  3880  0033EE  0E00               	movlw	low (__mediumconst shr (0+16))
  3881  0033F0  6EF8               	movwf	tblptru,c
  3882  0033F2                     	endif
  3883  0033F2  0008               	tblrd		*
  3884  0033F4  50F5               	movf	tablat,w,c
  3885  0033F6  0A2A               	xorlw	42
  3886  0033F8  A4D8               	btfss	status,2,c
  3887  0033FA  EF01  F01A         	goto	i2u593_41
  3888  0033FE  EF03  F01A         	goto	i2u593_40
  3889  003402                     i2u593_41:
  3890  003402  EF36  F01A         	goto	i2l5217
  3891  003406                     i2u593_40:
  3892  003406                     
  3893                           ; BSR set to: 5
  3894                           ;C:\Program Files\Microchip\xc8\v2.32\pic\sources\c99\common\doprnt.c: 746:             
      +                          ++*fmt;
  3895  003406  0061  F538  F4D9   	movff	vfpfcnvrt@fmt,fsr2l
  3896  00340C  0061  F53C  F4DA   	movff	vfpfcnvrt@fmt+1,fsr2h
  3897  003412  2ADE               	incf	postinc2,f,c
  3898  003414  0E00               	movlw	0
  3899  003416  22DD               	addwfc	postdec2,f,c
  3900                           
  3901                           ;C:\Program Files\Microchip\xc8\v2.32\pic\sources\c99\common\doprnt.c: 747:             
      +                          width = (*(int *)__va_arg(*(int **)ap, (int)0));
  3902  003418  0061  F540  F4D9   	movff	vfpfcnvrt@ap,fsr2l
  3903  00341E  0061  F544  F4DA   	movff	vfpfcnvrt@ap+1,fsr2h
  3904  003424  0061 F37C  F552    	movff	indf2,??_vfpfcnvrt
  3905  00342A  0E02               	movlw	2
  3906  00342C  26DE               	addwf	postinc2,f,c
  3907  00342E  0061 F37C  F553    	movff	indf2,??_vfpfcnvrt+1
  3908  003434  0E00               	movlw	0
  3909  003436  22DD               	addwfc	postdec2,f,c
  3910  003438  0061  F548  F4D9   	movff	??_vfpfcnvrt,fsr2l
  3911  00343E  0061  F54C  F4DA   	movff	??_vfpfcnvrt+1,fsr2h
  3912  003444  0061 F378  F5D6    	movff	postinc2,_width
  3913  00344A  0061 F374  F5D7    	movff	postdec2,_width+1
  3914  003450                     
  3915                           ; BSR set to: 5
  3916                           ;C:\Program Files\Microchip\xc8\v2.32\pic\sources\c99\common\doprnt.c: 748:             
      +                          if (width < 0) {
  3917  003450  BFD7               	btfsc	(_width+1)& (0+255),7,b
  3918  003452  EF2F  F01A         	goto	i2u594_40
  3919  003456  EF2D  F01A         	goto	i2u594_41
  3920  00345A                     i2u594_41:
  3921  00345A  EF84  F01A         	goto	i2l5227
  3922  00345E                     i2u594_40:
  3923  00345E                     
  3924                           ; BSR set to: 5
  3925                           ;C:\Program Files\Microchip\xc8\v2.32\pic\sources\c99\common\doprnt.c: 749:             
      +                              flags |= (1 << 0);
  3926  00345E  81DA               	bsf	_flags& (0+255),0,b
  3927                           
  3928                           ;C:\Program Files\Microchip\xc8\v2.32\pic\sources\c99\common\doprnt.c: 750:             
      +                              width = -width;
  3929  003460  6DD6               	negf	_width& (0+255),b
  3930  003462  1FD7               	comf	(_width+1)& (0+255),f,b
  3931  003464  B0D8               	btfsc	status,0,c
  3932  003466  2BD7               	incf	(_width+1)& (0+255),f,b
  3933  003468  EF84  F01A         	goto	i2l5227
  3934  00346C                     i2l5217:
  3935                           
  3936                           ; BSR set to: 5
  3937                           ;C:\Program Files\Microchip\xc8\v2.32\pic\sources\c99\common\doprnt.c: 753:             
      +                          width = atoi(*fmt);
  3938  00346C  0061  F538  F4D9   	movff	vfpfcnvrt@fmt,fsr2l
  3939  003472  0061  F53C  F4DA   	movff	vfpfcnvrt@fmt+1,fsr2h
  3940  003478  0061 F378  F508    	movff	postinc2,atoi@s
  3941  00347E  0061 F374  F509    	movff	postdec2,atoi@s+1
  3942  003484  EC0E  F028         	call	_atoi	;wreg free
  3943  003488  C508  F5D6         	movff	?_atoi,_width
  3944  00348C  C509  F5D7         	movff	?_atoi+1,_width+1
  3945                           
  3946                           ;C:\Program Files\Microchip\xc8\v2.32\pic\sources\c99\common\doprnt.c: 754:             
      +                          while ((0 ? isdigit((*fmt)[0]) : ((unsigned)((*fmt)[0])-'0') < 10)) {
  3947  003490  EF53  F01A         	goto	i2l5221
  3948  003494                     i2l5219:
  3949                           
  3950                           ; BSR set to: 5
  3951                           ;C:\Program Files\Microchip\xc8\v2.32\pic\sources\c99\common\doprnt.c: 755:             
      +                              ++*fmt;
  3952  003494  0061  F538  F4D9   	movff	vfpfcnvrt@fmt,fsr2l
  3953  00349A  0061  F53C  F4DA   	movff	vfpfcnvrt@fmt+1,fsr2h
  3954  0034A0  2ADE               	incf	postinc2,f,c
  3955  0034A2  0E00               	movlw	0
  3956  0034A4  22DD               	addwfc	postdec2,f,c
  3957  0034A6                     i2l5221:
  3958  0034A6  0ED0               	movlw	208
  3959  0034A8  6E52               	movwf	??_vfpfcnvrt^(0+1280),c
  3960  0034AA  0EFF               	movlw	255
  3961  0034AC  6E53               	movwf	(??_vfpfcnvrt+1)^(0+1280),c
  3962  0034AE  0061  F538  F4D9   	movff	vfpfcnvrt@fmt,fsr2l
  3963  0034B4  0061  F53C  F4DA   	movff	vfpfcnvrt@fmt+1,fsr2h
  3964  0034BA  C4DE F4F6          	movff	postinc2,tblptrl
  3965  0034BE  C4DD F4F7          	movff	postdec2,tblptrh
  3966  0034C2                     	if	0	;tblptru may be non-zero
  3967  0034C2                     	endif
  3968  0034C2                     	if	1	;Program memory is > 0xFFFF, there are 3 active tblptr bytes
  3969  0034C2  0E00               	movlw	low (__mediumconst shr (0+16))
  3970  0034C4  6EF8               	movwf	tblptru,c
  3971  0034C6                     	endif
  3972  0034C6  0008               	tblrd		*
  3973  0034C8  50F5               	movf	tablat,w,c
  3974  0034CA  6E54               	movwf	(??_vfpfcnvrt+2)^(0+1280),c
  3975  0034CC  6A55               	clrf	(??_vfpfcnvrt+3)^(0+1280),c
  3976  0034CE  5052               	movf	??_vfpfcnvrt^(0+1280),w,c
  3977  0034D0  2654               	addwf	(??_vfpfcnvrt+2)^(0+1280),f,c
  3978  0034D2  5053               	movf	(??_vfpfcnvrt+1)^(0+1280),w,c
  3979  0034D4  2255               	addwfc	(??_vfpfcnvrt+3)^(0+1280),f,c
  3980  0034D6  5055               	movf	(??_vfpfcnvrt+3)^(0+1280),w,c
  3981  0034D8  E10A               	bnz	i2u595_40
  3982  0034DA  0E0A               	movlw	10
  3983  0034DC  5C54               	subwf	(??_vfpfcnvrt+2)^(0+1280),w,c
  3984  0034DE  A0D8               	btfss	status,0,c
  3985  0034E0  EF74  F01A         	goto	i2u595_41
  3986  0034E4  EF77  F01A         	goto	i2u595_40
  3987  0034E8                     i2u595_41:
  3988  0034E8  0E01               	movlw	1
  3989  0034EA  EF78  F01A         	goto	i2u596_40
  3990  0034EE                     i2u595_40:
  3991  0034EE  0E00               	movlw	0
  3992  0034F0                     i2u596_40:
  3993  0034F0  0105               	movlb	5	; () banked
  3994  0034F2  6F9C               	movwf	_vfpfcnvrt$1896& (0+255),b
  3995  0034F4  6B9D               	clrf	(_vfpfcnvrt$1896+1)& (0+255),b
  3996  0034F6                     
  3997                           ; BSR set to: 5
  3998  0034F6  519C               	movf	_vfpfcnvrt$1896& (0+255),w,b
  3999  0034F8  119D               	iorwf	(_vfpfcnvrt$1896+1)& (0+255),w,b
  4000  0034FA  A4D8               	btfss	status,2,c
  4001  0034FC  EF82  F01A         	goto	i2u597_41
  4002  003500  EF84  F01A         	goto	i2u597_40
  4003  003504                     i2u597_41:
  4004  003504  EF4A  F01A         	goto	i2l5219
  4005  003508                     i2u597_40:
  4006  003508                     i2l5227:
  4007                           
  4008                           ; BSR set to: 5
  4009                           ;C:\Program Files\Microchip\xc8\v2.32\pic\sources\c99\common\doprnt.c: 762:         if (
      +                          (*fmt)[0] == '.') {
  4010  003508  0061  F538  F4D9   	movff	vfpfcnvrt@fmt,fsr2l
  4011  00350E  0061  F53C  F4DA   	movff	vfpfcnvrt@fmt+1,fsr2h
  4012  003514  C4DE F4F6          	movff	postinc2,tblptrl
  4013  003518  C4DD F4F7          	movff	postdec2,tblptrh
  4014  00351C                     	if	0	;tblptru may be non-zero
  4015  00351C                     	endif
  4016  00351C                     	if	1	;Program memory is > 0xFFFF, there are 3 active tblptr bytes
  4017  00351C  0E00               	movlw	low (__mediumconst shr (0+16))
  4018  00351E  6EF8               	movwf	tblptru,c
  4019  003520                     	endif
  4020  003520  0008               	tblrd		*
  4021  003522  50F5               	movf	tablat,w,c
  4022  003524  0A2E               	xorlw	46
  4023  003526  A4D8               	btfss	status,2,c
  4024  003528  EF98  F01A         	goto	i2u598_41
  4025  00352C  EF9A  F01A         	goto	i2u598_40
  4026  003530                     i2u598_41:
  4027  003530  EF32  F01B         	goto	i2l5247
  4028  003534                     i2u598_40:
  4029  003534                     
  4030                           ; BSR set to: 5
  4031                           ;C:\Program Files\Microchip\xc8\v2.32\pic\sources\c99\common\doprnt.c: 763:             
      +                          prec = 0;
  4032  003534  0E00               	movlw	0
  4033  003536  6FD9               	movwf	(_prec+1)& (0+255),b
  4034  003538  0E00               	movlw	0
  4035  00353A  6FD8               	movwf	_prec& (0+255),b
  4036  00353C                     
  4037                           ; BSR set to: 5
  4038                           ;C:\Program Files\Microchip\xc8\v2.32\pic\sources\c99\common\doprnt.c: 764:             
      +                          ++*fmt;
  4039  00353C  0061  F538  F4D9   	movff	vfpfcnvrt@fmt,fsr2l
  4040  003542  0061  F53C  F4DA   	movff	vfpfcnvrt@fmt+1,fsr2h
  4041  003548  2ADE               	incf	postinc2,f,c
  4042  00354A  0E00               	movlw	0
  4043  00354C  22DD               	addwfc	postdec2,f,c
  4044  00354E                     
  4045                           ; BSR set to: 5
  4046                           ;C:\Program Files\Microchip\xc8\v2.32\pic\sources\c99\common\doprnt.c: 765:             
      +                          if ((*fmt)[0] == '*') {
  4047  00354E  0061  F538  F4D9   	movff	vfpfcnvrt@fmt,fsr2l
  4048  003554  0061  F53C  F4DA   	movff	vfpfcnvrt@fmt+1,fsr2h
  4049  00355A  C4DE F4F6          	movff	postinc2,tblptrl
  4050  00355E  C4DD F4F7          	movff	postdec2,tblptrh
  4051  003562                     	if	0	;tblptru may be non-zero
  4052  003562                     	endif
  4053  003562                     	if	1	;Program memory is > 0xFFFF, there are 3 active tblptr bytes
  4054  003562  0E00               	movlw	low (__mediumconst shr (0+16))
  4055  003564  6EF8               	movwf	tblptru,c
  4056  003566                     	endif
  4057  003566  0008               	tblrd		*
  4058  003568  50F5               	movf	tablat,w,c
  4059  00356A  0A2A               	xorlw	42
  4060  00356C  A4D8               	btfss	status,2,c
  4061  00356E  EFBB  F01A         	goto	i2u599_41
  4062  003572  EFBD  F01A         	goto	i2u599_40
  4063  003576                     i2u599_41:
  4064  003576  EFE4  F01A         	goto	i2l5237
  4065  00357A                     i2u599_40:
  4066  00357A                     
  4067                           ; BSR set to: 5
  4068                           ;C:\Program Files\Microchip\xc8\v2.32\pic\sources\c99\common\doprnt.c: 766:             
      +                              ++*fmt;
  4069  00357A  0061  F538  F4D9   	movff	vfpfcnvrt@fmt,fsr2l
  4070  003580  0061  F53C  F4DA   	movff	vfpfcnvrt@fmt+1,fsr2h
  4071  003586  2ADE               	incf	postinc2,f,c
  4072  003588  0E00               	movlw	0
  4073  00358A  22DD               	addwfc	postdec2,f,c
  4074                           
  4075                           ;C:\Program Files\Microchip\xc8\v2.32\pic\sources\c99\common\doprnt.c: 767:             
      +                              prec = (*(int *)__va_arg(*(int **)ap, (int)0));
  4076  00358C  0061  F540  F4D9   	movff	vfpfcnvrt@ap,fsr2l
  4077  003592  0061  F544  F4DA   	movff	vfpfcnvrt@ap+1,fsr2h
  4078  003598  0061 F37C  F552    	movff	indf2,??_vfpfcnvrt
  4079  00359E  0E02               	movlw	2
  4080  0035A0  26DE               	addwf	postinc2,f,c
  4081  0035A2  0061 F37C  F553    	movff	indf2,??_vfpfcnvrt+1
  4082  0035A8  0E00               	movlw	0
  4083  0035AA  22DD               	addwfc	postdec2,f,c
  4084  0035AC  0061  F548  F4D9   	movff	??_vfpfcnvrt,fsr2l
  4085  0035B2  0061  F54C  F4DA   	movff	??_vfpfcnvrt+1,fsr2h
  4086  0035B8  0061 F378  F5D8    	movff	postinc2,_prec
  4087  0035BE  0061 F374  F5D9    	movff	postdec2,_prec+1
  4088                           
  4089                           ;C:\Program Files\Microchip\xc8\v2.32\pic\sources\c99\common\doprnt.c: 768:             
      +                          } else {
  4090  0035C4  EF32  F01B         	goto	i2l5247
  4091  0035C8                     i2l5237:
  4092                           
  4093                           ; BSR set to: 5
  4094                           ;C:\Program Files\Microchip\xc8\v2.32\pic\sources\c99\common\doprnt.c: 769:             
      +                              prec = atoi(*fmt);
  4095  0035C8  0061  F538  F4D9   	movff	vfpfcnvrt@fmt,fsr2l
  4096  0035CE  0061  F53C  F4DA   	movff	vfpfcnvrt@fmt+1,fsr2h
  4097  0035D4  0061 F378  F508    	movff	postinc2,atoi@s
  4098  0035DA  0061 F374  F509    	movff	postdec2,atoi@s+1
  4099  0035E0  EC0E  F028         	call	_atoi	;wreg free
  4100  0035E4  C508  F5D8         	movff	?_atoi,_prec
  4101  0035E8  C509  F5D9         	movff	?_atoi+1,_prec+1
  4102                           
  4103                           ;C:\Program Files\Microchip\xc8\v2.32\pic\sources\c99\common\doprnt.c: 770:             
      +                              while ((0 ? isdigit((*fmt)[0]) : ((unsigned)((*fmt)[0])-'0') < 10)) {
  4104  0035EC  EF01  F01B         	goto	i2l5241
  4105  0035F0                     i2l5239:
  4106                           
  4107                           ; BSR set to: 5
  4108                           ;C:\Program Files\Microchip\xc8\v2.32\pic\sources\c99\common\doprnt.c: 771:             
      +                                  ++*fmt;
  4109  0035F0  0061  F538  F4D9   	movff	vfpfcnvrt@fmt,fsr2l
  4110  0035F6  0061  F53C  F4DA   	movff	vfpfcnvrt@fmt+1,fsr2h
  4111  0035FC  2ADE               	incf	postinc2,f,c
  4112  0035FE  0E00               	movlw	0
  4113  003600  22DD               	addwfc	postdec2,f,c
  4114  003602                     i2l5241:
  4115  003602  0ED0               	movlw	208
  4116  003604  6E52               	movwf	??_vfpfcnvrt^(0+1280),c
  4117  003606  0EFF               	movlw	255
  4118  003608  6E53               	movwf	(??_vfpfcnvrt+1)^(0+1280),c
  4119  00360A  0061  F538  F4D9   	movff	vfpfcnvrt@fmt,fsr2l
  4120  003610  0061  F53C  F4DA   	movff	vfpfcnvrt@fmt+1,fsr2h
  4121  003616  C4DE F4F6          	movff	postinc2,tblptrl
  4122  00361A  C4DD F4F7          	movff	postdec2,tblptrh
  4123  00361E                     	if	0	;tblptru may be non-zero
  4124  00361E                     	endif
  4125  00361E                     	if	1	;Program memory is > 0xFFFF, there are 3 active tblptr bytes
  4126  00361E  0E00               	movlw	low (__mediumconst shr (0+16))
  4127  003620  6EF8               	movwf	tblptru,c
  4128  003622                     	endif
  4129  003622  0008               	tblrd		*
  4130  003624  50F5               	movf	tablat,w,c
  4131  003626  6E54               	movwf	(??_vfpfcnvrt+2)^(0+1280),c
  4132  003628  6A55               	clrf	(??_vfpfcnvrt+3)^(0+1280),c
  4133  00362A  5052               	movf	??_vfpfcnvrt^(0+1280),w,c
  4134  00362C  2654               	addwf	(??_vfpfcnvrt+2)^(0+1280),f,c
  4135  00362E  5053               	movf	(??_vfpfcnvrt+1)^(0+1280),w,c
  4136  003630  2255               	addwfc	(??_vfpfcnvrt+3)^(0+1280),f,c
  4137  003632  5055               	movf	(??_vfpfcnvrt+3)^(0+1280),w,c
  4138  003634  E10A               	bnz	i2u600_40
  4139  003636  0E0A               	movlw	10
  4140  003638  5C54               	subwf	(??_vfpfcnvrt+2)^(0+1280),w,c
  4141  00363A  A0D8               	btfss	status,0,c
  4142  00363C  EF22  F01B         	goto	i2u600_41
  4143  003640  EF25  F01B         	goto	i2u600_40
  4144  003644                     i2u600_41:
  4145  003644  0E01               	movlw	1
  4146  003646  EF26  F01B         	goto	i2u601_40
  4147  00364A                     i2u600_40:
  4148  00364A  0E00               	movlw	0
  4149  00364C                     i2u601_40:
  4150  00364C  0105               	movlb	5	; () banked
  4151  00364E  6F9E               	movwf	_vfpfcnvrt$1897& (0+255),b
  4152  003650  6B9F               	clrf	(_vfpfcnvrt$1897+1)& (0+255),b
  4153  003652                     
  4154                           ; BSR set to: 5
  4155  003652  519E               	movf	_vfpfcnvrt$1897& (0+255),w,b
  4156  003654  119F               	iorwf	(_vfpfcnvrt$1897+1)& (0+255),w,b
  4157  003656  A4D8               	btfss	status,2,c
  4158  003658  EF30  F01B         	goto	i2u602_41
  4159  00365C  EF32  F01B         	goto	i2u602_40
  4160  003660                     i2u602_41:
  4161  003660  EFF8  F01A         	goto	i2l5239
  4162  003664                     i2u602_40:
  4163  003664                     i2l5247:
  4164                           
  4165                           ; BSR set to: 5
  4166                           ;C:\Program Files\Microchip\xc8\v2.32\pic\sources\c99\common\doprnt.c: 779:         ct[0
      +                          ] = (char)tolower((int)(*fmt)[0]);
  4167  003664  0061  F538  F4D9   	movff	vfpfcnvrt@fmt,fsr2l
  4168  00366A  0061  F53C  F4DA   	movff	vfpfcnvrt@fmt+1,fsr2h
  4169  003670  C4DE F4F6          	movff	postinc2,tblptrl
  4170  003674  C4DD F4F7          	movff	postdec2,tblptrh
  4171  003678                     	if	0	;tblptru may be non-zero
  4172  003678                     	endif
  4173  003678                     	if	1	;Program memory is > 0xFFFF, there are 3 active tblptr bytes
  4174  003678  0E00               	movlw	low (__mediumconst shr (0+16))
  4175  00367A  6EF8               	movwf	tblptru,c
  4176  00367C                     	endif
  4177  00367C  0008               	tblrd		*
  4178  00367E  50F5               	movf	tablat,w,c
  4179  003680  6E07               	movwf	tolower@c^(0+1280),c
  4180  003682  6A08               	clrf	(tolower@c+1)^(0+1280),c
  4181  003684  EC7B  F031         	call	_tolower	;wreg free
  4182  003688  5007               	movf	?_tolower^(0+1280),w,c
  4183  00368A  0105               	movlb	5	; () banked
  4184  00368C  6FAE               	movwf	vfpfcnvrt@ct& (0+255),b
  4185  00368E                     
  4186                           ; BSR set to: 5
  4187                           ;C:\Program Files\Microchip\xc8\v2.32\pic\sources\c99\common\doprnt.c: 780:         if (
      +                          ct[0]) {
  4188  00368E  51AE               	movf	vfpfcnvrt@ct& (0+255),w,b
  4189  003690  B4D8               	btfsc	status,2,c
  4190  003692  EF4D  F01B         	goto	i2u603_41
  4191  003696  EF4F  F01B         	goto	i2u603_40
  4192  00369A                     i2u603_41:
  4193  00369A  EF99  F01B         	goto	i2l5257
  4194  00369E                     i2u603_40:
  4195  00369E                     
  4196                           ; BSR set to: 5
  4197                           ;C:\Program Files\Microchip\xc8\v2.32\pic\sources\c99\common\doprnt.c: 781:             
      +                          ct[1] = (char)tolower((int)(*fmt)[1]);
  4198  00369E  0061  F538  F4D9   	movff	vfpfcnvrt@fmt,fsr2l
  4199  0036A4  0061  F53C  F4DA   	movff	vfpfcnvrt@fmt+1,fsr2h
  4200  0036AA  0061 F378  F552    	movff	postinc2,??_vfpfcnvrt
  4201  0036B0  0061 F374  F553    	movff	postdec2,??_vfpfcnvrt+1
  4202  0036B6  0E01               	movlw	1
  4203  0036B8  2652               	addwf	??_vfpfcnvrt^(0+1280),f,c
  4204  0036BA  0E00               	movlw	0
  4205  0036BC  2253               	addwfc	(??_vfpfcnvrt+1)^(0+1280),f,c
  4206  0036BE  0061  F548  F4F6   	movff	??_vfpfcnvrt,tblptrl
  4207  0036C4  0061  F54C  F4F7   	movff	??_vfpfcnvrt+1,tblptrh
  4208  0036CA                     	if	0	;tblptru may be non-zero
  4209  0036CA                     	endif
  4210  0036CA                     	if	1	;Program memory is > 0xFFFF, there are 3 active tblptr bytes
  4211  0036CA  0E00               	movlw	low (__mediumconst shr (0+16))
  4212  0036CC  6EF8               	movwf	tblptru,c
  4213  0036CE                     	endif
  4214  0036CE  0008               	tblrd		*
  4215  0036D0  50F5               	movf	tablat,w,c
  4216  0036D2  6E07               	movwf	tolower@c^(0+1280),c
  4217  0036D4  6A08               	clrf	(tolower@c+1)^(0+1280),c
  4218  0036D6  EC7B  F031         	call	_tolower	;wreg free
  4219  0036DA  5007               	movf	?_tolower^(0+1280),w,c
  4220  0036DC  0105               	movlb	5	; () banked
  4221  0036DE  6FAF               	movwf	(vfpfcnvrt@ct+1)& (0+255),b
  4222  0036E0                     
  4223                           ; BSR set to: 5
  4224                           ;C:\Program Files\Microchip\xc8\v2.32\pic\sources\c99\common\doprnt.c: 782:             
      +                          if (ct[1]) {
  4225  0036E0  51AF               	movf	(vfpfcnvrt@ct+1)& (0+255),w,b
  4226  0036E2  B4D8               	btfsc	status,2,c
  4227  0036E4  EF76  F01B         	goto	i2u604_41
  4228  0036E8  EF78  F01B         	goto	i2u604_40
  4229  0036EC                     i2u604_41:
  4230  0036EC  EF99  F01B         	goto	i2l5257
  4231  0036F0                     i2u604_40:
  4232  0036F0                     
  4233                           ; BSR set to: 5
  4234                           ;C:\Program Files\Microchip\xc8\v2.32\pic\sources\c99\common\doprnt.c: 783:             
      +                              ct[2] = (char)tolower((int)(*fmt)[2]);
  4235  0036F0  0061  F538  F4D9   	movff	vfpfcnvrt@fmt,fsr2l
  4236  0036F6  0061  F53C  F4DA   	movff	vfpfcnvrt@fmt+1,fsr2h
  4237  0036FC  0061 F378  F552    	movff	postinc2,??_vfpfcnvrt
  4238  003702  0061 F374  F553    	movff	postdec2,??_vfpfcnvrt+1
  4239  003708  0E02               	movlw	2
  4240  00370A  2652               	addwf	??_vfpfcnvrt^(0+1280),f,c
  4241  00370C  0E00               	movlw	0
  4242  00370E  2253               	addwfc	(??_vfpfcnvrt+1)^(0+1280),f,c
  4243  003710  0061  F548  F4F6   	movff	??_vfpfcnvrt,tblptrl
  4244  003716  0061  F54C  F4F7   	movff	??_vfpfcnvrt+1,tblptrh
  4245  00371C                     	if	0	;tblptru may be non-zero
  4246  00371C                     	endif
  4247  00371C                     	if	1	;Program memory is > 0xFFFF, there are 3 active tblptr bytes
  4248  00371C  0E00               	movlw	low (__mediumconst shr (0+16))
  4249  00371E  6EF8               	movwf	tblptru,c
  4250  003720                     	endif
  4251  003720  0008               	tblrd		*
  4252  003722  50F5               	movf	tablat,w,c
  4253  003724  6E07               	movwf	tolower@c^(0+1280),c
  4254  003726  6A08               	clrf	(tolower@c+1)^(0+1280),c
  4255  003728  EC7B  F031         	call	_tolower	;wreg free
  4256  00372C  5007               	movf	?_tolower^(0+1280),w,c
  4257  00372E  0105               	movlb	5	; () banked
  4258  003730  6FB0               	movwf	(vfpfcnvrt@ct+2)& (0+255),b
  4259  003732                     i2l5257:
  4260                           
  4261                           ; BSR set to: 5
  4262                           ;C:\Program Files\Microchip\xc8\v2.32\pic\sources\c99\common\doprnt.c: 942:         if (
      +                          ct[0] == 'f') {
  4263  003732  0E66               	movlw	102
  4264  003734  19AE               	xorwf	vfpfcnvrt@ct& (0+255),w,b
  4265  003736  A4D8               	btfss	status,2,c
  4266  003738  EFA0  F01B         	goto	i2u605_41
  4267  00373C  EFA2  F01B         	goto	i2u605_40
  4268  003740                     i2u605_41:
  4269  003740  EFF3  F01B         	goto	i2l5269
  4270  003744                     i2u605_40:
  4271  003744                     
  4272                           ; BSR set to: 5
  4273                           ;C:\Program Files\Microchip\xc8\v2.32\pic\sources\c99\common\doprnt.c: 944:             
      +                          c = (*fmt)[0];
  4274  003744  0061  F538  F4D9   	movff	vfpfcnvrt@fmt,fsr2l
  4275  00374A  0061  F53C  F4DA   	movff	vfpfcnvrt@fmt+1,fsr2h
  4276  003750  C4DE F4F6          	movff	postinc2,tblptrl
  4277  003754  C4DD F4F7          	movff	postdec2,tblptrh
  4278  003758                     	if	0	;tblptru may be non-zero
  4279  003758                     	endif
  4280  003758                     	if	1	;Program memory is > 0xFFFF, there are 3 active tblptr bytes
  4281  003758  0E00               	movlw	low (__mediumconst shr (0+16))
  4282  00375A  6EF8               	movwf	tblptru,c
  4283  00375C                     	endif
  4284  00375C  0008               	tblrd		*
  4285  00375E  0061 F3D4  F5B1    	movff	tablat,vfpfcnvrt@c
  4286  003764                     
  4287                           ; BSR set to: 5
  4288                           ;C:\Program Files\Microchip\xc8\v2.32\pic\sources\c99\common\doprnt.c: 945:             
      +                          ++*fmt;
  4289  003764  0061  F538  F4D9   	movff	vfpfcnvrt@fmt,fsr2l
  4290  00376A  0061  F53C  F4DA   	movff	vfpfcnvrt@fmt+1,fsr2h
  4291  003770  2ADE               	incf	postinc2,f,c
  4292  003772  0E00               	movlw	0
  4293  003774  22DD               	addwfc	postdec2,f,c
  4294  003776                     
  4295                           ; BSR set to: 5
  4296                           ;C:\Program Files\Microchip\xc8\v2.32\pic\sources\c99\common\doprnt.c: 946:             
      +                          f = (long double)(*(double *)__va_arg(*(double **)ap, (double)0));
  4297  003776  0061  F540  F4D9   	movff	vfpfcnvrt@ap,fsr2l
  4298  00377C  0061  F544  F4DA   	movff	vfpfcnvrt@ap+1,fsr2h
  4299  003782  0061 F37C  F552    	movff	indf2,??_vfpfcnvrt
  4300  003788  0E04               	movlw	4
  4301  00378A  26DE               	addwf	postinc2,f,c
  4302  00378C  0061 F37C  F553    	movff	indf2,??_vfpfcnvrt+1
  4303  003792  0E00               	movlw	0
  4304  003794  22DD               	addwfc	postdec2,f,c
  4305  003796  0061  F548  F4D9   	movff	??_vfpfcnvrt,fsr2l
  4306  00379C  0061  F54C  F4DA   	movff	??_vfpfcnvrt+1,fsr2h
  4307  0037A2  0061 F378  F5AA    	movff	postinc2,vfpfcnvrt@f
  4308  0037A8  0061 F378  F5AB    	movff	postinc2,vfpfcnvrt@f+1
  4309  0037AE  0061 F378  F5AC    	movff	postinc2,vfpfcnvrt@f+2
  4310  0037B4  0061 F378  F5AD    	movff	postinc2,vfpfcnvrt@f+3
  4311  0037BA                     i2l5265:
  4312                           
  4313                           ; BSR set to: 5
  4314                           ;C:\Program Files\Microchip\xc8\v2.32\pic\sources\c99\common\doprnt.c: 948:             
      +                          return efgtoa(fp, f, c);
  4315  0037BA  C54C  F540         	movff	vfpfcnvrt@fp,efgtoa@fp
  4316  0037BE  C54D  F541         	movff	vfpfcnvrt@fp+1,efgtoa@fp+1
  4317  0037C2  C5AA  F542         	movff	vfpfcnvrt@f,efgtoa@f
  4318  0037C6  C5AB  F543         	movff	vfpfcnvrt@f+1,efgtoa@f+1
  4319  0037CA  C5AC  F544         	movff	vfpfcnvrt@f+2,efgtoa@f+2
  4320  0037CE  C5AD  F545         	movff	vfpfcnvrt@f+3,efgtoa@f+3
  4321  0037D2  C5B1  F546         	movff	vfpfcnvrt@c,efgtoa@c
  4322  0037D6  EC32  F013         	call	_efgtoa	;wreg free
  4323  0037DA  C540  F54C         	movff	?_efgtoa,?_vfpfcnvrt
  4324  0037DE  C541  F54D         	movff	?_efgtoa+1,?_vfpfcnvrt+1
  4325  0037E2  EF3F  F01E         	goto	i2l1589
  4326  0037E6                     i2l5269:
  4327                           
  4328                           ; BSR set to: 5
  4329                           ;C:\Program Files\Microchip\xc8\v2.32\pic\sources\c99\common\doprnt.c: 950:         if (
      +                          !strncmp(ct, "lf", ((sizeof("lf")/sizeof("lf"[0]))-1))) {
  4330  0037E6  0EAE               	movlw	low vfpfcnvrt@ct
  4331  0037E8  6E01               	movwf	strncmp@_l^(0+1280),c
  4332  0037EA  0E05               	movlw	high vfpfcnvrt@ct
  4333  0037EC  6E02               	movwf	(strncmp@_l+1)^(0+1280),c
  4334  0037EE  0E5F               	movlw	low STR_17
  4335  0037F0  6E03               	movwf	strncmp@_r^(0+1280),c
  4336  0037F2  0E26               	movlw	high STR_17
  4337  0037F4  6E04               	movwf	(strncmp@_r+1)^(0+1280),c
  4338  0037F6  0E00               	movlw	0
  4339  0037F8  6E06               	movwf	(strncmp@n+1)^(0+1280),c
  4340  0037FA  0E02               	movlw	2
  4341  0037FC  6E05               	movwf	strncmp@n^(0+1280),c
  4342  0037FE  EC0D  F02C         	call	_strncmp	;wreg free
  4343  003802  5001               	movf	?_strncmp^(0+1280),w,c
  4344  003804  1002               	iorwf	(?_strncmp+1)^(0+1280),w,c
  4345  003806  A4D8               	btfss	status,2,c
  4346  003808  EF08  F01C         	goto	i2u606_41
  4347  00380C  EF0A  F01C         	goto	i2u606_40
  4348  003810                     i2u606_41:
  4349  003810  EFA9  F01C         	goto	i2l5285
  4350  003814                     i2u606_40:
  4351  003814                     
  4352                           ;C:\Program Files\Microchip\xc8\v2.32\pic\sources\c99\common\doprnt.c: 953:             
      +                          if ((0 ? isupper((int)(*fmt)[0]) : ((unsigned)((int)(*fmt)[0])-'A') < 26)) {
  4353  003814  0061  F538  F4D9   	movff	vfpfcnvrt@fmt,fsr2l
  4354  00381A  0061  F53C  F4DA   	movff	vfpfcnvrt@fmt+1,fsr2h
  4355  003820  0061 F378  F552    	movff	postinc2,??_vfpfcnvrt
  4356  003826  0061 F374  F553    	movff	postdec2,??_vfpfcnvrt+1
  4357  00382C  0E01               	movlw	1
  4358  00382E  2652               	addwf	??_vfpfcnvrt^(0+1280),f,c
  4359  003830  0E00               	movlw	0
  4360  003832  2253               	addwfc	(??_vfpfcnvrt+1)^(0+1280),f,c
  4361  003834  0061  F548  F4F6   	movff	??_vfpfcnvrt,tblptrl
  4362  00383A  0061  F54C  F4F7   	movff	??_vfpfcnvrt+1,tblptrh
  4363  003840                     	if	0	;tblptru may be non-zero
  4364  003840                     	endif
  4365  003840                     	if	1	;Program memory is > 0xFFFF, there are 3 active tblptr bytes
  4366  003840  0E00               	movlw	low (__mediumconst shr (0+16))
  4367  003842  6EF8               	movwf	tblptru,c
  4368  003844                     	endif
  4369  003844  0008               	tblrd		*
  4370  003846  0061 F3D4  F5B1    	movff	tablat,vfpfcnvrt@c
  4371  00384C  0EBF               	movlw	191
  4372  00384E  6E52               	movwf	??_vfpfcnvrt^(0+1280),c
  4373  003850  0EFF               	movlw	255
  4374  003852  6E53               	movwf	(??_vfpfcnvrt+1)^(0+1280),c
  4375  003854  0061  F538  F4D9   	movff	vfpfcnvrt@fmt,fsr2l
  4376  00385A  0061  F53C  F4DA   	movff	vfpfcnvrt@fmt+1,fsr2h
  4377  003860  C4DE F4F6          	movff	postinc2,tblptrl
  4378  003864  C4DD F4F7          	movff	postdec2,tblptrh
  4379  003868                     	if	0	;tblptru may be non-zero
  4380  003868                     	endif
  4381  003868                     	if	1	;Program memory is > 0xFFFF, there are 3 active tblptr bytes
  4382  003868  0E00               	movlw	low (__mediumconst shr (0+16))
  4383  00386A  6EF8               	movwf	tblptru,c
  4384  00386C                     	endif
  4385  00386C  0008               	tblrd		*
  4386  00386E  50F5               	movf	tablat,w,c
  4387  003870  6E54               	movwf	(??_vfpfcnvrt+2)^(0+1280),c
  4388  003872  6A55               	clrf	(??_vfpfcnvrt+3)^(0+1280),c
  4389  003874  5052               	movf	??_vfpfcnvrt^(0+1280),w,c
  4390  003876  2654               	addwf	(??_vfpfcnvrt+2)^(0+1280),f,c
  4391  003878  5053               	movf	(??_vfpfcnvrt+1)^(0+1280),w,c
  4392  00387A  2255               	addwfc	(??_vfpfcnvrt+3)^(0+1280),f,c
  4393  00387C  5055               	movf	(??_vfpfcnvrt+3)^(0+1280),w,c
  4394  00387E  E10A               	bnz	i2u607_40
  4395  003880  0E1A               	movlw	26
  4396  003882  5C54               	subwf	(??_vfpfcnvrt+2)^(0+1280),w,c
  4397  003884  A0D8               	btfss	status,0,c
  4398  003886  EF47  F01C         	goto	i2u607_41
  4399  00388A  EF4A  F01C         	goto	i2u607_40
  4400  00388E                     i2u607_41:
  4401  00388E  0E01               	movlw	1
  4402  003890  EF4B  F01C         	goto	i2u608_40
  4403  003894                     i2u607_40:
  4404  003894  0E00               	movlw	0
  4405  003896                     i2u608_40:
  4406  003896  0105               	movlb	5	; () banked
  4407  003898  6FA0               	movwf	_vfpfcnvrt$1901& (0+255),b
  4408  00389A  6BA1               	clrf	(_vfpfcnvrt$1901+1)& (0+255),b
  4409  00389C                     
  4410                           ; BSR set to: 5
  4411  00389C  51A0               	movf	_vfpfcnvrt$1901& (0+255),w,b
  4412  00389E  11A1               	iorwf	(_vfpfcnvrt$1901+1)& (0+255),w,b
  4413  0038A0  B4D8               	btfsc	status,2,c
  4414  0038A2  EF55  F01C         	goto	i2u609_41
  4415  0038A6  EF57  F01C         	goto	i2u609_40
  4416  0038AA                     i2u609_41:
  4417  0038AA  EF7B  F01C         	goto	i2l5279
  4418  0038AE                     i2u609_40:
  4419  0038AE                     
  4420                           ; BSR set to: 5
  4421                           ;C:\Program Files\Microchip\xc8\v2.32\pic\sources\c99\common\doprnt.c: 954:             
      +                              f = (*(long double *)__va_arg(*(long double **)ap, (long double)0));
  4422  0038AE  0061  F540  F4D9   	movff	vfpfcnvrt@ap,fsr2l
  4423  0038B4  0061  F544  F4DA   	movff	vfpfcnvrt@ap+1,fsr2h
  4424  0038BA  0061 F37C  F552    	movff	indf2,??_vfpfcnvrt
  4425  0038C0  0E04               	movlw	4
  4426  0038C2  26DE               	addwf	postinc2,f,c
  4427  0038C4  0061 F37C  F553    	movff	indf2,??_vfpfcnvrt+1
  4428  0038CA  0E00               	movlw	0
  4429  0038CC  22DD               	addwfc	postdec2,f,c
  4430  0038CE  0061  F548  F4D9   	movff	??_vfpfcnvrt,fsr2l
  4431  0038D4  0061  F54C  F4DA   	movff	??_vfpfcnvrt+1,fsr2h
  4432  0038DA  0061 F378  F5AA    	movff	postinc2,vfpfcnvrt@f
  4433  0038E0  0061 F378  F5AB    	movff	postinc2,vfpfcnvrt@f+1
  4434  0038E6  0061 F378  F5AC    	movff	postinc2,vfpfcnvrt@f+2
  4435  0038EC  0061 F378  F5AD    	movff	postinc2,vfpfcnvrt@f+3
  4436                           
  4437                           ;C:\Program Files\Microchip\xc8\v2.32\pic\sources\c99\common\doprnt.c: 955:             
      +                          } else {
  4438  0038F2  EF9D  F01C         	goto	i2l1596
  4439  0038F6                     i2l5279:
  4440                           
  4441                           ; BSR set to: 5
  4442                           ;C:\Program Files\Microchip\xc8\v2.32\pic\sources\c99\common\doprnt.c: 956:             
      +                              f = (long double)(*(double *)__va_arg(*(double **)ap, (double)0));
  4443  0038F6  0061  F540  F4D9   	movff	vfpfcnvrt@ap,fsr2l
  4444  0038FC  0061  F544  F4DA   	movff	vfpfcnvrt@ap+1,fsr2h
  4445  003902  0061 F37C  F552    	movff	indf2,??_vfpfcnvrt
  4446  003908  0E04               	movlw	4
  4447  00390A  26DE               	addwf	postinc2,f,c
  4448  00390C  0061 F37C  F553    	movff	indf2,??_vfpfcnvrt+1
  4449  003912  0E00               	movlw	0
  4450  003914  22DD               	addwfc	postdec2,f,c
  4451  003916  0061  F548  F4D9   	movff	??_vfpfcnvrt,fsr2l
  4452  00391C  0061  F54C  F4DA   	movff	??_vfpfcnvrt+1,fsr2h
  4453  003922  0061 F378  F5AA    	movff	postinc2,vfpfcnvrt@f
  4454  003928  0061 F378  F5AB    	movff	postinc2,vfpfcnvrt@f+1
  4455  00392E  0061 F378  F5AC    	movff	postinc2,vfpfcnvrt@f+2
  4456  003934  0061 F378  F5AD    	movff	postinc2,vfpfcnvrt@f+3
  4457  00393A                     i2l1596:
  4458                           
  4459                           ; BSR set to: 5
  4460                           ;C:\Program Files\Microchip\xc8\v2.32\pic\sources\c99\common\doprnt.c: 958:             
      +                          *fmt += ((sizeof("lf")/sizeof("lf"[0]))-1);
  4461  00393A  0E02               	movlw	2
  4462  00393C  0061  F538  F4D9   	movff	vfpfcnvrt@fmt,fsr2l
  4463  003942  0061  F53C  F4DA   	movff	vfpfcnvrt@fmt+1,fsr2h
  4464  003948  26DE               	addwf	postinc2,f,c
  4465  00394A  0E00               	movlw	0
  4466  00394C  22DD               	addwfc	postdec2,f,c
  4467  00394E  EFDD  F01B         	goto	i2l5265
  4468  003952                     i2l5285:
  4469                           
  4470                           ;C:\Program Files\Microchip\xc8\v2.32\pic\sources\c99\common\doprnt.c: 1171:         if 
      +                          (*fmt[0] == 's') {
  4471  003952  0061  F538  F4D9   	movff	vfpfcnvrt@fmt,fsr2l
  4472  003958  0061  F53C  F4DA   	movff	vfpfcnvrt@fmt+1,fsr2h
  4473  00395E  C4DE F4F6          	movff	postinc2,tblptrl
  4474  003962  C4DD F4F7          	movff	postdec2,tblptrh
  4475  003966                     	if	0	;tblptru may be non-zero
  4476  003966                     	endif
  4477  003966                     	if	1	;Program memory is > 0xFFFF, there are 3 active tblptr bytes
  4478  003966  0E00               	movlw	low (__mediumconst shr (0+16))
  4479  003968  6EF8               	movwf	tblptru,c
  4480  00396A                     	endif
  4481  00396A  0008               	tblrd		*
  4482  00396C  50F5               	movf	tablat,w,c
  4483  00396E  0A73               	xorlw	115
  4484  003970  A4D8               	btfss	status,2,c
  4485  003972  EFBD  F01C         	goto	i2u610_41
  4486  003976  EFBF  F01C         	goto	i2u610_40
  4487  00397A                     i2u610_41:
  4488  00397A  EFF4  F01C         	goto	i2l5293
  4489  00397E                     i2u610_40:
  4490  00397E                     
  4491                           ;C:\Program Files\Microchip\xc8\v2.32\pic\sources\c99\common\doprnt.c: 1173:            
      +                           ++*fmt;
  4492  00397E  0061  F538  F4D9   	movff	vfpfcnvrt@fmt,fsr2l
  4493  003984  0061  F53C  F4DA   	movff	vfpfcnvrt@fmt+1,fsr2h
  4494  00398A  2ADE               	incf	postinc2,f,c
  4495  00398C  0E00               	movlw	0
  4496  00398E  22DD               	addwfc	postdec2,f,c
  4497                           
  4498                           ;C:\Program Files\Microchip\xc8\v2.32\pic\sources\c99\common\doprnt.c: 1174:            
      +                           cp = (*(char * *)__va_arg(*(char * **)ap, (char *)0));
  4499  003990  0061  F540  F4D9   	movff	vfpfcnvrt@ap,fsr2l
  4500  003996  0061  F544  F4DA   	movff	vfpfcnvrt@ap+1,fsr2h
  4501  00399C  0061 F37C  F552    	movff	indf2,??_vfpfcnvrt
  4502  0039A2  0E02               	movlw	2
  4503  0039A4  26DE               	addwf	postinc2,f,c
  4504  0039A6  0061 F37C  F553    	movff	indf2,??_vfpfcnvrt+1
  4505  0039AC  0E00               	movlw	0
  4506  0039AE  22DD               	addwfc	postdec2,f,c
  4507  0039B0  0061  F548  F4D9   	movff	??_vfpfcnvrt,fsr2l
  4508  0039B6  0061  F54C  F4DA   	movff	??_vfpfcnvrt+1,fsr2h
  4509  0039BC  0061 F378  F598    	movff	postinc2,vfpfcnvrt@cp
  4510  0039C2  0061 F374  F599    	movff	postdec2,vfpfcnvrt@cp+1
  4511  0039C8                     
  4512                           ;C:\Program Files\Microchip\xc8\v2.32\pic\sources\c99\common\doprnt.c: 1176:            
      +                           return stoa(fp, cp);
  4513  0039C8  C54C  F50C         	movff	vfpfcnvrt@fp,stoa@fp
  4514  0039CC  C54D  F50D         	movff	vfpfcnvrt@fp+1,stoa@fp+1
  4515  0039D0  C598  F50E         	movff	vfpfcnvrt@cp,stoa@s
  4516  0039D4  C599  F50F         	movff	vfpfcnvrt@cp+1,stoa@s+1
  4517  0039D8  ECC4  F029         	call	_stoa	;wreg free
  4518  0039DC  C50C  F54C         	movff	?_stoa,?_vfpfcnvrt
  4519  0039E0  C50D  F54D         	movff	?_stoa+1,?_vfpfcnvrt+1
  4520  0039E4  EF3F  F01E         	goto	i2l1589
  4521  0039E8                     i2l5293:
  4522                           
  4523                           ;C:\Program Files\Microchip\xc8\v2.32\pic\sources\c99\common\doprnt.c: 1204:         if 
      +                          (*fmt[0] == 'u') {
  4524  0039E8  0061  F538  F4D9   	movff	vfpfcnvrt@fmt,fsr2l
  4525  0039EE  0061  F53C  F4DA   	movff	vfpfcnvrt@fmt+1,fsr2h
  4526  0039F4  C4DE F4F6          	movff	postinc2,tblptrl
  4527  0039F8  C4DD F4F7          	movff	postdec2,tblptrh
  4528  0039FC                     	if	0	;tblptru may be non-zero
  4529  0039FC                     	endif
  4530  0039FC                     	if	1	;Program memory is > 0xFFFF, there are 3 active tblptr bytes
  4531  0039FC  0E00               	movlw	low (__mediumconst shr (0+16))
  4532  0039FE  6EF8               	movwf	tblptru,c
  4533  003A00                     	endif
  4534  003A00  0008               	tblrd		*
  4535  003A02  50F5               	movf	tablat,w,c
  4536  003A04  0A75               	xorlw	117
  4537  003A06  A4D8               	btfss	status,2,c
  4538  003A08  EF08  F01D         	goto	i2u611_41
  4539  003A0C  EF0A  F01D         	goto	i2u611_40
  4540  003A10                     i2u611_41:
  4541  003A10  EF56  F01D         	goto	i2l5301
  4542  003A14                     i2u611_40:
  4543  003A14                     
  4544                           ;C:\Program Files\Microchip\xc8\v2.32\pic\sources\c99\common\doprnt.c: 1206:            
      +                           ++*fmt;
  4545  003A14  0061  F538  F4D9   	movff	vfpfcnvrt@fmt,fsr2l
  4546  003A1A  0061  F53C  F4DA   	movff	vfpfcnvrt@fmt+1,fsr2h
  4547  003A20  2ADE               	incf	postinc2,f,c
  4548  003A22  0E00               	movlw	0
  4549  003A24  22DD               	addwfc	postdec2,f,c
  4550                           
  4551                           ;C:\Program Files\Microchip\xc8\v2.32\pic\sources\c99\common\doprnt.c: 1207:            
      +                           llu = (unsigned long long)(*(unsigned int *)__va_arg(*(unsigned int **)ap, (unsigned in
      +                          t)0));
  4552  003A26  0061  F540  F4D9   	movff	vfpfcnvrt@ap,fsr2l
  4553  003A2C  0061  F544  F4DA   	movff	vfpfcnvrt@ap+1,fsr2h
  4554  003A32  0061 F37C  F552    	movff	indf2,??_vfpfcnvrt
  4555  003A38  0E02               	movlw	2
  4556  003A3A  26DE               	addwf	postinc2,f,c
  4557  003A3C  0061 F37C  F553    	movff	indf2,??_vfpfcnvrt+1
  4558  003A42  0E00               	movlw	0
  4559  003A44  22DD               	addwfc	postdec2,f,c
  4560  003A46  0061  F548  F4D9   	movff	??_vfpfcnvrt,fsr2l
  4561  003A4C  0061  F54C  F4DA   	movff	??_vfpfcnvrt+1,fsr2h
  4562  003A52  0061 F378  F554    	movff	postinc2,??_vfpfcnvrt+2
  4563  003A58  0061 F374  F555    	movff	postdec2,??_vfpfcnvrt+3
  4564  003A5E  C554  F5A2         	movff	??_vfpfcnvrt+2,vfpfcnvrt@llu
  4565  003A62  C555  F5A3         	movff	??_vfpfcnvrt+3,vfpfcnvrt@llu+1
  4566  003A66  0105               	movlb	5	; () banked
  4567  003A68  6BA4               	clrf	(vfpfcnvrt@llu+2)& (0+255),b
  4568  003A6A  6BA5               	clrf	(vfpfcnvrt@llu+3)& (0+255),b
  4569  003A6C  6BA6               	clrf	(vfpfcnvrt@llu+4)& (0+255),b
  4570  003A6E  6BA7               	clrf	(vfpfcnvrt@llu+5)& (0+255),b
  4571  003A70  6BA8               	clrf	(vfpfcnvrt@llu+6)& (0+255),b
  4572  003A72  6BA9               	clrf	(vfpfcnvrt@llu+7)& (0+255),b
  4573  003A74                     
  4574                           ; BSR set to: 5
  4575                           ;C:\Program Files\Microchip\xc8\v2.32\pic\sources\c99\common\doprnt.c: 1209:            
      +                           return utoa(fp, llu);
  4576  003A74  C54C  F51E         	movff	vfpfcnvrt@fp,utoa@fp
  4577  003A78  C54D  F51F         	movff	vfpfcnvrt@fp+1,utoa@fp+1
  4578  003A7C  C5A2  F520         	movff	vfpfcnvrt@llu,utoa@d
  4579  003A80  C5A3  F521         	movff	vfpfcnvrt@llu+1,utoa@d+1
  4580  003A84  C5A4  F522         	movff	vfpfcnvrt@llu+2,utoa@d+2
  4581  003A88  C5A5  F523         	movff	vfpfcnvrt@llu+3,utoa@d+3
  4582  003A8C  C5A6  F524         	movff	vfpfcnvrt@llu+4,utoa@d+4
  4583  003A90  C5A7  F525         	movff	vfpfcnvrt@llu+5,utoa@d+5
  4584  003A94  C5A8  F526         	movff	vfpfcnvrt@llu+6,utoa@d+6
  4585  003A98  C5A9  F527         	movff	vfpfcnvrt@llu+7,utoa@d+7
  4586  003A9C  EC0C  F027         	call	_utoa	;wreg free
  4587  003AA0  C51E  F54C         	movff	?_utoa,?_vfpfcnvrt
  4588  003AA4  C51F  F54D         	movff	?_utoa+1,?_vfpfcnvrt+1
  4589  003AA8  EF3F  F01E         	goto	i2l1589
  4590  003AAC                     i2l5301:
  4591                           
  4592                           ;C:\Program Files\Microchip\xc8\v2.32\pic\sources\c99\common\doprnt.c: 1296:         if 
      +                          ((*fmt[0] == 'x') || (*fmt[0] == 'X')) {
  4593  003AAC  0061  F538  F4D9   	movff	vfpfcnvrt@fmt,fsr2l
  4594  003AB2  0061  F53C  F4DA   	movff	vfpfcnvrt@fmt+1,fsr2h
  4595  003AB8  C4DE F4F6          	movff	postinc2,tblptrl
  4596  003ABC  C4DD F4F7          	movff	postdec2,tblptrh
  4597  003AC0                     	if	0	;tblptru may be non-zero
  4598  003AC0                     	endif
  4599  003AC0                     	if	1	;Program memory is > 0xFFFF, there are 3 active tblptr bytes
  4600  003AC0  0E00               	movlw	low (__mediumconst shr (0+16))
  4601  003AC2  6EF8               	movwf	tblptru,c
  4602  003AC4                     	endif
  4603  003AC4  0008               	tblrd		*
  4604  003AC6  50F5               	movf	tablat,w,c
  4605  003AC8  0A78               	xorlw	120
  4606  003ACA  B4D8               	btfsc	status,2,c
  4607  003ACC  EF6A  F01D         	goto	i2u612_41
  4608  003AD0  EF6C  F01D         	goto	i2u612_40
  4609  003AD4                     i2u612_41:
  4610  003AD4  EF82  F01D         	goto	i2l5305
  4611  003AD8                     i2u612_40:
  4612  003AD8  0061  F538  F4D9   	movff	vfpfcnvrt@fmt,fsr2l
  4613  003ADE  0061  F53C  F4DA   	movff	vfpfcnvrt@fmt+1,fsr2h
  4614  003AE4  C4DE F4F6          	movff	postinc2,tblptrl
  4615  003AE8  C4DD F4F7          	movff	postdec2,tblptrh
  4616  003AEC                     	if	0	;tblptru may be non-zero
  4617  003AEC                     	endif
  4618  003AEC                     	if	1	;Program memory is > 0xFFFF, there are 3 active tblptr bytes
  4619  003AEC  0E00               	movlw	low (__mediumconst shr (0+16))
  4620  003AEE  6EF8               	movwf	tblptru,c
  4621  003AF0                     	endif
  4622  003AF0  0008               	tblrd		*
  4623  003AF2  50F5               	movf	tablat,w,c
  4624  003AF4  0A58               	xorlw	88
  4625  003AF6  A4D8               	btfss	status,2,c
  4626  003AF8  EF80  F01D         	goto	i2u613_41
  4627  003AFC  EF82  F01D         	goto	i2u613_40
  4628  003B00                     i2u613_41:
  4629  003B00  EFE0  F01D         	goto	i2l5315
  4630  003B04                     i2u613_40:
  4631  003B04                     i2l5305:
  4632                           
  4633                           ;C:\Program Files\Microchip\xc8\v2.32\pic\sources\c99\common\doprnt.c: 1298:            
      +                           c = (*fmt)[0];
  4634  003B04  0061  F538  F4D9   	movff	vfpfcnvrt@fmt,fsr2l
  4635  003B0A  0061  F53C  F4DA   	movff	vfpfcnvrt@fmt+1,fsr2h
  4636  003B10  C4DE F4F6          	movff	postinc2,tblptrl
  4637  003B14  C4DD F4F7          	movff	postdec2,tblptrh
  4638  003B18                     	if	0	;tblptru may be non-zero
  4639  003B18                     	endif
  4640  003B18                     	if	1	;Program memory is > 0xFFFF, there are 3 active tblptr bytes
  4641  003B18  0E00               	movlw	low (__mediumconst shr (0+16))
  4642  003B1A  6EF8               	movwf	tblptru,c
  4643  003B1C                     	endif
  4644  003B1C  0008               	tblrd		*
  4645  003B1E  0061 F3D4  F5B1    	movff	tablat,vfpfcnvrt@c
  4646  003B24                     
  4647                           ;C:\Program Files\Microchip\xc8\v2.32\pic\sources\c99\common\doprnt.c: 1299:            
      +                           ++*fmt;
  4648  003B24  0061  F538  F4D9   	movff	vfpfcnvrt@fmt,fsr2l
  4649  003B2A  0061  F53C  F4DA   	movff	vfpfcnvrt@fmt+1,fsr2h
  4650  003B30  2ADE               	incf	postinc2,f,c
  4651  003B32  0E00               	movlw	0
  4652  003B34  22DD               	addwfc	postdec2,f,c
  4653  003B36                     
  4654                           ;C:\Program Files\Microchip\xc8\v2.32\pic\sources\c99\common\doprnt.c: 1300:            
      +                           llu = (unsigned long long)(*(unsigned int *)__va_arg(*(unsigned int **)ap, (unsigned in
      +                          t)0));
  4655  003B36  0061  F540  F4D9   	movff	vfpfcnvrt@ap,fsr2l
  4656  003B3C  0061  F544  F4DA   	movff	vfpfcnvrt@ap+1,fsr2h
  4657  003B42  0061 F37C  F552    	movff	indf2,??_vfpfcnvrt
  4658  003B48  0E02               	movlw	2
  4659  003B4A  26DE               	addwf	postinc2,f,c
  4660  003B4C  0061 F37C  F553    	movff	indf2,??_vfpfcnvrt+1
  4661  003B52  0E00               	movlw	0
  4662  003B54  22DD               	addwfc	postdec2,f,c
  4663  003B56  0061  F548  F4D9   	movff	??_vfpfcnvrt,fsr2l
  4664  003B5C  0061  F54C  F4DA   	movff	??_vfpfcnvrt+1,fsr2h
  4665  003B62  0061 F378  F554    	movff	postinc2,??_vfpfcnvrt+2
  4666  003B68  0061 F374  F555    	movff	postdec2,??_vfpfcnvrt+3
  4667  003B6E  C554  F5A2         	movff	??_vfpfcnvrt+2,vfpfcnvrt@llu
  4668  003B72  C555  F5A3         	movff	??_vfpfcnvrt+3,vfpfcnvrt@llu+1
  4669  003B76  0105               	movlb	5	; () banked
  4670  003B78  6BA4               	clrf	(vfpfcnvrt@llu+2)& (0+255),b
  4671  003B7A  6BA5               	clrf	(vfpfcnvrt@llu+3)& (0+255),b
  4672  003B7C  6BA6               	clrf	(vfpfcnvrt@llu+4)& (0+255),b
  4673  003B7E  6BA7               	clrf	(vfpfcnvrt@llu+5)& (0+255),b
  4674  003B80  6BA8               	clrf	(vfpfcnvrt@llu+6)& (0+255),b
  4675  003B82  6BA9               	clrf	(vfpfcnvrt@llu+7)& (0+255),b
  4676  003B84                     
  4677                           ; BSR set to: 5
  4678                           ;C:\Program Files\Microchip\xc8\v2.32\pic\sources\c99\common\doprnt.c: 1302:            
      +                           return xtoa(fp, llu, c);
  4679  003B84  C54C  F51E         	movff	vfpfcnvrt@fp,xtoa@fp
  4680  003B88  C54D  F51F         	movff	vfpfcnvrt@fp+1,xtoa@fp+1
  4681  003B8C  C5A2  F520         	movff	vfpfcnvrt@llu,xtoa@d
  4682  003B90  C5A3  F521         	movff	vfpfcnvrt@llu+1,xtoa@d+1
  4683  003B94  C5A4  F522         	movff	vfpfcnvrt@llu+2,xtoa@d+2
  4684  003B98  C5A5  F523         	movff	vfpfcnvrt@llu+3,xtoa@d+3
  4685  003B9C  C5A6  F524         	movff	vfpfcnvrt@llu+4,xtoa@d+4
  4686  003BA0  C5A7  F525         	movff	vfpfcnvrt@llu+5,xtoa@d+5
  4687  003BA4  C5A8  F526         	movff	vfpfcnvrt@llu+6,xtoa@d+6
  4688  003BA8  C5A9  F527         	movff	vfpfcnvrt@llu+7,xtoa@d+7
  4689  003BAC  C5B1  F528         	movff	vfpfcnvrt@c,xtoa@x
  4690  003BB0  EC94  F024         	call	_xtoa	;wreg free
  4691  003BB4  C51E  F54C         	movff	?_xtoa,?_vfpfcnvrt
  4692  003BB8  C51F  F54D         	movff	?_xtoa+1,?_vfpfcnvrt+1
  4693  003BBC  EF3F  F01E         	goto	i2l1589
  4694  003BC0                     i2l5315:
  4695                           
  4696                           ;C:\Program Files\Microchip\xc8\v2.32\pic\sources\c99\common\doprnt.c: 1372:         if 
      +                          ((*fmt)[0] == '%') {
  4697  003BC0  0061  F538  F4D9   	movff	vfpfcnvrt@fmt,fsr2l
  4698  003BC6  0061  F53C  F4DA   	movff	vfpfcnvrt@fmt+1,fsr2h
  4699  003BCC  C4DE F4F6          	movff	postinc2,tblptrl
  4700  003BD0  C4DD F4F7          	movff	postdec2,tblptrh
  4701  003BD4                     	if	0	;tblptru may be non-zero
  4702  003BD4                     	endif
  4703  003BD4                     	if	1	;Program memory is > 0xFFFF, there are 3 active tblptr bytes
  4704  003BD4  0E00               	movlw	low (__mediumconst shr (0+16))
  4705  003BD6  6EF8               	movwf	tblptru,c
  4706  003BD8                     	endif
  4707  003BD8  0008               	tblrd		*
  4708  003BDA  50F5               	movf	tablat,w,c
  4709  003BDC  0A25               	xorlw	37
  4710  003BDE  A4D8               	btfss	status,2,c
  4711  003BE0  EFF4  F01D         	goto	i2u614_41
  4712  003BE4  EFF6  F01D         	goto	i2u614_40
  4713  003BE8                     i2u614_41:
  4714  003BE8  EF0F  F01E         	goto	i2l5325
  4715  003BEC                     i2u614_40:
  4716  003BEC                     
  4717                           ;C:\Program Files\Microchip\xc8\v2.32\pic\sources\c99\common\doprnt.c: 1373:            
      +                           ++*fmt;
  4718  003BEC  0061  F538  F4D9   	movff	vfpfcnvrt@fmt,fsr2l
  4719  003BF2  0061  F53C  F4DA   	movff	vfpfcnvrt@fmt+1,fsr2h
  4720  003BF8  2ADE               	incf	postinc2,f,c
  4721  003BFA  0E00               	movlw	0
  4722  003BFC  22DD               	addwfc	postdec2,f,c
  4723  003BFE                     
  4724                           ;C:\Program Files\Microchip\xc8\v2.32\pic\sources\c99\common\doprnt.c: 1374:            
      +                           fputc((int)'%', fp);
  4725  003BFE  0E00               	movlw	0
  4726  003C00  6E04               	movwf	(fputc@c+1)^(0+1280),c
  4727  003C02  0E25               	movlw	37
  4728  003C04  6E03               	movwf	fputc@c^(0+1280),c
  4729  003C06  C54C  F505         	movff	vfpfcnvrt@fp,fputc@fp
  4730  003C0A  C54D  F506         	movff	vfpfcnvrt@fp+1,fputc@fp+1
  4731  003C0E  EC7B  F02D         	call	_fputc	;wreg free
  4732  003C12                     i2l5321:
  4733                           
  4734                           ;C:\Program Files\Microchip\xc8\v2.32\pic\sources\c99\common\doprnt.c: 1375:            
      +                           return 1;
  4735  003C12  0E00               	movlw	0
  4736  003C14  6E4D               	movwf	(?_vfpfcnvrt+1)^(0+1280),c
  4737  003C16  0E01               	movlw	1
  4738  003C18  6E4C               	movwf	?_vfpfcnvrt^(0+1280),c
  4739  003C1A  EF3F  F01E         	goto	i2l1589
  4740  003C1E                     i2l5325:
  4741                           
  4742                           ;C:\Program Files\Microchip\xc8\v2.32\pic\sources\c99\common\doprnt.c: 1379:         ++*
      +                          fmt;
  4743  003C1E  0061  F538  F4D9   	movff	vfpfcnvrt@fmt,fsr2l
  4744  003C24  0061  F53C  F4DA   	movff	vfpfcnvrt@fmt+1,fsr2h
  4745  003C2A  2ADE               	incf	postinc2,f,c
  4746  003C2C  0E00               	movlw	0
  4747  003C2E  22DD               	addwfc	postdec2,f,c
  4748  003C30                     
  4749                           ;C:\Program Files\Microchip\xc8\v2.32\pic\sources\c99\common\doprnt.c: 1380:         ret
      +                          urn 0;
  4750  003C30  0E00               	movlw	0
  4751  003C32  6E4D               	movwf	(?_vfpfcnvrt+1)^(0+1280),c
  4752  003C34  0E00               	movlw	0
  4753  003C36  6E4C               	movwf	?_vfpfcnvrt^(0+1280),c
  4754  003C38  EF3F  F01E         	goto	i2l1589
  4755  003C3C                     i2l5331:
  4756                           
  4757                           ;C:\Program Files\Microchip\xc8\v2.32\pic\sources\c99\common\doprnt.c: 1384:     fputc((
      +                          int)(*fmt)[0], fp);
  4758  003C3C  0061  F538  F4D9   	movff	vfpfcnvrt@fmt,fsr2l
  4759  003C42  0061  F53C  F4DA   	movff	vfpfcnvrt@fmt+1,fsr2h
  4760  003C48  C4DE F4F6          	movff	postinc2,tblptrl
  4761  003C4C  C4DD F4F7          	movff	postdec2,tblptrh
  4762  003C50                     	if	0	;tblptru may be non-zero
  4763  003C50                     	endif
  4764  003C50                     	if	1	;Program memory is > 0xFFFF, there are 3 active tblptr bytes
  4765  003C50  0E00               	movlw	low (__mediumconst shr (0+16))
  4766  003C52  6EF8               	movwf	tblptru,c
  4767  003C54                     	endif
  4768  003C54  0008               	tblrd		*
  4769  003C56  50F5               	movf	tablat,w,c
  4770  003C58  6E03               	movwf	fputc@c^(0+1280),c
  4771  003C5A  6A04               	clrf	(fputc@c+1)^(0+1280),c
  4772  003C5C  C54C  F505         	movff	vfpfcnvrt@fp,fputc@fp
  4773  003C60  C54D  F506         	movff	vfpfcnvrt@fp+1,fputc@fp+1
  4774  003C64  EC7B  F02D         	call	_fputc	;wreg free
  4775  003C68                     
  4776                           ;C:\Program Files\Microchip\xc8\v2.32\pic\sources\c99\common\doprnt.c: 1385:     ++*fmt;
  4777  003C68  0061  F538  F4D9   	movff	vfpfcnvrt@fmt,fsr2l
  4778  003C6E  0061  F53C  F4DA   	movff	vfpfcnvrt@fmt+1,fsr2h
  4779  003C74  2ADE               	incf	postinc2,f,c
  4780  003C76  0E00               	movlw	0
  4781  003C78  22DD               	addwfc	postdec2,f,c
  4782  003C7A  EF09  F01E         	goto	i2l5321
  4783  003C7E                     i2l1589:
  4784  003C7E  0012               	return		;funcret
  4785  003C80                     __end_of_vfpfcnvrt:
  4786                           	callstack 0
  4787                           
  4788 ;; *************** function _xtoa *****************
  4789 ;; Defined at:
  4790 ;;		line 645 in file "C:\Program Files\Microchip\xc8\v2.32\pic\sources\c99\common\doprnt.c"
  4791 ;; Parameters:    Size  Location     Type
  4792 ;;  fp              2   29[COMRAM] PTR struct _IO_FILE
  4793 ;;		 -> NULL(0), sprintf@f(6), 
  4794 ;;  d               8   31[COMRAM] unsigned long long 
  4795 ;;  x               1   39[COMRAM] unsigned char 
  4796 ;; Auto vars:     Size  Location     Type
  4797 ;;  n               8   56[COMRAM] unsigned long long 
  4798 ;;  c               2   66[COMRAM] int 
  4799 ;;  i               2   64[COMRAM] int 
  4800 ;;  w               2   54[COMRAM] int 
  4801 ;;  p               2   52[COMRAM] int 
  4802 ;; Return value:  Size  Location     Type
  4803 ;;                  2   29[COMRAM] int 
  4804 ;; Registers used:
  4805 ;;		wreg, fsr1l, fsr1h, fsr2l, fsr2h, status,2, status,0, cstack
  4806 ;; Tracked objects:
  4807 ;;		On entry : 0/0
  4808 ;;		On exit  : 0/0
  4809 ;;		Unchanged: 0/0
  4810 ;; Data sizes:     COMRAM   BANK5   BANK6   BANK7   BANK8   BANK9  BANK10  BANK11  BANK12  BANK13  BANK14  BANK15  BANK1
      +6  BANK17  BANK18  BANK19  BANK20  BANK21  BANK22  BANK23  BANK24  BANK25  BANK26  BANK27  BANK28  BANK29  BANK30  BANK3
      +1  BANK32  BANK33  BANK34  BANK35  BANK36  BANK37
  4811 ;;      Params:        11       0       0       0       0       0       0       0       0       0       0       0       
      +0       0       0       0       0       0       0       0       0       0       0       0       0       0       0       
      +0       0       0       0       0       0       0
  4812 ;;      Locals:        20       0       0       0       0       0       0       0       0       0       0       0       
      +0       0       0       0       0       0       0       0       0       0       0       0       0       0       0       
      +0       0       0       0       0       0       0
  4813 ;;      Temps:          8       0       0       0       0       0       0       0       0       0       0       0       
      +0       0       0       0       0       0       0       0       0       0       0       0       0       0       0       
      +0       0       0       0       0       0       0
  4814 ;;      Totals:        39       0       0       0       0       0       0       0       0       0       0       0       
      +0       0       0       0       0       0       0       0       0       0       0       0       0       0       0       
      +0       0       0       0       0       0       0
  4815 ;;Total ram usage:       39 bytes
  4816 ;; Hardware stack levels used: 1
  4817 ;; Hardware stack levels required when called: 5
  4818 ;; This function calls:
  4819 ;;		_isalpha
  4820 ;;		_isupper
  4821 ;;		_pad
  4822 ;;		_toupper
  4823 ;; This function is called by:
  4824 ;;		_vfpfcnvrt
  4825 ;; This function uses a non-reentrant model
  4826 ;;
  4827                           
  4828                           	psect	text29
  4829  004928                     __ptext29:
  4830                           	callstack 0
  4831  004928                     _xtoa:
  4832                           	callstack 113
  4833  004928                     
  4834                           ;C:\Program Files\Microchip\xc8\v2.32\pic\sources\c99\common\doprnt.c: 645: static int x
      +                          toa(FILE *fp, unsigned long long d, char x);C:\Program Files\Microchip\xc8\v2.32\pic\sou
      +                          rces\c99\common\doprnt.c: 646: {;C:\Program Files\Microchip\xc8\v2.32\pic\sources\c99\co
      +                          mmon\doprnt.c: 647:     int c, i, p, w;;C:\Program Files\Microchip\xc8\v2.32\pic\sources
      +                          \c99\common\doprnt.c: 648:     unsigned long long n;;C:\Program Files\Microchip\xc8\v2.3
      +                          2\pic\sources\c99\common\doprnt.c: 651:     if (!(prec < 0)) {
  4835  004928  0105               	movlb	5	; () banked
  4836  00492A  BFD9               	btfsc	(_prec+1)& (0+255),7,b
  4837  00492C  EF9A  F024         	goto	i2u558_41
  4838  004930  EF9C  F024         	goto	i2u558_40
  4839  004934                     i2u558_41:
  4840  004934  EF9D  F024         	goto	i2l5031
  4841  004938                     i2u558_40:
  4842  004938                     
  4843                           ; BSR set to: 5
  4844                           ;C:\Program Files\Microchip\xc8\v2.32\pic\sources\c99\common\doprnt.c: 652:         flag
      +                          s &= ~(1 << 1);
  4845  004938  93DA               	bcf	_flags& (0+255),1,b
  4846  00493A                     i2l5031:
  4847                           
  4848                           ; BSR set to: 5
  4849                           ;C:\Program Files\Microchip\xc8\v2.32\pic\sources\c99\common\doprnt.c: 654:     p = (0 <
      +                           prec) ? prec : 1;
  4850  00493A  BFD9               	btfsc	(_prec+1)& (0+255),7,b
  4851  00493C  EFAA  F024         	goto	i2u559_40
  4852  004940  51D9               	movf	(_prec+1)& (0+255),w,b
  4853  004942  E106               	bnz	i2u559_41
  4854  004944  05D8               	decf	_prec& (0+255),w,b
  4855  004946  B0D8               	btfsc	status,0,c
  4856  004948  EFA8  F024         	goto	i2u559_41
  4857  00494C  EFAA  F024         	goto	i2u559_40
  4858  004950                     i2u559_41:
  4859  004950  EFB0  F024         	goto	i2l1525
  4860  004954                     i2u559_40:
  4861  004954                     
  4862                           ; BSR set to: 5
  4863  004954  0E00               	movlw	0
  4864  004956  6E36               	movwf	(xtoa@p+1)^(0+1280),c
  4865  004958  0E01               	movlw	1
  4866  00495A  6E35               	movwf	xtoa@p^(0+1280),c
  4867  00495C  EFB4  F024         	goto	i2l1527
  4868  004960                     i2l1525:
  4869                           
  4870                           ; BSR set to: 5
  4871  004960  C5D8  F535         	movff	_prec,xtoa@p
  4872  004964  C5D9  F536         	movff	_prec+1,xtoa@p+1
  4873  004968                     i2l1527:
  4874                           
  4875                           ; BSR set to: 5
  4876                           ;C:\Program Files\Microchip\xc8\v2.32\pic\sources\c99\common\doprnt.c: 655:     w = widt
      +                          h;
  4877  004968  C5D6  F537         	movff	_width,xtoa@w
  4878  00496C  C5D7  F538         	movff	_width+1,xtoa@w+1
  4879                           
  4880                           ;C:\Program Files\Microchip\xc8\v2.32\pic\sources\c99\common\doprnt.c: 656:     if (flag
      +                          s & (1 << 4)) {
  4881  004970  A9DA               	btfss	_flags& (0+255),4,b
  4882  004972  EFBD  F024         	goto	i2u560_41
  4883  004976  EFBF  F024         	goto	i2u560_40
  4884  00497A                     i2u560_41:
  4885  00497A  EFC3  F024         	goto	i2l5037
  4886  00497E                     i2u560_40:
  4887  00497E                     
  4888                           ; BSR set to: 5
  4889                           ;C:\Program Files\Microchip\xc8\v2.32\pic\sources\c99\common\doprnt.c: 657:         w -=
      +                           2;
  4890  00497E  0EFE               	movlw	254
  4891  004980  2637               	addwf	xtoa@w^(0+1280),f,c
  4892  004982  0EFF               	movlw	255
  4893  004984  2238               	addwfc	(xtoa@w+1)^(0+1280),f,c
  4894  004986                     i2l5037:
  4895                           
  4896                           ; BSR set to: 5
  4897                           ;C:\Program Files\Microchip\xc8\v2.32\pic\sources\c99\common\doprnt.c: 661:     n = d;
  4898  004986  C520  F539         	movff	xtoa@d,xtoa@n
  4899  00498A  C521  F53A         	movff	xtoa@d+1,xtoa@n+1
  4900  00498E  C522  F53B         	movff	xtoa@d+2,xtoa@n+2
  4901  004992  C523  F53C         	movff	xtoa@d+3,xtoa@n+3
  4902  004996  C524  F53D         	movff	xtoa@d+4,xtoa@n+4
  4903  00499A  C525  F53E         	movff	xtoa@d+5,xtoa@n+5
  4904  00499E  C526  F53F         	movff	xtoa@d+6,xtoa@n+6
  4905  0049A2  C527  F540         	movff	xtoa@d+7,xtoa@n+7
  4906  0049A6                     
  4907                           ; BSR set to: 5
  4908                           ;C:\Program Files\Microchip\xc8\v2.32\pic\sources\c99\common\doprnt.c: 662:     i = size
      +                          of(dbuf) - 1;
  4909  0049A6  0E00               	movlw	0
  4910  0049A8  6E42               	movwf	(xtoa@i+1)^(0+1280),c
  4911  0049AA  0E4F               	movlw	79
  4912  0049AC  6E41               	movwf	xtoa@i^(0+1280),c
  4913  0049AE                     
  4914                           ; BSR set to: 5
  4915                           ;C:\Program Files\Microchip\xc8\v2.32\pic\sources\c99\common\doprnt.c: 663:     dbuf[i] 
      +                          = '\0';
  4916  0049AE  0E00               	movlw	0
  4917  0049B0  0106               	movlb	6	; () banked
  4918  0049B2  6F51               	movwf	(_dbuf+79)& (0+255),b
  4919                           
  4920                           ;C:\Program Files\Microchip\xc8\v2.32\pic\sources\c99\common\doprnt.c: 664:     while (!
      +                          (i < 2) && (n || (0 < p) || ((0 < w) && (flags & (1 << 1))))) {
  4921  0049B4  EF90  F025         	goto	i2l5073
  4922  0049B8                     i2l5043:
  4923                           
  4924                           ;C:\Program Files\Microchip\xc8\v2.32\pic\sources\c99\common\doprnt.c: 665:         --i;
  4925  0049B8  0641               	decf	xtoa@i^(0+1280),f,c
  4926  0049BA  A0D8               	btfss	status,0,c
  4927  0049BC  0642               	decf	(xtoa@i+1)^(0+1280),f,c
  4928  0049BE                     
  4929                           ;C:\Program Files\Microchip\xc8\v2.32\pic\sources\c99\common\doprnt.c: 666:         c = 
      +                          n & 0x0f;
  4930  0049BE  0E0F               	movlw	15
  4931  0049C0  1439               	andwf	xtoa@n^(0+1280),w,c
  4932  0049C2  6E43               	movwf	xtoa@c^(0+1280),c
  4933  0049C4  6A44               	clrf	(xtoa@c+1)^(0+1280),c
  4934  0049C6                     
  4935                           ;C:\Program Files\Microchip\xc8\v2.32\pic\sources\c99\common\doprnt.c: 667:         c = 
      +                          (c < 10) ? (int)'0' + c : (int)'a' + (c - 10);
  4936  0049C6  BE44               	btfsc	(xtoa@c+1)^(0+1280),7,c
  4937  0049C8  EFEF  F024         	goto	i2u561_41
  4938  0049CC  5044               	movf	(xtoa@c+1)^(0+1280),w,c
  4939  0049CE  E109               	bnz	i2u561_40
  4940  0049D0  0E0A               	movlw	10
  4941  0049D2  5C43               	subwf	xtoa@c^(0+1280),w,c
  4942  0049D4  A0D8               	btfss	status,0,c
  4943  0049D6  EFEF  F024         	goto	i2u561_41
  4944  0049DA  EFF1  F024         	goto	i2u561_40
  4945  0049DE                     i2u561_41:
  4946  0049DE  EFF9  F024         	goto	i2l5051
  4947  0049E2                     i2u561_40:
  4948  0049E2  0E57               	movlw	87
  4949  0049E4  2443               	addwf	xtoa@c^(0+1280),w,c
  4950  0049E6  6E43               	movwf	xtoa@c^(0+1280),c
  4951  0049E8  0E00               	movlw	0
  4952  0049EA  2044               	addwfc	(xtoa@c+1)^(0+1280),w,c
  4953  0049EC  6E44               	movwf	(xtoa@c+1)^(0+1280),c
  4954  0049EE  EFFF  F024         	goto	i2l1534
  4955  0049F2                     i2l5051:
  4956  0049F2  0E30               	movlw	48
  4957  0049F4  2443               	addwf	xtoa@c^(0+1280),w,c
  4958  0049F6  6E43               	movwf	xtoa@c^(0+1280),c
  4959  0049F8  0E00               	movlw	0
  4960  0049FA  2044               	addwfc	(xtoa@c+1)^(0+1280),w,c
  4961  0049FC  6E44               	movwf	(xtoa@c+1)^(0+1280),c
  4962  0049FE                     i2l1534:
  4963  0049FE  0EBF               	movlw	191
  4964  004A00  6E29               	movwf	??_xtoa^(0+1280),c
  4965  004A02  0EFF               	movlw	255
  4966  004A04  6E2A               	movwf	(??_xtoa+1)^(0+1280),c
  4967  004A06  5028               	movf	xtoa@x^(0+1280),w,c
  4968  004A08  6E2B               	movwf	(??_xtoa+2)^(0+1280),c
  4969  004A0A  6A2C               	clrf	(??_xtoa+3)^(0+1280),c
  4970  004A0C  5029               	movf	??_xtoa^(0+1280),w,c
  4971  004A0E  262B               	addwf	(??_xtoa+2)^(0+1280),f,c
  4972  004A10  502A               	movf	(??_xtoa+1)^(0+1280),w,c
  4973  004A12  222C               	addwfc	(??_xtoa+3)^(0+1280),f,c
  4974  004A14  502C               	movf	(??_xtoa+3)^(0+1280),w,c
  4975  004A16  E10A               	bnz	i2u562_40
  4976  004A18  0E1A               	movlw	26
  4977  004A1A  5C2B               	subwf	(??_xtoa+2)^(0+1280),w,c
  4978  004A1C  A0D8               	btfss	status,0,c
  4979  004A1E  EF13  F025         	goto	i2u562_41
  4980  004A22  EF16  F025         	goto	i2u562_40
  4981  004A26                     i2u562_41:
  4982  004A26  0E01               	movlw	1
  4983  004A28  EF17  F025         	goto	i2u563_40
  4984  004A2C                     i2u562_40:
  4985  004A2C  0E00               	movlw	0
  4986  004A2E                     i2u563_40:
  4987  004A2E  6E31               	movwf	_xtoa$1881^(0+1280),c
  4988  004A30  6A32               	clrf	(_xtoa$1881+1)^(0+1280),c
  4989  004A32  5031               	movf	_xtoa$1881^(0+1280),w,c
  4990  004A34  1032               	iorwf	(_xtoa$1881+1)^(0+1280),w,c
  4991  004A36  B4D8               	btfsc	status,2,c
  4992  004A38  EF20  F025         	goto	i2u564_41
  4993  004A3C  EF22  F025         	goto	i2u564_40
  4994  004A40                     i2u564_41:
  4995  004A40  EF52  F025         	goto	i2l5065
  4996  004A44                     i2u564_40:
  4997  004A44  0E9F               	movlw	159
  4998  004A46  6E29               	movwf	??_xtoa^(0+1280),c
  4999  004A48  0EFF               	movlw	255
  5000  004A4A  6E2A               	movwf	(??_xtoa+1)^(0+1280),c
  5001  004A4C  0E20               	movlw	32
  5002  004A4E  1043               	iorwf	xtoa@c^(0+1280),w,c
  5003  004A50  6E2B               	movwf	(??_xtoa+2)^(0+1280),c
  5004  004A52  0E00               	movlw	0
  5005  004A54  1044               	iorwf	(xtoa@c+1)^(0+1280),w,c
  5006  004A56  6E2C               	movwf	(??_xtoa+3)^(0+1280),c
  5007  004A58  5029               	movf	??_xtoa^(0+1280),w,c
  5008  004A5A  262B               	addwf	(??_xtoa+2)^(0+1280),f,c
  5009  004A5C  502A               	movf	(??_xtoa+1)^(0+1280),w,c
  5010  004A5E  222C               	addwfc	(??_xtoa+3)^(0+1280),f,c
  5011  004A60  502C               	movf	(??_xtoa+3)^(0+1280),w,c
  5012  004A62  E10A               	bnz	i2u565_40
  5013  004A64  0E1A               	movlw	26
  5014  004A66  5C2B               	subwf	(??_xtoa+2)^(0+1280),w,c
  5015  004A68  A0D8               	btfss	status,0,c
  5016  004A6A  EF39  F025         	goto	i2u565_41
  5017  004A6E  EF3C  F025         	goto	i2u565_40
  5018  004A72                     i2u565_41:
  5019  004A72  0E01               	movlw	1
  5020  004A74  EF3D  F025         	goto	i2u566_40
  5021  004A78                     i2u565_40:
  5022  004A78  0E00               	movlw	0
  5023  004A7A                     i2u566_40:
  5024  004A7A  6E33               	movwf	_xtoa$1882^(0+1280),c
  5025  004A7C  6A34               	clrf	(_xtoa$1882+1)^(0+1280),c
  5026  004A7E  5033               	movf	_xtoa$1882^(0+1280),w,c
  5027  004A80  1034               	iorwf	(_xtoa$1882+1)^(0+1280),w,c
  5028  004A82  B4D8               	btfsc	status,2,c
  5029  004A84  EF46  F025         	goto	i2u567_41
  5030  004A88  EF48  F025         	goto	i2u567_40
  5031  004A8C                     i2u567_41:
  5032  004A8C  EF52  F025         	goto	i2l5065
  5033  004A90                     i2u567_40:
  5034  004A90                     
  5035                           ;C:\Program Files\Microchip\xc8\v2.32\pic\sources\c99\common\doprnt.c: 669:             
      +                          c = toupper(c);
  5036  004A90  C543  F507         	movff	xtoa@c,toupper@c
  5037  004A94  C544  F508         	movff	xtoa@c+1,toupper@c+1
  5038  004A98  ECAB  F031         	call	_toupper	;wreg free
  5039  004A9C  C507  F543         	movff	?_toupper,xtoa@c
  5040  004AA0  C508  F544         	movff	?_toupper+1,xtoa@c+1
  5041  004AA4                     i2l5065:
  5042                           
  5043                           ;C:\Program Files\Microchip\xc8\v2.32\pic\sources\c99\common\doprnt.c: 671:         dbuf
      +                          [i] = (char)c;
  5044  004AA4  0E02               	movlw	low _dbuf
  5045  004AA6  2441               	addwf	xtoa@i^(0+1280),w,c
  5046  004AA8  6ED9               	movwf	fsr2l,c
  5047  004AAA  0E06               	movlw	high _dbuf
  5048  004AAC  2042               	addwfc	(xtoa@i+1)^(0+1280),w,c
  5049  004AAE  6EDA               	movwf	fsr2h,c
  5050  004AB0  0061  F50C  F4DF   	movff	xtoa@c,indf2
  5051  004AB6                     
  5052                           ;C:\Program Files\Microchip\xc8\v2.32\pic\sources\c99\common\doprnt.c: 672:         --p;
  5053  004AB6  0635               	decf	xtoa@p^(0+1280),f,c
  5054  004AB8  A0D8               	btfss	status,0,c
  5055  004ABA  0636               	decf	(xtoa@p+1)^(0+1280),f,c
  5056  004ABC                     
  5057                           ;C:\Program Files\Microchip\xc8\v2.32\pic\sources\c99\common\doprnt.c: 673:         --w;
  5058  004ABC  0637               	decf	xtoa@w^(0+1280),f,c
  5059  004ABE  A0D8               	btfss	status,0,c
  5060  004AC0  0638               	decf	(xtoa@w+1)^(0+1280),f,c
  5061  004AC2                     
  5062                           ;C:\Program Files\Microchip\xc8\v2.32\pic\sources\c99\common\doprnt.c: 674:         n = 
      +                          n >> 4;
  5063  004AC2  C539  F529         	movff	xtoa@n,??_xtoa
  5064  004AC6  C53A  F52A         	movff	xtoa@n+1,??_xtoa+1
  5065  004ACA  C53B  F52B         	movff	xtoa@n+2,??_xtoa+2
  5066  004ACE  C53C  F52C         	movff	xtoa@n+3,??_xtoa+3
  5067  004AD2  C53D  F52D         	movff	xtoa@n+4,??_xtoa+4
  5068  004AD6  C53E  F52E         	movff	xtoa@n+5,??_xtoa+5
  5069  004ADA  C53F  F52F         	movff	xtoa@n+6,??_xtoa+6
  5070  004ADE  C540  F530         	movff	xtoa@n+7,??_xtoa+7
  5071  004AE2  0E05               	movlw	5
  5072  004AE4  EF7D  F025         	goto	i2u568_40
  5073  004AE8                     i2u568_45:
  5074  004AE8  90D8               	bcf	status,0,c
  5075  004AEA  3230               	rrcf	(??_xtoa+7)^(0+1280),f,c
  5076  004AEC  322F               	rrcf	(??_xtoa+6)^(0+1280),f,c
  5077  004AEE  322E               	rrcf	(??_xtoa+5)^(0+1280),f,c
  5078  004AF0  322D               	rrcf	(??_xtoa+4)^(0+1280),f,c
  5079  004AF2  322C               	rrcf	(??_xtoa+3)^(0+1280),f,c
  5080  004AF4  322B               	rrcf	(??_xtoa+2)^(0+1280),f,c
  5081  004AF6  322A               	rrcf	(??_xtoa+1)^(0+1280),f,c
  5082  004AF8  3229               	rrcf	??_xtoa^(0+1280),f,c
  5083  004AFA                     i2u568_40:
  5084  004AFA  2EE8               	decfsz	wreg,f,c
  5085  004AFC  EF74  F025         	goto	i2u568_45
  5086  004B00  C529  F539         	movff	??_xtoa,xtoa@n
  5087  004B04  C52A  F53A         	movff	??_xtoa+1,xtoa@n+1
  5088  004B08  C52B  F53B         	movff	??_xtoa+2,xtoa@n+2
  5089  004B0C  C52C  F53C         	movff	??_xtoa+3,xtoa@n+3
  5090  004B10  C52D  F53D         	movff	??_xtoa+4,xtoa@n+4
  5091  004B14  C52E  F53E         	movff	??_xtoa+5,xtoa@n+5
  5092  004B18  C52F  F53F         	movff	??_xtoa+6,xtoa@n+6
  5093  004B1C  C530  F540         	movff	??_xtoa+7,xtoa@n+7
  5094  004B20                     i2l5073:
  5095                           
  5096                           ;C:\Program Files\Microchip\xc8\v2.32\pic\sources\c99\common\doprnt.c: 664:     while (!
      +                          (i < 2) && (n || (0 < p) || ((0 < w) && (flags & (1 << 1))))) {
  5097  004B20  BE42               	btfsc	(xtoa@i+1)^(0+1280),7,c
  5098  004B22  EF9C  F025         	goto	i2u569_41
  5099  004B26  5042               	movf	(xtoa@i+1)^(0+1280),w,c
  5100  004B28  E109               	bnz	i2u569_40
  5101  004B2A  0E02               	movlw	2
  5102  004B2C  5C41               	subwf	xtoa@i^(0+1280),w,c
  5103  004B2E  A0D8               	btfss	status,0,c
  5104  004B30  EF9C  F025         	goto	i2u569_41
  5105  004B34  EF9E  F025         	goto	i2u569_40
  5106  004B38                     i2u569_41:
  5107  004B38  EFCF  F025         	goto	i2l1548
  5108  004B3C                     i2u569_40:
  5109  004B3C  5039               	movf	xtoa@n^(0+1280),w,c
  5110  004B3E  103A               	iorwf	(xtoa@n+1)^(0+1280),w,c
  5111  004B40  103B               	iorwf	(xtoa@n+2)^(0+1280),w,c
  5112  004B42  103C               	iorwf	(xtoa@n+3)^(0+1280),w,c
  5113  004B44  103D               	iorwf	(xtoa@n+4)^(0+1280),w,c
  5114  004B46  103E               	iorwf	(xtoa@n+5)^(0+1280),w,c
  5115  004B48  103F               	iorwf	(xtoa@n+6)^(0+1280),w,c
  5116  004B4A  1040               	iorwf	(xtoa@n+7)^(0+1280),w,c
  5117  004B4C  A4D8               	btfss	status,2,c
  5118  004B4E  EFAB  F025         	goto	i2u570_41
  5119  004B52  EFAD  F025         	goto	i2u570_40
  5120  004B56                     i2u570_41:
  5121  004B56  EFDC  F024         	goto	i2l5043
  5122  004B5A                     i2u570_40:
  5123  004B5A  BE36               	btfsc	(xtoa@p+1)^(0+1280),7,c
  5124  004B5C  EFBA  F025         	goto	i2u571_40
  5125  004B60  5036               	movf	(xtoa@p+1)^(0+1280),w,c
  5126  004B62  E106               	bnz	i2u571_41
  5127  004B64  0435               	decf	xtoa@p^(0+1280),w,c
  5128  004B66  B0D8               	btfsc	status,0,c
  5129  004B68  EFB8  F025         	goto	i2u571_41
  5130  004B6C  EFBA  F025         	goto	i2u571_40
  5131  004B70                     i2u571_41:
  5132  004B70  EFDC  F024         	goto	i2l5043
  5133  004B74                     i2u571_40:
  5134  004B74  BE38               	btfsc	(xtoa@w+1)^(0+1280),7,c
  5135  004B76  EFC5  F025         	goto	i2u572_41
  5136  004B7A  5038               	movf	(xtoa@w+1)^(0+1280),w,c
  5137  004B7C  E108               	bnz	i2u572_40
  5138  004B7E  0437               	decf	xtoa@w^(0+1280),w,c
  5139  004B80  A0D8               	btfss	status,0,c
  5140  004B82  EFC5  F025         	goto	i2u572_41
  5141  004B86  EFC7  F025         	goto	i2u572_40
  5142  004B8A                     i2u572_41:
  5143  004B8A  EFCF  F025         	goto	i2l1548
  5144  004B8E                     i2u572_40:
  5145  004B8E  0105               	movlb	5	; () banked
  5146  004B90  B3DA               	btfsc	_flags& (0+255),1,b
  5147  004B92  EFCD  F025         	goto	i2u573_41
  5148  004B96  EFCF  F025         	goto	i2u573_40
  5149  004B9A                     i2u573_41:
  5150  004B9A  EFDC  F024         	goto	i2l5043
  5151  004B9E                     i2u573_40:
  5152  004B9E                     i2l1548:
  5153                           
  5154                           ;C:\Program Files\Microchip\xc8\v2.32\pic\sources\c99\common\doprnt.c: 678:     if (flag
      +                          s & (1 << 4)) {
  5155  004B9E  0105               	movlb	5	; () banked
  5156  004BA0  A9DA               	btfss	_flags& (0+255),4,b
  5157  004BA2  EFD5  F025         	goto	i2u574_41
  5158  004BA6  EFD7  F025         	goto	i2u574_40
  5159  004BAA                     i2u574_41:
  5160  004BAA  EFEE  F025         	goto	i2l5089
  5161  004BAE                     i2u574_40:
  5162  004BAE                     
  5163                           ; BSR set to: 5
  5164                           ;C:\Program Files\Microchip\xc8\v2.32\pic\sources\c99\common\doprnt.c: 679:         --i;
  5165  004BAE  0641               	decf	xtoa@i^(0+1280),f,c
  5166  004BB0  A0D8               	btfss	status,0,c
  5167  004BB2  0642               	decf	(xtoa@i+1)^(0+1280),f,c
  5168  004BB4                     
  5169                           ; BSR set to: 5
  5170                           ;C:\Program Files\Microchip\xc8\v2.32\pic\sources\c99\common\doprnt.c: 680:         dbuf
      +                          [i] = x;
  5171  004BB4  0E02               	movlw	low _dbuf
  5172  004BB6  2441               	addwf	xtoa@i^(0+1280),w,c
  5173  004BB8  6ED9               	movwf	fsr2l,c
  5174  004BBA  0E06               	movlw	high _dbuf
  5175  004BBC  2042               	addwfc	(xtoa@i+1)^(0+1280),w,c
  5176  004BBE  6EDA               	movwf	fsr2h,c
  5177  004BC0  0061  F4A0  F4DF   	movff	xtoa@x,indf2
  5178  004BC6                     
  5179                           ; BSR set to: 5
  5180                           ;C:\Program Files\Microchip\xc8\v2.32\pic\sources\c99\common\doprnt.c: 681:         --i;
  5181  004BC6  0641               	decf	xtoa@i^(0+1280),f,c
  5182  004BC8  A0D8               	btfss	status,0,c
  5183  004BCA  0642               	decf	(xtoa@i+1)^(0+1280),f,c
  5184                           
  5185                           ;C:\Program Files\Microchip\xc8\v2.32\pic\sources\c99\common\doprnt.c: 682:         dbuf
      +                          [i] = '0';
  5186  004BCC  0E02               	movlw	low _dbuf
  5187  004BCE  2441               	addwf	xtoa@i^(0+1280),w,c
  5188  004BD0  6ED9               	movwf	fsr2l,c
  5189  004BD2  0E06               	movlw	high _dbuf
  5190  004BD4  2042               	addwfc	(xtoa@i+1)^(0+1280),w,c
  5191  004BD6  6EDA               	movwf	fsr2h,c
  5192  004BD8  0E30               	movlw	48
  5193  004BDA  6EDF               	movwf	indf2,c
  5194  004BDC                     i2l5089:
  5195                           
  5196                           ; BSR set to: 5
  5197                           ;C:\Program Files\Microchip\xc8\v2.32\pic\sources\c99\common\doprnt.c: 686:     return p
      +                          ad(fp, &dbuf[i], w);
  5198  004BDC  C51E  F513         	movff	xtoa@fp,pad@fp
  5199  004BE0  C51F  F514         	movff	xtoa@fp+1,pad@fp+1
  5200  004BE4  0E02               	movlw	low _dbuf
  5201  004BE6  2441               	addwf	xtoa@i^(0+1280),w,c
  5202  004BE8  6E15               	movwf	pad@buf^(0+1280),c
  5203  004BEA  0E06               	movlw	high _dbuf
  5204  004BEC  2042               	addwfc	(xtoa@i+1)^(0+1280),w,c
  5205  004BEE  6E16               	movwf	(pad@buf+1)^(0+1280),c
  5206  004BF0  C537  F517         	movff	xtoa@w,pad@p
  5207  004BF4  C538  F518         	movff	xtoa@w+1,pad@p+1
  5208  004BF8  EC4F  F02E         	call	_pad	;wreg free
  5209  004BFC  C513  F51E         	movff	?_pad,?_xtoa
  5210  004C00  C514  F51F         	movff	?_pad+1,?_xtoa+1
  5211  004C04  0012               	return		;funcret
  5212  004C06                     __end_of_xtoa:
  5213                           	callstack 0
  5214                           
  5215 ;; *************** function _toupper *****************
  5216 ;; Defined at:
  5217 ;;		line 4 in file "C:\Program Files\Microchip\xc8\v2.32\pic\sources\c99\common\toupper.c"
  5218 ;; Parameters:    Size  Location     Type
  5219 ;;  c               2    6[COMRAM] int 
  5220 ;; Auto vars:     Size  Location     Type
  5221 ;;		None
  5222 ;; Return value:  Size  Location     Type
  5223 ;;                  2    6[COMRAM] int 
  5224 ;; Registers used:
  5225 ;;		wreg, status,2, status,0
  5226 ;; Tracked objects:
  5227 ;;		On entry : 0/0
  5228 ;;		On exit  : 0/0
  5229 ;;		Unchanged: 0/0
  5230 ;; Data sizes:     COMRAM   BANK5   BANK6   BANK7   BANK8   BANK9  BANK10  BANK11  BANK12  BANK13  BANK14  BANK15  BANK1
      +6  BANK17  BANK18  BANK19  BANK20  BANK21  BANK22  BANK23  BANK24  BANK25  BANK26  BANK27  BANK28  BANK29  BANK30  BANK3
      +1  BANK32  BANK33  BANK34  BANK35  BANK36  BANK37
  5231 ;;      Params:         2       0       0       0       0       0       0       0       0       0       0       0       
      +0       0       0       0       0       0       0       0       0       0       0       0       0       0       0       
      +0       0       0       0       0       0       0
  5232 ;;      Locals:         2       0       0       0       0       0       0       0       0       0       0       0       
      +0       0       0       0       0       0       0       0       0       0       0       0       0       0       0       
      +0       0       0       0       0       0       0
  5233 ;;      Temps:          4       0       0       0       0       0       0       0       0       0       0       0       
      +0       0       0       0       0       0       0       0       0       0       0       0       0       0       0       
      +0       0       0       0       0       0       0
  5234 ;;      Totals:         8       0       0       0       0       0       0       0       0       0       0       0       
      +0       0       0       0       0       0       0       0       0       0       0       0       0       0       0       
      +0       0       0       0       0       0       0
  5235 ;;Total ram usage:        8 bytes
  5236 ;; Hardware stack levels used: 1
  5237 ;; Hardware stack levels required when called: 1
  5238 ;; This function calls:
  5239 ;;		_islower
  5240 ;; This function is called by:
  5241 ;;		_xtoa
  5242 ;; This function uses a non-reentrant model
  5243 ;;
  5244                           
  5245                           	psect	text30
  5246  006356                     __ptext30:
  5247                           	callstack 0
  5248  006356                     _toupper:
  5249                           	callstack 116
  5250  006356  0E9F               	movlw	159
  5251  006358  6E09               	movwf	??_toupper^(0+1280),c
  5252  00635A  0EFF               	movlw	255
  5253  00635C  6E0A               	movwf	(??_toupper+1)^(0+1280),c
  5254  00635E  C507  F50B         	movff	toupper@c,??_toupper+2
  5255  006362  C508  F50C         	movff	toupper@c+1,??_toupper+3
  5256  006366  5009               	movf	??_toupper^(0+1280),w,c
  5257  006368  260B               	addwf	(??_toupper+2)^(0+1280),f,c
  5258  00636A  500A               	movf	(??_toupper+1)^(0+1280),w,c
  5259  00636C  220C               	addwfc	(??_toupper+3)^(0+1280),f,c
  5260  00636E  500C               	movf	(??_toupper+3)^(0+1280),w,c
  5261  006370  E10A               	bnz	i2u481_40
  5262  006372  0E1A               	movlw	26
  5263  006374  5C0B               	subwf	(??_toupper+2)^(0+1280),w,c
  5264  006376  A0D8               	btfss	status,0,c
  5265  006378  EFC0  F031         	goto	i2u481_41
  5266  00637C  EFC3  F031         	goto	i2u481_40
  5267  006380                     i2u481_41:
  5268  006380  0E01               	movlw	1
  5269  006382  EFC4  F031         	goto	i2u482_40
  5270  006386                     i2u481_40:
  5271  006386  0E00               	movlw	0
  5272  006388                     i2u482_40:
  5273  006388  6E0D               	movwf	_toupper$2062^(0+1280),c
  5274  00638A  6A0E               	clrf	(_toupper$2062+1)^(0+1280),c
  5275  00638C  500D               	movf	_toupper$2062^(0+1280),w,c
  5276  00638E  100E               	iorwf	(_toupper$2062+1)^(0+1280),w,c
  5277  006390  B4D8               	btfsc	status,2,c
  5278  006392  EFCD  F031         	goto	i2u483_41
  5279  006396  EFCF  F031         	goto	i2u483_40
  5280  00639A                     i2u483_41:
  5281  00639A  EFD5  F031         	goto	i2l1755
  5282  00639E                     i2u483_40:
  5283  00639E  0E5F               	movlw	95
  5284  0063A0  1407               	andwf	toupper@c^(0+1280),w,c
  5285  0063A2  6E07               	movwf	?_toupper^(0+1280),c
  5286  0063A4  6A08               	clrf	(?_toupper+1)^(0+1280),c
  5287  0063A6  EFD9  F031         	goto	i2l1760
  5288  0063AA                     i2l1755:
  5289  0063AA  C507  F507         	movff	toupper@c,?_toupper
  5290  0063AE  C508  F508         	movff	toupper@c+1,?_toupper+1
  5291  0063B2                     i2l1760:
  5292  0063B2  0012               	return		;funcret
  5293  0063B4                     __end_of_toupper:
  5294                           	callstack 0
  5295                           
  5296 ;; *************** function _islower *****************
  5297 ;; Defined at:
  5298 ;;		line 5 in file "C:\Program Files\Microchip\xc8\v2.32\pic\sources\c99\common\islower.c"
  5299 ;; Parameters:    Size  Location     Type
  5300 ;;  c               2    0[COMRAM] int 
  5301 ;; Auto vars:     Size  Location     Type
  5302 ;;		None
  5303 ;; Return value:  Size  Location     Type
  5304 ;;                  2    0[COMRAM] int 
  5305 ;; Registers used:
  5306 ;;		wreg, status,2, status,0
  5307 ;; Tracked objects:
  5308 ;;		On entry : 0/0
  5309 ;;		On exit  : 0/0
  5310 ;;		Unchanged: 0/0
  5311 ;; Data sizes:     COMRAM   BANK5   BANK6   BANK7   BANK8   BANK9  BANK10  BANK11  BANK12  BANK13  BANK14  BANK15  BANK1
      +6  BANK17  BANK18  BANK19  BANK20  BANK21  BANK22  BANK23  BANK24  BANK25  BANK26  BANK27  BANK28  BANK29  BANK30  BANK3
      +1  BANK32  BANK33  BANK34  BANK35  BANK36  BANK37
  5312 ;;      Params:         2       0       0       0       0       0       0       0       0       0       0       0       
      +0       0       0       0       0       0       0       0       0       0       0       0       0       0       0       
      +0       0       0       0       0       0       0
  5313 ;;      Locals:         0       0       0       0       0       0       0       0       0       0       0       0       
      +0       0       0       0       0       0       0       0       0       0       0       0       0       0       0       
      +0       0       0       0       0       0       0
  5314 ;;      Temps:          4       0       0       0       0       0       0       0       0       0       0       0       
      +0       0       0       0       0       0       0       0       0       0       0       0       0       0       0       
      +0       0       0       0       0       0       0
  5315 ;;      Totals:         6       0       0       0       0       0       0       0       0       0       0       0       
      +0       0       0       0       0       0       0       0       0       0       0       0       0       0       0       
      +0       0       0       0       0       0       0
  5316 ;;Total ram usage:        6 bytes
  5317 ;; Hardware stack levels used: 1
  5318 ;; This function calls:
  5319 ;;		Nothing
  5320 ;; This function is called by:
  5321 ;;		_toupper
  5322 ;; This function uses a non-reentrant model
  5323 ;;
  5324                           
  5325                           	psect	text31
  5326  006694                     __ptext31:
  5327                           	callstack 0
  5328  006694                     _islower:
  5329                           	callstack 116
  5330  006694  0E9F               	movlw	159
  5331  006696  6E03               	movwf	??_islower^(0+1280),c
  5332  006698  0EFF               	movlw	255
  5333  00669A  6E04               	movwf	(??_islower+1)^(0+1280),c
  5334  00669C  C501  F505         	movff	islower@c,??_islower+2
  5335  0066A0  C502  F506         	movff	islower@c+1,??_islower+3
  5336  0066A4  5003               	movf	??_islower^(0+1280),w,c
  5337  0066A6  2605               	addwf	(??_islower+2)^(0+1280),f,c
  5338  0066A8  5004               	movf	(??_islower+1)^(0+1280),w,c
  5339  0066AA  2206               	addwfc	(??_islower+3)^(0+1280),f,c
  5340  0066AC  5006               	movf	(??_islower+3)^(0+1280),w,c
  5341  0066AE  E10A               	bnz	i2u374_40
  5342  0066B0  0E1A               	movlw	26
  5343  0066B2  5C05               	subwf	(??_islower+2)^(0+1280),w,c
  5344  0066B4  A0D8               	btfss	status,0,c
  5345  0066B6  EF5F  F033         	goto	i2u374_41
  5346  0066BA  EF62  F033         	goto	i2u374_40
  5347  0066BE                     i2u374_41:
  5348  0066BE  0E01               	movlw	1
  5349  0066C0  EF63  F033         	goto	i2u375_40
  5350  0066C4                     i2u374_40:
  5351  0066C4  0E00               	movlw	0
  5352  0066C6                     i2u375_40:
  5353  0066C6  6E01               	movwf	?_islower^(0+1280),c
  5354  0066C8  6A02               	clrf	(?_islower+1)^(0+1280),c
  5355  0066CA  0012               	return		;funcret
  5356  0066CC                     __end_of_islower:
  5357                           	callstack 0
  5358                           
  5359 ;; *************** function _isalpha *****************
  5360 ;; Defined at:
  5361 ;;		line 5 in file "C:\Program Files\Microchip\xc8\v2.32\pic\sources\c99\common\isalpha.c"
  5362 ;; Parameters:    Size  Location     Type
  5363 ;;  c               2    0[COMRAM] int 
  5364 ;; Auto vars:     Size  Location     Type
  5365 ;;		None
  5366 ;; Return value:  Size  Location     Type
  5367 ;;                  2    0[COMRAM] int 
  5368 ;; Registers used:
  5369 ;;		wreg, status,2, status,0
  5370 ;; Tracked objects:
  5371 ;;		On entry : 0/0
  5372 ;;		On exit  : 0/0
  5373 ;;		Unchanged: 0/0
  5374 ;; Data sizes:     COMRAM   BANK5   BANK6   BANK7   BANK8   BANK9  BANK10  BANK11  BANK12  BANK13  BANK14  BANK15  BANK1
      +6  BANK17  BANK18  BANK19  BANK20  BANK21  BANK22  BANK23  BANK24  BANK25  BANK26  BANK27  BANK28  BANK29  BANK30  BANK3
      +1  BANK32  BANK33  BANK34  BANK35  BANK36  BANK37
  5375 ;;      Params:         2       0       0       0       0       0       0       0       0       0       0       0       
      +0       0       0       0       0       0       0       0       0       0       0       0       0       0       0       
      +0       0       0       0       0       0       0
  5376 ;;      Locals:         0       0       0       0       0       0       0       0       0       0       0       0       
      +0       0       0       0       0       0       0       0       0       0       0       0       0       0       0       
      +0       0       0       0       0       0       0
  5377 ;;      Temps:          4       0       0       0       0       0       0       0       0       0       0       0       
      +0       0       0       0       0       0       0       0       0       0       0       0       0       0       0       
      +0       0       0       0       0       0       0
  5378 ;;      Totals:         6       0       0       0       0       0       0       0       0       0       0       0       
      +0       0       0       0       0       0       0       0       0       0       0       0       0       0       0       
      +0       0       0       0       0       0       0
  5379 ;;Total ram usage:        6 bytes
  5380 ;; Hardware stack levels used: 1
  5381 ;; This function calls:
  5382 ;;		Nothing
  5383 ;; This function is called by:
  5384 ;;		_xtoa
  5385 ;; This function uses a non-reentrant model
  5386 ;;
  5387                           
  5388                           	psect	text32
  5389  00661E                     __ptext32:
  5390                           	callstack 0
  5391  00661E                     _isalpha:
  5392                           	callstack 117
  5393  00661E  0E9F               	movlw	159
  5394  006620  6E03               	movwf	??_isalpha^(0+1280),c
  5395  006622  0EFF               	movlw	255
  5396  006624  6E04               	movwf	(??_isalpha+1)^(0+1280),c
  5397  006626  0E20               	movlw	32
  5398  006628  1001               	iorwf	isalpha@c^(0+1280),w,c
  5399  00662A  6E05               	movwf	(??_isalpha+2)^(0+1280),c
  5400  00662C  0E00               	movlw	0
  5401  00662E  1002               	iorwf	(isalpha@c+1)^(0+1280),w,c
  5402  006630  6E06               	movwf	(??_isalpha+3)^(0+1280),c
  5403  006632  5003               	movf	??_isalpha^(0+1280),w,c
  5404  006634  2605               	addwf	(??_isalpha+2)^(0+1280),f,c
  5405  006636  5004               	movf	(??_isalpha+1)^(0+1280),w,c
  5406  006638  2206               	addwfc	(??_isalpha+3)^(0+1280),f,c
  5407  00663A  5006               	movf	(??_isalpha+3)^(0+1280),w,c
  5408  00663C  E10A               	bnz	i2u479_40
  5409  00663E  0E1A               	movlw	26
  5410  006640  5C05               	subwf	(??_isalpha+2)^(0+1280),w,c
  5411  006642  A0D8               	btfss	status,0,c
  5412  006644  EF26  F033         	goto	i2u479_41
  5413  006648  EF29  F033         	goto	i2u479_40
  5414  00664C                     i2u479_41:
  5415  00664C  0E01               	movlw	1
  5416  00664E  EF2A  F033         	goto	i2u480_40
  5417  006652                     i2u479_40:
  5418  006652  0E00               	movlw	0
  5419  006654                     i2u480_40:
  5420  006654  6E01               	movwf	?_isalpha^(0+1280),c
  5421  006656  6A02               	clrf	(?_isalpha+1)^(0+1280),c
  5422  006658  0012               	return		;funcret
  5423  00665A                     __end_of_isalpha:
  5424                           	callstack 0
  5425                           
  5426 ;; *************** function _utoa *****************
  5427 ;; Defined at:
  5428 ;;		line 615 in file "C:\Program Files\Microchip\xc8\v2.32\pic\sources\c99\common\doprnt.c"
  5429 ;; Parameters:    Size  Location     Type
  5430 ;;  fp              2   29[COMRAM] PTR struct _IO_FILE
  5431 ;;		 -> NULL(0), sprintf@f(6), 
  5432 ;;  d               8   31[COMRAM] unsigned long long 
  5433 ;; Auto vars:     Size  Location     Type
  5434 ;;  n               8   51[COMRAM] unsigned long long 
  5435 ;;  i               2   59[COMRAM] int 
  5436 ;;  w               2   49[COMRAM] int 
  5437 ;;  p               2   47[COMRAM] int 
  5438 ;; Return value:  Size  Location     Type
  5439 ;;                  2   29[COMRAM] int 
  5440 ;; Registers used:
  5441 ;;		wreg, fsr1l, fsr1h, fsr2l, fsr2h, status,2, status,0, cstack
  5442 ;; Tracked objects:
  5443 ;;		On entry : 0/0
  5444 ;;		On exit  : 0/0
  5445 ;;		Unchanged: 0/0
  5446 ;; Data sizes:     COMRAM   BANK5   BANK6   BANK7   BANK8   BANK9  BANK10  BANK11  BANK12  BANK13  BANK14  BANK15  BANK1
      +6  BANK17  BANK18  BANK19  BANK20  BANK21  BANK22  BANK23  BANK24  BANK25  BANK26  BANK27  BANK28  BANK29  BANK30  BANK3
      +1  BANK32  BANK33  BANK34  BANK35  BANK36  BANK37
  5447 ;;      Params:        10       0       0       0       0       0       0       0       0       0       0       0       
      +0       0       0       0       0       0       0       0       0       0       0       0       0       0       0       
      +0       0       0       0       0       0       0
  5448 ;;      Locals:        14       0       0       0       0       0       0       0       0       0       0       0       
      +0       0       0       0       0       0       0       0       0       0       0       0       0       0       0       
      +0       0       0       0       0       0       0
  5449 ;;      Temps:          8       0       0       0       0       0       0       0       0       0       0       0       
      +0       0       0       0       0       0       0       0       0       0       0       0       0       0       0       
      +0       0       0       0       0       0       0
  5450 ;;      Totals:        32       0       0       0       0       0       0       0       0       0       0       0       
      +0       0       0       0       0       0       0       0       0       0       0       0       0       0       0       
      +0       0       0       0       0       0       0
  5451 ;;Total ram usage:       32 bytes
  5452 ;; Hardware stack levels used: 1
  5453 ;; Hardware stack levels required when called: 5
  5454 ;; This function calls:
  5455 ;;		___lodiv
  5456 ;;		___lomod
  5457 ;;		_pad
  5458 ;; This function is called by:
  5459 ;;		_vfpfcnvrt
  5460 ;; This function uses a non-reentrant model
  5461 ;;
  5462                           
  5463                           	psect	text33
  5464  004E18                     __ptext33:
  5465                           	callstack 0
  5466  004E18                     _utoa:
  5467                           	callstack 113
  5468  004E18                     
  5469                           ;C:\Program Files\Microchip\xc8\v2.32\pic\sources\c99\common\doprnt.c: 615: static int u
      +                          toa(FILE *fp, unsigned long long d);C:\Program Files\Microchip\xc8\v2.32\pic\sources\c99
      +                          \common\doprnt.c: 616: {;C:\Program Files\Microchip\xc8\v2.32\pic\sources\c99\common\dop
      +                          rnt.c: 617:     int i, p, w;;C:\Program Files\Microchip\xc8\v2.32\pic\sources\c99\common
      +                          \doprnt.c: 618:     unsigned long long n;;C:\Program Files\Microchip\xc8\v2.32\pic\sourc
      +                          es\c99\common\doprnt.c: 621:     if (!(prec < 0)) {
  5470  004E18  0105               	movlb	5	; () banked
  5471  004E1A  BFD9               	btfsc	(_prec+1)& (0+255),7,b
  5472  004E1C  EF12  F027         	goto	i2u551_41
  5473  004E20  EF14  F027         	goto	i2u551_40
  5474  004E24                     i2u551_41:
  5475  004E24  EF15  F027         	goto	i2l4995
  5476  004E28                     i2u551_40:
  5477  004E28                     
  5478                           ; BSR set to: 5
  5479                           ;C:\Program Files\Microchip\xc8\v2.32\pic\sources\c99\common\doprnt.c: 622:         flag
      +                          s &= ~(1 << 1);
  5480  004E28  93DA               	bcf	_flags& (0+255),1,b
  5481  004E2A                     i2l4995:
  5482                           
  5483                           ; BSR set to: 5
  5484                           ;C:\Program Files\Microchip\xc8\v2.32\pic\sources\c99\common\doprnt.c: 624:     p = (0 <
      +                           prec) ? prec : 1;
  5485  004E2A  BFD9               	btfsc	(_prec+1)& (0+255),7,b
  5486  004E2C  EF22  F027         	goto	i2u552_40
  5487  004E30  51D9               	movf	(_prec+1)& (0+255),w,b
  5488  004E32  E106               	bnz	i2u552_41
  5489  004E34  05D8               	decf	_prec& (0+255),w,b
  5490  004E36  B0D8               	btfsc	status,0,c
  5491  004E38  EF20  F027         	goto	i2u552_41
  5492  004E3C  EF22  F027         	goto	i2u552_40
  5493  004E40                     i2u552_41:
  5494  004E40  EF28  F027         	goto	i2l1510
  5495  004E44                     i2u552_40:
  5496  004E44                     
  5497                           ; BSR set to: 5
  5498  004E44  0E00               	movlw	0
  5499  004E46  6E31               	movwf	(utoa@p+1)^(0+1280),c
  5500  004E48  0E01               	movlw	1
  5501  004E4A  6E30               	movwf	utoa@p^(0+1280),c
  5502  004E4C  EF2C  F027         	goto	i2l1512
  5503  004E50                     i2l1510:
  5504                           
  5505                           ; BSR set to: 5
  5506  004E50  C5D8  F530         	movff	_prec,utoa@p
  5507  004E54  C5D9  F531         	movff	_prec+1,utoa@p+1
  5508  004E58                     i2l1512:
  5509                           
  5510                           ; BSR set to: 5
  5511                           ;C:\Program Files\Microchip\xc8\v2.32\pic\sources\c99\common\doprnt.c: 625:     w = widt
      +                          h;
  5512  004E58  C5D6  F532         	movff	_width,utoa@w
  5513  004E5C  C5D7  F533         	movff	_width+1,utoa@w+1
  5514                           
  5515                           ;C:\Program Files\Microchip\xc8\v2.32\pic\sources\c99\common\doprnt.c: 628:     n = d;
  5516  004E60  C520  F534         	movff	utoa@d,utoa@n
  5517  004E64  C521  F535         	movff	utoa@d+1,utoa@n+1
  5518  004E68  C522  F536         	movff	utoa@d+2,utoa@n+2
  5519  004E6C  C523  F537         	movff	utoa@d+3,utoa@n+3
  5520  004E70  C524  F538         	movff	utoa@d+4,utoa@n+4
  5521  004E74  C525  F539         	movff	utoa@d+5,utoa@n+5
  5522  004E78  C526  F53A         	movff	utoa@d+6,utoa@n+6
  5523  004E7C  C527  F53B         	movff	utoa@d+7,utoa@n+7
  5524  004E80                     
  5525                           ; BSR set to: 5
  5526                           ;C:\Program Files\Microchip\xc8\v2.32\pic\sources\c99\common\doprnt.c: 629:     i = size
      +                          of(dbuf) - 1;
  5527  004E80  0E00               	movlw	0
  5528  004E82  6E3D               	movwf	(utoa@i+1)^(0+1280),c
  5529  004E84  0E4F               	movlw	79
  5530  004E86  6E3C               	movwf	utoa@i^(0+1280),c
  5531  004E88                     
  5532                           ; BSR set to: 5
  5533                           ;C:\Program Files\Microchip\xc8\v2.32\pic\sources\c99\common\doprnt.c: 630:     dbuf[i] 
      +                          = '\0';
  5534  004E88  0E00               	movlw	0
  5535  004E8A  0106               	movlb	6	; () banked
  5536  004E8C  6F51               	movwf	(_dbuf+79)& (0+255),b
  5537                           
  5538                           ;C:\Program Files\Microchip\xc8\v2.32\pic\sources\c99\common\doprnt.c: 631:     while (i
      +                           && (n || (0 < p) || ((0 < w) && (flags & (1 << 1))))) {
  5539  004E8E  EFBF  F027         	goto	i2l5013
  5540  004E92                     i2l5003:
  5541                           
  5542                           ;C:\Program Files\Microchip\xc8\v2.32\pic\sources\c99\common\doprnt.c: 632:         --i;
  5543  004E92  063C               	decf	utoa@i^(0+1280),f,c
  5544  004E94  A0D8               	btfss	status,0,c
  5545  004E96  063D               	decf	(utoa@i+1)^(0+1280),f,c
  5546  004E98                     
  5547                           ;C:\Program Files\Microchip\xc8\v2.32\pic\sources\c99\common\doprnt.c: 633:         dbuf
      +                          [i] = '0' + (n % 10);
  5548  004E98  0E02               	movlw	low _dbuf
  5549  004E9A  243C               	addwf	utoa@i^(0+1280),w,c
  5550  004E9C  6ED9               	movwf	fsr2l,c
  5551  004E9E  0E06               	movlw	high _dbuf
  5552  004EA0  203D               	addwfc	(utoa@i+1)^(0+1280),w,c
  5553  004EA2  6EDA               	movwf	fsr2h,c
  5554  004EA4  C534  F501         	movff	utoa@n,___lomod@dividend
  5555  004EA8  C535  F502         	movff	utoa@n+1,___lomod@dividend+1
  5556  004EAC  C536  F503         	movff	utoa@n+2,___lomod@dividend+2
  5557  004EB0  C537  F504         	movff	utoa@n+3,___lomod@dividend+3
  5558  004EB4  C538  F505         	movff	utoa@n+4,___lomod@dividend+4
  5559  004EB8  C539  F506         	movff	utoa@n+5,___lomod@dividend+5
  5560  004EBC  C53A  F507         	movff	utoa@n+6,___lomod@dividend+6
  5561  004EC0  C53B  F508         	movff	utoa@n+7,___lomod@dividend+7
  5562  004EC4  0E0A               	movlw	10
  5563  004EC6  6E09               	movwf	___lomod@divisor^(0+1280),c
  5564  004EC8  0E00               	movlw	0
  5565  004ECA  6E0A               	movwf	(___lomod@divisor+1)^(0+1280),c
  5566  004ECC  0E00               	movlw	0
  5567  004ECE  6E0B               	movwf	(___lomod@divisor+2)^(0+1280),c
  5568  004ED0  0E00               	movlw	0
  5569  004ED2  6E0C               	movwf	(___lomod@divisor+3)^(0+1280),c
  5570  004ED4  0E00               	movlw	0
  5571  004ED6  6E0D               	movwf	(___lomod@divisor+4)^(0+1280),c
  5572  004ED8  0E00               	movlw	0
  5573  004EDA  6E0E               	movwf	(___lomod@divisor+5)^(0+1280),c
  5574  004EDC  0E00               	movlw	0
  5575  004EDE  6E0F               	movwf	(___lomod@divisor+6)^(0+1280),c
  5576  004EE0  0E00               	movlw	0
  5577  004EE2  6E10               	movwf	(___lomod@divisor+7)^(0+1280),c
  5578  004EE4  ECE7  F02D         	call	___lomod	;wreg free
  5579  004EE8  C501  F528         	movff	?___lomod,??_utoa
  5580  004EEC  C502  F529         	movff	?___lomod+1,??_utoa+1
  5581  004EF0  C503  F52A         	movff	?___lomod+2,??_utoa+2
  5582  004EF4  C504  F52B         	movff	?___lomod+3,??_utoa+3
  5583  004EF8  C505  F52C         	movff	?___lomod+4,??_utoa+4
  5584  004EFC  C506  F52D         	movff	?___lomod+5,??_utoa+5
  5585  004F00  C507  F52E         	movff	?___lomod+6,??_utoa+6
  5586  004F04  C508  F52F         	movff	?___lomod+7,??_utoa+7
  5587  004F08  5028               	movf	??_utoa^(0+1280),w,c
  5588  004F0A  0F30               	addlw	48
  5589  004F0C  6EDF               	movwf	indf2,c
  5590  004F0E                     
  5591                           ;C:\Program Files\Microchip\xc8\v2.32\pic\sources\c99\common\doprnt.c: 634:         --p;
  5592  004F0E  0630               	decf	utoa@p^(0+1280),f,c
  5593  004F10  A0D8               	btfss	status,0,c
  5594  004F12  0631               	decf	(utoa@p+1)^(0+1280),f,c
  5595  004F14                     
  5596                           ;C:\Program Files\Microchip\xc8\v2.32\pic\sources\c99\common\doprnt.c: 635:         --w;
  5597  004F14  0632               	decf	utoa@w^(0+1280),f,c
  5598  004F16  A0D8               	btfss	status,0,c
  5599  004F18  0633               	decf	(utoa@w+1)^(0+1280),f,c
  5600  004F1A                     
  5601                           ;C:\Program Files\Microchip\xc8\v2.32\pic\sources\c99\common\doprnt.c: 636:         n = 
      +                          n / 10;
  5602  004F1A  C534  F501         	movff	utoa@n,___lodiv@dividend
  5603  004F1E  C535  F502         	movff	utoa@n+1,___lodiv@dividend+1
  5604  004F22  C536  F503         	movff	utoa@n+2,___lodiv@dividend+2
  5605  004F26  C537  F504         	movff	utoa@n+3,___lodiv@dividend+3
  5606  004F2A  C538  F505         	movff	utoa@n+4,___lodiv@dividend+4
  5607  004F2E  C539  F506         	movff	utoa@n+5,___lodiv@dividend+5
  5608  004F32  C53A  F507         	movff	utoa@n+6,___lodiv@dividend+6
  5609  004F36  C53B  F508         	movff	utoa@n+7,___lodiv@dividend+7
  5610  004F3A  0E0A               	movlw	10
  5611  004F3C  6E09               	movwf	___lodiv@divisor^(0+1280),c
  5612  004F3E  0E00               	movlw	0
  5613  004F40  6E0A               	movwf	(___lodiv@divisor+1)^(0+1280),c
  5614  004F42  0E00               	movlw	0
  5615  004F44  6E0B               	movwf	(___lodiv@divisor+2)^(0+1280),c
  5616  004F46  0E00               	movlw	0
  5617  004F48  6E0C               	movwf	(___lodiv@divisor+3)^(0+1280),c
  5618  004F4A  0E00               	movlw	0
  5619  004F4C  6E0D               	movwf	(___lodiv@divisor+4)^(0+1280),c
  5620  004F4E  0E00               	movlw	0
  5621  004F50  6E0E               	movwf	(___lodiv@divisor+5)^(0+1280),c
  5622  004F52  0E00               	movlw	0
  5623  004F54  6E0F               	movwf	(___lodiv@divisor+6)^(0+1280),c
  5624  004F56  0E00               	movlw	0
  5625  004F58  6E10               	movwf	(___lodiv@divisor+7)^(0+1280),c
  5626  004F5A  EC03  F02D         	call	___lodiv	;wreg free
  5627  004F5E  C501  F534         	movff	?___lodiv,utoa@n
  5628  004F62  C502  F535         	movff	?___lodiv+1,utoa@n+1
  5629  004F66  C503  F536         	movff	?___lodiv+2,utoa@n+2
  5630  004F6A  C504  F537         	movff	?___lodiv+3,utoa@n+3
  5631  004F6E  C505  F538         	movff	?___lodiv+4,utoa@n+4
  5632  004F72  C506  F539         	movff	?___lodiv+5,utoa@n+5
  5633  004F76  C507  F53A         	movff	?___lodiv+6,utoa@n+6
  5634  004F7A  C508  F53B         	movff	?___lodiv+7,utoa@n+7
  5635  004F7E                     i2l5013:
  5636                           
  5637                           ;C:\Program Files\Microchip\xc8\v2.32\pic\sources\c99\common\doprnt.c: 631:     while (i
      +                           && (n || (0 < p) || ((0 < w) && (flags & (1 << 1))))) {
  5638  004F7E  503C               	movf	utoa@i^(0+1280),w,c
  5639  004F80  103D               	iorwf	(utoa@i+1)^(0+1280),w,c
  5640  004F82  B4D8               	btfsc	status,2,c
  5641  004F84  EFC6  F027         	goto	i2u553_41
  5642  004F88  EFC8  F027         	goto	i2u553_40
  5643  004F8C                     i2u553_41:
  5644  004F8C  EFF9  F027         	goto	i2l5023
  5645  004F90                     i2u553_40:
  5646  004F90  5034               	movf	utoa@n^(0+1280),w,c
  5647  004F92  1035               	iorwf	(utoa@n+1)^(0+1280),w,c
  5648  004F94  1036               	iorwf	(utoa@n+2)^(0+1280),w,c
  5649  004F96  1037               	iorwf	(utoa@n+3)^(0+1280),w,c
  5650  004F98  1038               	iorwf	(utoa@n+4)^(0+1280),w,c
  5651  004F9A  1039               	iorwf	(utoa@n+5)^(0+1280),w,c
  5652  004F9C  103A               	iorwf	(utoa@n+6)^(0+1280),w,c
  5653  004F9E  103B               	iorwf	(utoa@n+7)^(0+1280),w,c
  5654  004FA0  A4D8               	btfss	status,2,c
  5655  004FA2  EFD5  F027         	goto	i2u554_41
  5656  004FA6  EFD7  F027         	goto	i2u554_40
  5657  004FAA                     i2u554_41:
  5658  004FAA  EF49  F027         	goto	i2l5003
  5659  004FAE                     i2u554_40:
  5660  004FAE  BE31               	btfsc	(utoa@p+1)^(0+1280),7,c
  5661  004FB0  EFE4  F027         	goto	i2u555_40
  5662  004FB4  5031               	movf	(utoa@p+1)^(0+1280),w,c
  5663  004FB6  E106               	bnz	i2u555_41
  5664  004FB8  0430               	decf	utoa@p^(0+1280),w,c
  5665  004FBA  B0D8               	btfsc	status,0,c
  5666  004FBC  EFE2  F027         	goto	i2u555_41
  5667  004FC0  EFE4  F027         	goto	i2u555_40
  5668  004FC4                     i2u555_41:
  5669  004FC4  EF49  F027         	goto	i2l5003
  5670  004FC8                     i2u555_40:
  5671  004FC8  BE33               	btfsc	(utoa@w+1)^(0+1280),7,c
  5672  004FCA  EFEF  F027         	goto	i2u556_41
  5673  004FCE  5033               	movf	(utoa@w+1)^(0+1280),w,c
  5674  004FD0  E108               	bnz	i2u556_40
  5675  004FD2  0432               	decf	utoa@w^(0+1280),w,c
  5676  004FD4  A0D8               	btfss	status,0,c
  5677  004FD6  EFEF  F027         	goto	i2u556_41
  5678  004FDA  EFF1  F027         	goto	i2u556_40
  5679  004FDE                     i2u556_41:
  5680  004FDE  EFF9  F027         	goto	i2l5023
  5681  004FE2                     i2u556_40:
  5682  004FE2  0105               	movlb	5	; () banked
  5683  004FE4  B3DA               	btfsc	_flags& (0+255),1,b
  5684  004FE6  EFF7  F027         	goto	i2u557_41
  5685  004FEA  EFF9  F027         	goto	i2u557_40
  5686  004FEE                     i2u557_41:
  5687  004FEE  EF49  F027         	goto	i2l5003
  5688  004FF2                     i2u557_40:
  5689  004FF2                     i2l5023:
  5690                           
  5691                           ;C:\Program Files\Microchip\xc8\v2.32\pic\sources\c99\common\doprnt.c: 640:     return p
      +                          ad(fp, &dbuf[i], w);
  5692  004FF2  C51E  F513         	movff	utoa@fp,pad@fp
  5693  004FF6  C51F  F514         	movff	utoa@fp+1,pad@fp+1
  5694  004FFA  0E02               	movlw	low _dbuf
  5695  004FFC  243C               	addwf	utoa@i^(0+1280),w,c
  5696  004FFE  6E15               	movwf	pad@buf^(0+1280),c
  5697  005000  0E06               	movlw	high _dbuf
  5698  005002  203D               	addwfc	(utoa@i+1)^(0+1280),w,c
  5699  005004  6E16               	movwf	(pad@buf+1)^(0+1280),c
  5700  005006  C532  F517         	movff	utoa@w,pad@p
  5701  00500A  C533  F518         	movff	utoa@w+1,pad@p+1
  5702  00500E  EC4F  F02E         	call	_pad	;wreg free
  5703  005012  C513  F51E         	movff	?_pad,?_utoa
  5704  005016  C514  F51F         	movff	?_pad+1,?_utoa+1
  5705  00501A  0012               	return		;funcret
  5706  00501C                     __end_of_utoa:
  5707                           	callstack 0
  5708                           
  5709 ;; *************** function ___lomod *****************
  5710 ;; Defined at:
  5711 ;;		line 9 in file "C:\Program Files\Microchip\xc8\v2.32\pic\sources\c99\common\lomod.c"
  5712 ;; Parameters:    Size  Location     Type
  5713 ;;  dividend        8    0[COMRAM] unsigned long long 
  5714 ;;  divisor         8    8[COMRAM] unsigned long long 
  5715 ;; Auto vars:     Size  Location     Type
  5716 ;;  counter         1   16[COMRAM] unsigned char 
  5717 ;; Return value:  Size  Location     Type
  5718 ;;                  8    0[COMRAM] unsigned long long 
  5719 ;; Registers used:
  5720 ;;		wreg, status,2, status,0
  5721 ;; Tracked objects:
  5722 ;;		On entry : 0/0
  5723 ;;		On exit  : 0/0
  5724 ;;		Unchanged: 0/0
  5725 ;; Data sizes:     COMRAM   BANK5   BANK6   BANK7   BANK8   BANK9  BANK10  BANK11  BANK12  BANK13  BANK14  BANK15  BANK1
      +6  BANK17  BANK18  BANK19  BANK20  BANK21  BANK22  BANK23  BANK24  BANK25  BANK26  BANK27  BANK28  BANK29  BANK30  BANK3
      +1  BANK32  BANK33  BANK34  BANK35  BANK36  BANK37
  5726 ;;      Params:        16       0       0       0       0       0       0       0       0       0       0       0       
      +0       0       0       0       0       0       0       0       0       0       0       0       0       0       0       
      +0       0       0       0       0       0       0
  5727 ;;      Locals:         1       0       0       0       0       0       0       0       0       0       0       0       
      +0       0       0       0       0       0       0       0       0       0       0       0       0       0       0       
      +0       0       0       0       0       0       0
  5728 ;;      Temps:          0       0       0       0       0       0       0       0       0       0       0       0       
      +0       0       0       0       0       0       0       0       0       0       0       0       0       0       0       
      +0       0       0       0       0       0       0
  5729 ;;      Totals:        17       0       0       0       0       0       0       0       0       0       0       0       
      +0       0       0       0       0       0       0       0       0       0       0       0       0       0       0       
      +0       0       0       0       0       0       0
  5730 ;;Total ram usage:       17 bytes
  5731 ;; Hardware stack levels used: 1
  5732 ;; This function calls:
  5733 ;;		Nothing
  5734 ;; This function is called by:
  5735 ;;		_utoa
  5736 ;; This function uses a non-reentrant model
  5737 ;;
  5738                           
  5739                           	psect	text34
  5740  005BCE                     __ptext34:
  5741                           	callstack 0
  5742  005BCE                     ___lomod:
  5743                           	callstack 117
  5744  005BCE  5009               	movf	___lomod@divisor^(0+1280),w,c
  5745  005BD0  100A               	iorwf	(___lomod@divisor+1)^(0+1280),w,c
  5746  005BD2  100B               	iorwf	(___lomod@divisor+2)^(0+1280),w,c
  5747  005BD4  100C               	iorwf	(___lomod@divisor+3)^(0+1280),w,c
  5748  005BD6  100D               	iorwf	(___lomod@divisor+4)^(0+1280),w,c
  5749  005BD8  100E               	iorwf	(___lomod@divisor+5)^(0+1280),w,c
  5750  005BDA  100F               	iorwf	(___lomod@divisor+6)^(0+1280),w,c
  5751  005BDC  1010               	iorwf	(___lomod@divisor+7)^(0+1280),w,c
  5752  005BDE  B4D8               	btfsc	status,2,c
  5753  005BE0  EFF4  F02D         	goto	i2u450_41
  5754  005BE4  EFF6  F02D         	goto	i2u450_40
  5755  005BE8                     i2u450_41:
  5756  005BE8  EF3E  F02E         	goto	i2l1109
  5757  005BEC                     i2u450_40:
  5758  005BEC  0E01               	movlw	1
  5759  005BEE  6E11               	movwf	___lomod@counter^(0+1280),c
  5760  005BF0  EF04  F02E         	goto	i2l4515
  5761  005BF4                     i2l4513:
  5762  005BF4  90D8               	bcf	status,0,c
  5763  005BF6  3609               	rlcf	___lomod@divisor^(0+1280),f,c
  5764  005BF8  360A               	rlcf	(___lomod@divisor+1)^(0+1280),f,c
  5765  005BFA  360B               	rlcf	(___lomod@divisor+2)^(0+1280),f,c
  5766  005BFC  360C               	rlcf	(___lomod@divisor+3)^(0+1280),f,c
  5767  005BFE  360D               	rlcf	(___lomod@divisor+4)^(0+1280),f,c
  5768  005C00  360E               	rlcf	(___lomod@divisor+5)^(0+1280),f,c
  5769  005C02  360F               	rlcf	(___lomod@divisor+6)^(0+1280),f,c
  5770  005C04  3610               	rlcf	(___lomod@divisor+7)^(0+1280),f,c
  5771  005C06  2A11               	incf	___lomod@counter^(0+1280),f,c
  5772  005C08                     i2l4515:
  5773  005C08  AE10               	btfss	(___lomod@divisor+7)^(0+1280),7,c
  5774  005C0A  EF09  F02E         	goto	i2u451_41
  5775  005C0E  EF0B  F02E         	goto	i2u451_40
  5776  005C12                     i2u451_41:
  5777  005C12  EFFA  F02D         	goto	i2l4513
  5778  005C16                     i2u451_40:
  5779  005C16                     i2l4517:
  5780  005C16  5009               	movf	___lomod@divisor^(0+1280),w,c
  5781  005C18  5C01               	subwf	___lomod@dividend^(0+1280),w,c
  5782  005C1A  500A               	movf	(___lomod@divisor+1)^(0+1280),w,c
  5783  005C1C  5802               	subwfb	(___lomod@dividend+1)^(0+1280),w,c
  5784  005C1E  500B               	movf	(___lomod@divisor+2)^(0+1280),w,c
  5785  005C20  5803               	subwfb	(___lomod@dividend+2)^(0+1280),w,c
  5786  005C22  500C               	movf	(___lomod@divisor+3)^(0+1280),w,c
  5787  005C24  5804               	subwfb	(___lomod@dividend+3)^(0+1280),w,c
  5788  005C26  500D               	movf	(___lomod@divisor+4)^(0+1280),w,c
  5789  005C28  5805               	subwfb	(___lomod@dividend+4)^(0+1280),w,c
  5790  005C2A  500E               	movf	(___lomod@divisor+5)^(0+1280),w,c
  5791  005C2C  5806               	subwfb	(___lomod@dividend+5)^(0+1280),w,c
  5792  005C2E  500F               	movf	(___lomod@divisor+6)^(0+1280),w,c
  5793  005C30  5807               	subwfb	(___lomod@dividend+6)^(0+1280),w,c
  5794  005C32  5010               	movf	(___lomod@divisor+7)^(0+1280),w,c
  5795  005C34  5808               	subwfb	(___lomod@dividend+7)^(0+1280),w,c
  5796  005C36  A0D8               	btfss	status,0,c
  5797  005C38  EF20  F02E         	goto	i2u452_41
  5798  005C3C  EF22  F02E         	goto	i2u452_40
  5799  005C40                     i2u452_41:
  5800  005C40  EF32  F02E         	goto	i2l4521
  5801  005C44                     i2u452_40:
  5802  005C44  5009               	movf	___lomod@divisor^(0+1280),w,c
  5803  005C46  5E01               	subwf	___lomod@dividend^(0+1280),f,c
  5804  005C48  500A               	movf	(___lomod@divisor+1)^(0+1280),w,c
  5805  005C4A  5A02               	subwfb	(___lomod@dividend+1)^(0+1280),f,c
  5806  005C4C  500B               	movf	(___lomod@divisor+2)^(0+1280),w,c
  5807  005C4E  5A03               	subwfb	(___lomod@dividend+2)^(0+1280),f,c
  5808  005C50  500C               	movf	(___lomod@divisor+3)^(0+1280),w,c
  5809  005C52  5A04               	subwfb	(___lomod@dividend+3)^(0+1280),f,c
  5810  005C54  500D               	movf	(___lomod@divisor+4)^(0+1280),w,c
  5811  005C56  5A05               	subwfb	(___lomod@dividend+4)^(0+1280),f,c
  5812  005C58  500E               	movf	(___lomod@divisor+5)^(0+1280),w,c
  5813  005C5A  5A06               	subwfb	(___lomod@dividend+5)^(0+1280),f,c
  5814  005C5C  500F               	movf	(___lomod@divisor+6)^(0+1280),w,c
  5815  005C5E  5A07               	subwfb	(___lomod@dividend+6)^(0+1280),f,c
  5816  005C60  5010               	movf	(___lomod@divisor+7)^(0+1280),w,c
  5817  005C62  5A08               	subwfb	(___lomod@dividend+7)^(0+1280),f,c
  5818  005C64                     i2l4521:
  5819  005C64  90D8               	bcf	status,0,c
  5820  005C66  3210               	rrcf	(___lomod@divisor+7)^(0+1280),f,c
  5821  005C68  320F               	rrcf	(___lomod@divisor+6)^(0+1280),f,c
  5822  005C6A  320E               	rrcf	(___lomod@divisor+5)^(0+1280),f,c
  5823  005C6C  320D               	rrcf	(___lomod@divisor+4)^(0+1280),f,c
  5824  005C6E  320C               	rrcf	(___lomod@divisor+3)^(0+1280),f,c
  5825  005C70  320B               	rrcf	(___lomod@divisor+2)^(0+1280),f,c
  5826  005C72  320A               	rrcf	(___lomod@divisor+1)^(0+1280),f,c
  5827  005C74  3209               	rrcf	___lomod@divisor^(0+1280),f,c
  5828  005C76  2E11               	decfsz	___lomod@counter^(0+1280),f,c
  5829  005C78  EF0B  F02E         	goto	i2l4517
  5830  005C7C                     i2l1109:
  5831  005C7C  C501  F501         	movff	___lomod@dividend,?___lomod
  5832  005C80  C502  F502         	movff	___lomod@dividend+1,?___lomod+1
  5833  005C84  C503  F503         	movff	___lomod@dividend+2,?___lomod+2
  5834  005C88  C504  F504         	movff	___lomod@dividend+3,?___lomod+3
  5835  005C8C  C505  F505         	movff	___lomod@dividend+4,?___lomod+4
  5836  005C90  C506  F506         	movff	___lomod@dividend+5,?___lomod+5
  5837  005C94  C507  F507         	movff	___lomod@dividend+6,?___lomod+6
  5838  005C98  C508  F508         	movff	___lomod@dividend+7,?___lomod+7
  5839  005C9C  0012               	return		;funcret
  5840  005C9E                     __end_of___lomod:
  5841                           	callstack 0
  5842                           
  5843 ;; *************** function ___lodiv *****************
  5844 ;; Defined at:
  5845 ;;		line 9 in file "C:\Program Files\Microchip\xc8\v2.32\pic\sources\c99\common\lodiv.c"
  5846 ;; Parameters:    Size  Location     Type
  5847 ;;  dividend        8    0[COMRAM] unsigned long long 
  5848 ;;  divisor         8    8[COMRAM] unsigned long long 
  5849 ;; Auto vars:     Size  Location     Type
  5850 ;;  quotient        8   16[COMRAM] unsigned long long 
  5851 ;;  counter         1   24[COMRAM] unsigned char 
  5852 ;; Return value:  Size  Location     Type
  5853 ;;                  8    0[COMRAM] unsigned long long 
  5854 ;; Registers used:
  5855 ;;		wreg, fsr2l, fsr2h, status,2, status,0
  5856 ;; Tracked objects:
  5857 ;;		On entry : 0/0
  5858 ;;		On exit  : 0/0
  5859 ;;		Unchanged: 0/0
  5860 ;; Data sizes:     COMRAM   BANK5   BANK6   BANK7   BANK8   BANK9  BANK10  BANK11  BANK12  BANK13  BANK14  BANK15  BANK1
      +6  BANK17  BANK18  BANK19  BANK20  BANK21  BANK22  BANK23  BANK24  BANK25  BANK26  BANK27  BANK28  BANK29  BANK30  BANK3
      +1  BANK32  BANK33  BANK34  BANK35  BANK36  BANK37
  5861 ;;      Params:        16       0       0       0       0       0       0       0       0       0       0       0       
      +0       0       0       0       0       0       0       0       0       0       0       0       0       0       0       
      +0       0       0       0       0       0       0
  5862 ;;      Locals:         9       0       0       0       0       0       0       0       0       0       0       0       
      +0       0       0       0       0       0       0       0       0       0       0       0       0       0       0       
      +0       0       0       0       0       0       0
  5863 ;;      Temps:          0       0       0       0       0       0       0       0       0       0       0       0       
      +0       0       0       0       0       0       0       0       0       0       0       0       0       0       0       
      +0       0       0       0       0       0       0
  5864 ;;      Totals:        25       0       0       0       0       0       0       0       0       0       0       0       
      +0       0       0       0       0       0       0       0       0       0       0       0       0       0       0       
      +0       0       0       0       0       0       0
  5865 ;;Total ram usage:       25 bytes
  5866 ;; Hardware stack levels used: 1
  5867 ;; This function calls:
  5868 ;;		Nothing
  5869 ;; This function is called by:
  5870 ;;		_utoa
  5871 ;; This function uses a non-reentrant model
  5872 ;;
  5873                           
  5874                           	psect	text35
  5875  005A06                     __ptext35:
  5876                           	callstack 0
  5877  005A06                     ___lodiv:
  5878                           	callstack 117
  5879  005A06  EE21  F111         	lfsr	2,___lodiv@quotient
  5880  005A0A  0E07               	movlw	7
  5881  005A0C                     i2u446_41:
  5882  005A0C  6ADE               	clrf	postinc2,c
  5883  005A0E  06E8               	decf	wreg,f,c
  5884  005A10  E2FD               	bc	i2u446_41
  5885  005A12  5009               	movf	___lodiv@divisor^(0+1280),w,c
  5886  005A14  100A               	iorwf	(___lodiv@divisor+1)^(0+1280),w,c
  5887  005A16  100B               	iorwf	(___lodiv@divisor+2)^(0+1280),w,c
  5888  005A18  100C               	iorwf	(___lodiv@divisor+3)^(0+1280),w,c
  5889  005A1A  100D               	iorwf	(___lodiv@divisor+4)^(0+1280),w,c
  5890  005A1C  100E               	iorwf	(___lodiv@divisor+5)^(0+1280),w,c
  5891  005A1E  100F               	iorwf	(___lodiv@divisor+6)^(0+1280),w,c
  5892  005A20  1010               	iorwf	(___lodiv@divisor+7)^(0+1280),w,c
  5893  005A22  B4D8               	btfsc	status,2,c
  5894  005A24  EF16  F02D         	goto	i2u447_41
  5895  005A28  EF18  F02D         	goto	i2u447_40
  5896  005A2C                     i2u447_41:
  5897  005A2C  EF6A  F02D         	goto	i2l1099
  5898  005A30                     i2u447_40:
  5899  005A30  0E01               	movlw	1
  5900  005A32  6E19               	movwf	___lodiv@counter^(0+1280),c
  5901  005A34  EF26  F02D         	goto	i2l4495
  5902  005A38                     i2l4493:
  5903  005A38  90D8               	bcf	status,0,c
  5904  005A3A  3609               	rlcf	___lodiv@divisor^(0+1280),f,c
  5905  005A3C  360A               	rlcf	(___lodiv@divisor+1)^(0+1280),f,c
  5906  005A3E  360B               	rlcf	(___lodiv@divisor+2)^(0+1280),f,c
  5907  005A40  360C               	rlcf	(___lodiv@divisor+3)^(0+1280),f,c
  5908  005A42  360D               	rlcf	(___lodiv@divisor+4)^(0+1280),f,c
  5909  005A44  360E               	rlcf	(___lodiv@divisor+5)^(0+1280),f,c
  5910  005A46  360F               	rlcf	(___lodiv@divisor+6)^(0+1280),f,c
  5911  005A48  3610               	rlcf	(___lodiv@divisor+7)^(0+1280),f,c
  5912  005A4A  2A19               	incf	___lodiv@counter^(0+1280),f,c
  5913  005A4C                     i2l4495:
  5914  005A4C  AE10               	btfss	(___lodiv@divisor+7)^(0+1280),7,c
  5915  005A4E  EF2B  F02D         	goto	i2u448_41
  5916  005A52  EF2D  F02D         	goto	i2u448_40
  5917  005A56                     i2u448_41:
  5918  005A56  EF1C  F02D         	goto	i2l4493
  5919  005A5A                     i2u448_40:
  5920  005A5A                     i2l4497:
  5921  005A5A  90D8               	bcf	status,0,c
  5922  005A5C  3611               	rlcf	___lodiv@quotient^(0+1280),f,c
  5923  005A5E  3612               	rlcf	(___lodiv@quotient+1)^(0+1280),f,c
  5924  005A60  3613               	rlcf	(___lodiv@quotient+2)^(0+1280),f,c
  5925  005A62  3614               	rlcf	(___lodiv@quotient+3)^(0+1280),f,c
  5926  005A64  3615               	rlcf	(___lodiv@quotient+4)^(0+1280),f,c
  5927  005A66  3616               	rlcf	(___lodiv@quotient+5)^(0+1280),f,c
  5928  005A68  3617               	rlcf	(___lodiv@quotient+6)^(0+1280),f,c
  5929  005A6A  3618               	rlcf	(___lodiv@quotient+7)^(0+1280),f,c
  5930  005A6C  5009               	movf	___lodiv@divisor^(0+1280),w,c
  5931  005A6E  5C01               	subwf	___lodiv@dividend^(0+1280),w,c
  5932  005A70  500A               	movf	(___lodiv@divisor+1)^(0+1280),w,c
  5933  005A72  5802               	subwfb	(___lodiv@dividend+1)^(0+1280),w,c
  5934  005A74  500B               	movf	(___lodiv@divisor+2)^(0+1280),w,c
  5935  005A76  5803               	subwfb	(___lodiv@dividend+2)^(0+1280),w,c
  5936  005A78  500C               	movf	(___lodiv@divisor+3)^(0+1280),w,c
  5937  005A7A  5804               	subwfb	(___lodiv@dividend+3)^(0+1280),w,c
  5938  005A7C  500D               	movf	(___lodiv@divisor+4)^(0+1280),w,c
  5939  005A7E  5805               	subwfb	(___lodiv@dividend+4)^(0+1280),w,c
  5940  005A80  500E               	movf	(___lodiv@divisor+5)^(0+1280),w,c
  5941  005A82  5806               	subwfb	(___lodiv@dividend+5)^(0+1280),w,c
  5942  005A84  500F               	movf	(___lodiv@divisor+6)^(0+1280),w,c
  5943  005A86  5807               	subwfb	(___lodiv@dividend+6)^(0+1280),w,c
  5944  005A88  5010               	movf	(___lodiv@divisor+7)^(0+1280),w,c
  5945  005A8A  5808               	subwfb	(___lodiv@dividend+7)^(0+1280),w,c
  5946  005A8C  A0D8               	btfss	status,0,c
  5947  005A8E  EF4B  F02D         	goto	i2u449_41
  5948  005A92  EF4D  F02D         	goto	i2u449_40
  5949  005A96                     i2u449_41:
  5950  005A96  EF5E  F02D         	goto	i2l4505
  5951  005A9A                     i2u449_40:
  5952  005A9A  5009               	movf	___lodiv@divisor^(0+1280),w,c
  5953  005A9C  5E01               	subwf	___lodiv@dividend^(0+1280),f,c
  5954  005A9E  500A               	movf	(___lodiv@divisor+1)^(0+1280),w,c
  5955  005AA0  5A02               	subwfb	(___lodiv@dividend+1)^(0+1280),f,c
  5956  005AA2  500B               	movf	(___lodiv@divisor+2)^(0+1280),w,c
  5957  005AA4  5A03               	subwfb	(___lodiv@dividend+2)^(0+1280),f,c
  5958  005AA6  500C               	movf	(___lodiv@divisor+3)^(0+1280),w,c
  5959  005AA8  5A04               	subwfb	(___lodiv@dividend+3)^(0+1280),f,c
  5960  005AAA  500D               	movf	(___lodiv@divisor+4)^(0+1280),w,c
  5961  005AAC  5A05               	subwfb	(___lodiv@dividend+4)^(0+1280),f,c
  5962  005AAE  500E               	movf	(___lodiv@divisor+5)^(0+1280),w,c
  5963  005AB0  5A06               	subwfb	(___lodiv@dividend+5)^(0+1280),f,c
  5964  005AB2  500F               	movf	(___lodiv@divisor+6)^(0+1280),w,c
  5965  005AB4  5A07               	subwfb	(___lodiv@dividend+6)^(0+1280),f,c
  5966  005AB6  5010               	movf	(___lodiv@divisor+7)^(0+1280),w,c
  5967  005AB8  5A08               	subwfb	(___lodiv@dividend+7)^(0+1280),f,c
  5968  005ABA  8011               	bsf	___lodiv@quotient^(0+1280),0,c
  5969  005ABC                     i2l4505:
  5970  005ABC  90D8               	bcf	status,0,c
  5971  005ABE  3210               	rrcf	(___lodiv@divisor+7)^(0+1280),f,c
  5972  005AC0  320F               	rrcf	(___lodiv@divisor+6)^(0+1280),f,c
  5973  005AC2  320E               	rrcf	(___lodiv@divisor+5)^(0+1280),f,c
  5974  005AC4  320D               	rrcf	(___lodiv@divisor+4)^(0+1280),f,c
  5975  005AC6  320C               	rrcf	(___lodiv@divisor+3)^(0+1280),f,c
  5976  005AC8  320B               	rrcf	(___lodiv@divisor+2)^(0+1280),f,c
  5977  005ACA  320A               	rrcf	(___lodiv@divisor+1)^(0+1280),f,c
  5978  005ACC  3209               	rrcf	___lodiv@divisor^(0+1280),f,c
  5979  005ACE  2E19               	decfsz	___lodiv@counter^(0+1280),f,c
  5980  005AD0  EF2D  F02D         	goto	i2l4497
  5981  005AD4                     i2l1099:
  5982  005AD4  C511  F501         	movff	___lodiv@quotient,?___lodiv
  5983  005AD8  C512  F502         	movff	___lodiv@quotient+1,?___lodiv+1
  5984  005ADC  C513  F503         	movff	___lodiv@quotient+2,?___lodiv+2
  5985  005AE0  C514  F504         	movff	___lodiv@quotient+3,?___lodiv+3
  5986  005AE4  C515  F505         	movff	___lodiv@quotient+4,?___lodiv+4
  5987  005AE8  C516  F506         	movff	___lodiv@quotient+5,?___lodiv+5
  5988  005AEC  C517  F507         	movff	___lodiv@quotient+6,?___lodiv+6
  5989  005AF0  C518  F508         	movff	___lodiv@quotient+7,?___lodiv+7
  5990  005AF4  0012               	return		;funcret
  5991  005AF6                     __end_of___lodiv:
  5992                           	callstack 0
  5993                           
  5994 ;; *************** function _strncmp *****************
  5995 ;; Defined at:
  5996 ;;		line 3 in file "C:\Program Files\Microchip\xc8\v2.32\pic\sources\c99\common\strncmp.c"
  5997 ;; Parameters:    Size  Location     Type
  5998 ;;  _l              2    0[COMRAM] PTR const unsigned char 
  5999 ;;		 -> vfpfcnvrt@ct(3), 
  6000 ;;  _r              2    2[COMRAM] PTR const unsigned char 
  6001 ;;		 -> STR_19(3), 
  6002 ;;  n               2    4[COMRAM] unsigned int 
  6003 ;; Auto vars:     Size  Location     Type
  6004 ;;  r               2    9[COMRAM] PTR const unsigned char 
  6005 ;;		 -> STR_19(3), 
  6006 ;;  l               2    7[COMRAM] PTR const unsigned char 
  6007 ;;		 -> vfpfcnvrt@ct(3), 
  6008 ;; Return value:  Size  Location     Type
  6009 ;;                  2    0[COMRAM] int 
  6010 ;; Registers used:
  6011 ;;		wreg, fsr2l, fsr2h, status,2, status,0, tblptrl, tblptrh, tblptru
  6012 ;; Tracked objects:
  6013 ;;		On entry : 0/0
  6014 ;;		On exit  : 0/0
  6015 ;;		Unchanged: 0/0
  6016 ;; Data sizes:     COMRAM   BANK5   BANK6   BANK7   BANK8   BANK9  BANK10  BANK11  BANK12  BANK13  BANK14  BANK15  BANK1
      +6  BANK17  BANK18  BANK19  BANK20  BANK21  BANK22  BANK23  BANK24  BANK25  BANK26  BANK27  BANK28  BANK29  BANK30  BANK3
      +1  BANK32  BANK33  BANK34  BANK35  BANK36  BANK37
  6017 ;;      Params:         6       0       0       0       0       0       0       0       0       0       0       0       
      +0       0       0       0       0       0       0       0       0       0       0       0       0       0       0       
      +0       0       0       0       0       0       0
  6018 ;;      Locals:         4       0       0       0       0       0       0       0       0       0       0       0       
      +0       0       0       0       0       0       0       0       0       0       0       0       0       0       0       
      +0       0       0       0       0       0       0
  6019 ;;      Temps:          1       0       0       0       0       0       0       0       0       0       0       0       
      +0       0       0       0       0       0       0       0       0       0       0       0       0       0       0       
      +0       0       0       0       0       0       0
  6020 ;;      Totals:        11       0       0       0       0       0       0       0       0       0       0       0       
      +0       0       0       0       0       0       0       0       0       0       0       0       0       0       0       
      +0       0       0       0       0       0       0
  6021 ;;Total ram usage:       11 bytes
  6022 ;; Hardware stack levels used: 1
  6023 ;; This function calls:
  6024 ;;		Nothing
  6025 ;; This function is called by:
  6026 ;;		_vfpfcnvrt
  6027 ;; This function uses a non-reentrant model
  6028 ;;
  6029                           
  6030                           	psect	text36
  6031  00581A                     __ptext36:
  6032                           	callstack 0
  6033  00581A                     _strncmp:
  6034                           	callstack 118
  6035  00581A  C501  F508         	movff	strncmp@_l,strncmp@l
  6036  00581E  C502  F509         	movff	strncmp@_l+1,strncmp@l+1
  6037  005822  C503  F50A         	movff	strncmp@_r,strncmp@r
  6038  005826  C504  F50B         	movff	strncmp@_r+1,strncmp@r+1
  6039  00582A  0605               	decf	strncmp@n^(0+1280),f,c
  6040  00582C  A0D8               	btfss	status,0,c
  6041  00582E  0606               	decf	(strncmp@n+1)^(0+1280),f,c
  6042  005830  2805               	incf	strncmp@n^(0+1280),w,c
  6043  005832  E106               	bnz	i2u582_41
  6044  005834  2806               	incf	(strncmp@n+1)^(0+1280),w,c
  6045  005836  A4D8               	btfss	status,2,c
  6046  005838  EF20  F02C         	goto	i2u582_41
  6047  00583C  EF22  F02C         	goto	i2u582_40
  6048  005840                     i2u582_41:
  6049  005840  EF2F  F02C         	goto	i2l5143
  6050  005844                     i2u582_40:
  6051  005844  0E00               	movlw	0
  6052  005846  6E02               	movwf	(?_strncmp+1)^(0+1280),c
  6053  005848  0E00               	movlw	0
  6054  00584A  6E01               	movwf	?_strncmp^(0+1280),c
  6055  00584C  EF89  F02C         	goto	i2l1732
  6056  005850                     i2l5141:
  6057  005850  4A08               	infsnz	strncmp@l^(0+1280),f,c
  6058  005852  2A09               	incf	(strncmp@l+1)^(0+1280),f,c
  6059  005854  4A0A               	infsnz	strncmp@r^(0+1280),f,c
  6060  005856  2A0B               	incf	(strncmp@r+1)^(0+1280),f,c
  6061  005858  0605               	decf	strncmp@n^(0+1280),f,c
  6062  00585A  A0D8               	btfss	status,0,c
  6063  00585C  0606               	decf	(strncmp@n+1)^(0+1280),f,c
  6064  00585E                     i2l5143:
  6065  00585E  0061  F420  F4D9   	movff	strncmp@l,fsr2l
  6066  005864  0061  F424  F4DA   	movff	strncmp@l+1,fsr2h
  6067  00586A  50DF               	movf	indf2,w,c
  6068  00586C  B4D8               	btfsc	status,2,c
  6069  00586E  EF3B  F02C         	goto	i2u583_41
  6070  005872  EF3D  F02C         	goto	i2u583_40
  6071  005876                     i2u583_41:
  6072  005876  EF72  F02C         	goto	i2l5151
  6073  00587A                     i2u583_40:
  6074  00587A  0061  F428  F4F6   	movff	strncmp@r,tblptrl
  6075  005880  0061  F42C  F4F7   	movff	strncmp@r+1,tblptrh
  6076  005886                     	if	0	;tblptru may be non-zero
  6077  005886                     	endif
  6078  005886                     	if	1	;Program memory is > 0xFFFF, there are 3 active tblptr bytes
  6079  005886  0E00               	movlw	low (__mediumconst shr (0+16))
  6080  005888  6EF8               	movwf	tblptru,c
  6081  00588A                     	endif
  6082  00588A  0008               	tblrd		*
  6083  00588C  50F5               	movf	tablat,w,c
  6084  00588E  0900               	iorlw	0
  6085  005890  B4D8               	btfsc	status,2,c
  6086  005892  EF4D  F02C         	goto	i2u584_41
  6087  005896  EF4F  F02C         	goto	i2u584_40
  6088  00589A                     i2u584_41:
  6089  00589A  EF72  F02C         	goto	i2l5151
  6090  00589E                     i2u584_40:
  6091  00589E  5005               	movf	strncmp@n^(0+1280),w,c
  6092  0058A0  1006               	iorwf	(strncmp@n+1)^(0+1280),w,c
  6093  0058A2  B4D8               	btfsc	status,2,c
  6094  0058A4  EF56  F02C         	goto	i2u585_41
  6095  0058A8  EF58  F02C         	goto	i2u585_40
  6096  0058AC                     i2u585_41:
  6097  0058AC  EF72  F02C         	goto	i2l5151
  6098  0058B0                     i2u585_40:
  6099  0058B0  0061  F420  F4D9   	movff	strncmp@l,fsr2l
  6100  0058B6  0061  F424  F4DA   	movff	strncmp@l+1,fsr2h
  6101  0058BC  50DF               	movf	indf2,w,c
  6102  0058BE  6E07               	movwf	??_strncmp^(0+1280),c
  6103  0058C0  0061  F428  F4F6   	movff	strncmp@r,tblptrl
  6104  0058C6  0061  F42C  F4F7   	movff	strncmp@r+1,tblptrh
  6105  0058CC                     	if	0	;tblptru may be non-zero
  6106  0058CC                     	endif
  6107  0058CC                     	if	1	;Program memory is > 0xFFFF, there are 3 active tblptr bytes
  6108  0058CC  0E00               	movlw	low (__mediumconst shr (0+16))
  6109  0058CE  6EF8               	movwf	tblptru,c
  6110  0058D0                     	endif
  6111  0058D0  0008               	tblrd		*
  6112  0058D2  50F5               	movf	tablat,w,c
  6113  0058D4  1807               	xorwf	??_strncmp^(0+1280),w,c
  6114  0058D6  B4D8               	btfsc	status,2,c
  6115  0058D8  EF70  F02C         	goto	i2u586_41
  6116  0058DC  EF72  F02C         	goto	i2u586_40
  6117  0058E0                     i2u586_41:
  6118  0058E0  EF28  F02C         	goto	i2l5141
  6119  0058E4                     i2u586_40:
  6120  0058E4                     i2l5151:
  6121  0058E4  0061  F420  F4D9   	movff	strncmp@l,fsr2l
  6122  0058EA  0061  F424  F4DA   	movff	strncmp@l+1,fsr2h
  6123  0058F0  50DF               	movf	indf2,w,c
  6124  0058F2  6E07               	movwf	??_strncmp^(0+1280),c
  6125  0058F4  0061  F428  F4F6   	movff	strncmp@r,tblptrl
  6126  0058FA  0061  F42C  F4F7   	movff	strncmp@r+1,tblptrh
  6127  005900                     	if	0	;tblptru may be non-zero
  6128  005900                     	endif
  6129  005900                     	if	1	;Program memory is > 0xFFFF, there are 3 active tblptr bytes
  6130  005900  0E00               	movlw	low (__mediumconst shr (0+16))
  6131  005902  6EF8               	movwf	tblptru,c
  6132  005904                     	endif
  6133  005904  0008               	tblrd		*
  6134  005906  50F5               	movf	tablat,w,c
  6135  005908  5C07               	subwf	??_strncmp^(0+1280),w,c
  6136  00590A  6E01               	movwf	?_strncmp^(0+1280),c
  6137  00590C  6A02               	clrf	(?_strncmp+1)^(0+1280),c
  6138  00590E  A0D8               	btfss	status,0,c
  6139  005910  0602               	decf	(?_strncmp+1)^(0+1280),f,c
  6140  005912                     i2l1732:
  6141  005912  0012               	return		;funcret
  6142  005914                     __end_of_strncmp:
  6143                           	callstack 0
  6144                           
  6145 ;; *************** function _stoa *****************
  6146 ;; Defined at:
  6147 ;;		line 568 in file "C:\Program Files\Microchip\xc8\v2.32\pic\sources\c99\common\doprnt.c"
  6148 ;; Parameters:    Size  Location     Type
  6149 ;;  fp              2   11[COMRAM] PTR struct _IO_FILE
  6150 ;;		 -> NULL(0), sprintf@f(6), 
  6151 ;;  s               2   13[COMRAM] PTR unsigned char 
  6152 ;;		 -> ?_printf(2), ?_sprintf(2), sensor_interrupt@value_hex(4), sensor_interrupt@value(2), 
  6153 ;; Auto vars:     Size  Location     Type
  6154 ;;  nuls            7   16[COMRAM] unsigned char [7]
  6155 ;;  l               2   31[COMRAM] int 
  6156 ;;  p               2   29[COMRAM] int 
  6157 ;;  cp              2   27[COMRAM] PTR unsigned char 
  6158 ;;		 -> ?_printf(2), stoa@nuls(7), ?_sprintf(2), sensor_interrupt@value_hex(4), 
  6159 ;;		 -> sensor_interrupt@value(2), 
  6160 ;;  w               2   25[COMRAM] int 
  6161 ;;  i               2   23[COMRAM] int 
  6162 ;; Return value:  Size  Location     Type
  6163 ;;                  2   11[COMRAM] int 
  6164 ;; Registers used:
  6165 ;;		wreg, fsr1l, fsr1h, fsr2l, fsr2h, status,2, status,0, cstack
  6166 ;; Tracked objects:
  6167 ;;		On entry : 0/0
  6168 ;;		On exit  : 0/0
  6169 ;;		Unchanged: 0/0
  6170 ;; Data sizes:     COMRAM   BANK5   BANK6   BANK7   BANK8   BANK9  BANK10  BANK11  BANK12  BANK13  BANK14  BANK15  BANK1
      +6  BANK17  BANK18  BANK19  BANK20  BANK21  BANK22  BANK23  BANK24  BANK25  BANK26  BANK27  BANK28  BANK29  BANK30  BANK3
      +1  BANK32  BANK33  BANK34  BANK35  BANK36  BANK37
  6171 ;;      Params:         4       0       0       0       0       0       0       0       0       0       0       0       
      +0       0       0       0       0       0       0       0       0       0       0       0       0       0       0       
      +0       0       0       0       0       0       0
  6172 ;;      Locals:        17       0       0       0       0       0       0       0       0       0       0       0       
      +0       0       0       0       0       0       0       0       0       0       0       0       0       0       0       
      +0       0       0       0       0       0       0
  6173 ;;      Temps:          1       0       0       0       0       0       0       0       0       0       0       0       
      +0       0       0       0       0       0       0       0       0       0       0       0       0       0       0       
      +0       0       0       0       0       0       0
  6174 ;;      Totals:        22       0       0       0       0       0       0       0       0       0       0       0       
      +0       0       0       0       0       0       0       0       0       0       0       0       0       0       0       
      +0       0       0       0       0       0       0
  6175 ;;Total ram usage:       22 bytes
  6176 ;; Hardware stack levels used: 1
  6177 ;; Hardware stack levels required when called: 3
  6178 ;; This function calls:
  6179 ;;		_fputc
  6180 ;;		_strlen
  6181 ;; This function is called by:
  6182 ;;		_vfpfcnvrt
  6183 ;; This function uses a non-reentrant model
  6184 ;;
  6185                           
  6186                           	psect	text37
  6187  005388                     __ptext37:
  6188                           	callstack 0
  6189  005388                     _stoa:
  6190                           	callstack 115
  6191  005388                     
  6192                           ;C:\Program Files\Microchip\xc8\v2.32\pic\sources\c99\common\doprnt.c: 568: static int s
      +                          toa(FILE *fp, char *s);C:\Program Files\Microchip\xc8\v2.32\pic\sources\c99\common\doprn
      +                          t.c: 569: {;C:\Program Files\Microchip\xc8\v2.32\pic\sources\c99\common\doprnt.c: 570:  
      +                             char *cp, nuls[] = "(null)";
  6193  005388  EE21  F1DC         	lfsr	2,stoa@F1155
  6194  00538C  EE11  F111         	lfsr	1,stoa@nuls
  6195  005390  0E06               	movlw	6
  6196  005392                     i2u542_41:
  6197  005392  C4DB F4E3          	movff	plusw2,plusw1
  6198  005396  06E8               	decf	wreg,f,c
  6199  005398  E2FC               	bc	i2u542_41
  6200  00539A                     
  6201                           ;C:\Program Files\Microchip\xc8\v2.32\pic\sources\c99\common\doprnt.c: 571:     int i, l
      +                          , p, w;;C:\Program Files\Microchip\xc8\v2.32\pic\sources\c99\common\doprnt.c: 574:     c
      +                          p = s;
  6202  00539A  C50E  F51C         	movff	stoa@s,stoa@cp
  6203  00539E  C50F  F51D         	movff	stoa@s+1,stoa@cp+1
  6204  0053A2                     
  6205                           ;C:\Program Files\Microchip\xc8\v2.32\pic\sources\c99\common\doprnt.c: 575:     if (!cp)
      +                           {
  6206  0053A2  501C               	movf	stoa@cp^(0+1280),w,c
  6207  0053A4  101D               	iorwf	(stoa@cp+1)^(0+1280),w,c
  6208  0053A6  A4D8               	btfss	status,2,c
  6209  0053A8  EFD8  F029         	goto	i2u543_41
  6210  0053AC  EFDA  F029         	goto	i2u543_40
  6211  0053B0                     i2u543_41:
  6212  0053B0  EFDE  F029         	goto	i2l4957
  6213  0053B4                     i2u543_40:
  6214  0053B4                     
  6215                           ;C:\Program Files\Microchip\xc8\v2.32\pic\sources\c99\common\doprnt.c: 576:         cp =
      +                           nuls;
  6216  0053B4  0E11               	movlw	low stoa@nuls
  6217  0053B6  6E1C               	movwf	stoa@cp^(0+1280),c
  6218  0053B8  0E05               	movlw	high stoa@nuls
  6219  0053BA  6E1D               	movwf	(stoa@cp+1)^(0+1280),c
  6220  0053BC                     i2l4957:
  6221                           
  6222                           ;C:\Program Files\Microchip\xc8\v2.32\pic\sources\c99\common\doprnt.c: 580:     l = (int
      +                          )strlen(cp);
  6223  0053BC  C51C  F501         	movff	stoa@cp,strlen@s
  6224  0053C0  C51D  F502         	movff	stoa@cp+1,strlen@s+1
  6225  0053C4  EC2D  F033         	call	_strlen	;wreg free
  6226  0053C8  C501  F520         	movff	?_strlen,stoa@l
  6227  0053CC  C502  F521         	movff	?_strlen+1,stoa@l+1
  6228  0053D0                     
  6229                           ;C:\Program Files\Microchip\xc8\v2.32\pic\sources\c99\common\doprnt.c: 581:     p = prec
      +                          ;
  6230  0053D0  C5D8  F51E         	movff	_prec,stoa@p
  6231  0053D4  C5D9  F51F         	movff	_prec+1,stoa@p+1
  6232  0053D8                     
  6233                           ;C:\Program Files\Microchip\xc8\v2.32\pic\sources\c99\common\doprnt.c: 582:     l = (!(p
      +                           < 0) && (p < l)) ? p : l;
  6234  0053D8  BE1F               	btfsc	(stoa@p+1)^(0+1280),7,c
  6235  0053DA  EFF1  F029         	goto	i2u544_41
  6236  0053DE  EFF3  F029         	goto	i2u544_40
  6237  0053E2                     i2u544_41:
  6238  0053E2  EF08  F02A         	goto	i2l1491
  6239  0053E6                     i2u544_40:
  6240  0053E6  5020               	movf	stoa@l^(0+1280),w,c
  6241  0053E8  5C1E               	subwf	stoa@p^(0+1280),w,c
  6242  0053EA  501F               	movf	(stoa@p+1)^(0+1280),w,c
  6243  0053EC  0A80               	xorlw	128
  6244  0053EE  6E10               	movwf	??_stoa^(0+1280),c
  6245  0053F0  5021               	movf	(stoa@l+1)^(0+1280),w,c
  6246  0053F2  0A80               	xorlw	128
  6247  0053F4  5810               	subwfb	??_stoa^(0+1280),w,c
  6248  0053F6  A0D8               	btfss	status,0,c
  6249  0053F8  EF00  F02A         	goto	i2u545_41
  6250  0053FC  EF02  F02A         	goto	i2u545_40
  6251  005400                     i2u545_41:
  6252  005400  EF04  F02A         	goto	i2l1489
  6253  005404                     i2u545_40:
  6254  005404  EF08  F02A         	goto	i2l1491
  6255  005408                     i2l1489:
  6256  005408  C51E  F520         	movff	stoa@p,stoa@l
  6257  00540C  C51F  F521         	movff	stoa@p+1,stoa@l+1
  6258  005410                     i2l1491:
  6259                           
  6260                           ;C:\Program Files\Microchip\xc8\v2.32\pic\sources\c99\common\doprnt.c: 583:     p = l;
  6261  005410  C520  F51E         	movff	stoa@l,stoa@p
  6262  005414  C521  F51F         	movff	stoa@l+1,stoa@p+1
  6263                           
  6264                           ;C:\Program Files\Microchip\xc8\v2.32\pic\sources\c99\common\doprnt.c: 584:     w = widt
      +                          h;
  6265  005418  C5D6  F51A         	movff	_width,stoa@w
  6266  00541C  C5D7  F51B         	movff	_width+1,stoa@w+1
  6267                           
  6268                           ;C:\Program Files\Microchip\xc8\v2.32\pic\sources\c99\common\doprnt.c: 587:     if (!(fl
      +                          ags & (1 << 0))) {
  6269  005420  0105               	movlb	5	; () banked
  6270  005422  B1DA               	btfsc	_flags& (0+255),0,b
  6271  005424  EF16  F02A         	goto	i2u546_41
  6272  005428  EF18  F02A         	goto	i2u546_40
  6273  00542C                     i2u546_41:
  6274  00542C  EF35  F02A         	goto	i2l4973
  6275  005430                     i2u546_40:
  6276  005430  EF26  F02A         	goto	i2l4971
  6277  005434                     i2l4967:
  6278                           
  6279                           ;C:\Program Files\Microchip\xc8\v2.32\pic\sources\c99\common\doprnt.c: 589:             
      +                          fputc(' ', fp);
  6280  005434  0E00               	movlw	0
  6281  005436  6E04               	movwf	(fputc@c+1)^(0+1280),c
  6282  005438  0E20               	movlw	32
  6283  00543A  6E03               	movwf	fputc@c^(0+1280),c
  6284  00543C  C50C  F505         	movff	stoa@fp,fputc@fp
  6285  005440  C50D  F506         	movff	stoa@fp+1,fputc@fp+1
  6286  005444  EC7B  F02D         	call	_fputc	;wreg free
  6287  005448                     
  6288                           ;C:\Program Files\Microchip\xc8\v2.32\pic\sources\c99\common\doprnt.c: 590:             
      +                          ++l;
  6289  005448  4A20               	infsnz	stoa@l^(0+1280),f,c
  6290  00544A  2A21               	incf	(stoa@l+1)^(0+1280),f,c
  6291  00544C                     i2l4971:
  6292                           
  6293                           ;C:\Program Files\Microchip\xc8\v2.32\pic\sources\c99\common\doprnt.c: 588:         whil
      +                          e (l < w) {
  6294  00544C  501A               	movf	stoa@w^(0+1280),w,c
  6295  00544E  5C20               	subwf	stoa@l^(0+1280),w,c
  6296  005450  5021               	movf	(stoa@l+1)^(0+1280),w,c
  6297  005452  0A80               	xorlw	128
  6298  005454  6E10               	movwf	??_stoa^(0+1280),c
  6299  005456  501B               	movf	(stoa@w+1)^(0+1280),w,c
  6300  005458  0A80               	xorlw	128
  6301  00545A  5810               	subwfb	??_stoa^(0+1280),w,c
  6302  00545C  A0D8               	btfss	status,0,c
  6303  00545E  EF33  F02A         	goto	i2u547_41
  6304  005462  EF35  F02A         	goto	i2u547_40
  6305  005466                     i2u547_41:
  6306  005466  EF1A  F02A         	goto	i2l4967
  6307  00546A                     i2u547_40:
  6308  00546A                     i2l4973:
  6309                           
  6310                           ;C:\Program Files\Microchip\xc8\v2.32\pic\sources\c99\common\doprnt.c: 595:     i = 0;
  6311  00546A  0E00               	movlw	0
  6312  00546C  6E19               	movwf	(stoa@i+1)^(0+1280),c
  6313  00546E  0E00               	movlw	0
  6314  005470  6E18               	movwf	stoa@i^(0+1280),c
  6315                           
  6316                           ;C:\Program Files\Microchip\xc8\v2.32\pic\sources\c99\common\doprnt.c: 596:     while (i
      +                           < p) {
  6317  005472  EF50  F02A         	goto	i2l4981
  6318  005476                     i2l4975:
  6319                           
  6320                           ;C:\Program Files\Microchip\xc8\v2.32\pic\sources\c99\common\doprnt.c: 597:         fput
      +                          c(*cp, fp);
  6321  005476  0061  F470  F4D9   	movff	stoa@cp,fsr2l
  6322  00547C  0061  F474  F4DA   	movff	stoa@cp+1,fsr2h
  6323  005482  50DF               	movf	indf2,w,c
  6324  005484  6E10               	movwf	??_stoa^(0+1280),c
  6325  005486  5010               	movf	??_stoa^(0+1280),w,c
  6326  005488  6E03               	movwf	fputc@c^(0+1280),c
  6327  00548A  6A04               	clrf	(fputc@c+1)^(0+1280),c
  6328  00548C  C50C  F505         	movff	stoa@fp,fputc@fp
  6329  005490  C50D  F506         	movff	stoa@fp+1,fputc@fp+1
  6330  005494  EC7B  F02D         	call	_fputc	;wreg free
  6331  005498                     
  6332                           ;C:\Program Files\Microchip\xc8\v2.32\pic\sources\c99\common\doprnt.c: 598:         ++cp
      +                          ;
  6333  005498  4A1C               	infsnz	stoa@cp^(0+1280),f,c
  6334  00549A  2A1D               	incf	(stoa@cp+1)^(0+1280),f,c
  6335  00549C                     
  6336                           ;C:\Program Files\Microchip\xc8\v2.32\pic\sources\c99\common\doprnt.c: 599:         ++i;
  6337  00549C  4A18               	infsnz	stoa@i^(0+1280),f,c
  6338  00549E  2A19               	incf	(stoa@i+1)^(0+1280),f,c
  6339  0054A0                     i2l4981:
  6340                           
  6341                           ;C:\Program Files\Microchip\xc8\v2.32\pic\sources\c99\common\doprnt.c: 596:     while (i
      +                           < p) {
  6342  0054A0  501E               	movf	stoa@p^(0+1280),w,c
  6343  0054A2  5C18               	subwf	stoa@i^(0+1280),w,c
  6344  0054A4  5019               	movf	(stoa@i+1)^(0+1280),w,c
  6345  0054A6  0A80               	xorlw	128
  6346  0054A8  6E10               	movwf	??_stoa^(0+1280),c
  6347  0054AA  501F               	movf	(stoa@p+1)^(0+1280),w,c
  6348  0054AC  0A80               	xorlw	128
  6349  0054AE  5810               	subwfb	??_stoa^(0+1280),w,c
  6350  0054B0  A0D8               	btfss	status,0,c
  6351  0054B2  EF5D  F02A         	goto	i2u548_41
  6352  0054B6  EF5F  F02A         	goto	i2u548_40
  6353  0054BA                     i2u548_41:
  6354  0054BA  EF3B  F02A         	goto	i2l4975
  6355  0054BE                     i2u548_40:
  6356  0054BE                     
  6357                           ;C:\Program Files\Microchip\xc8\v2.32\pic\sources\c99\common\doprnt.c: 603:     if (flag
      +                          s & (1 << 0)) {
  6358  0054BE  0105               	movlb	5	; () banked
  6359  0054C0  A1DA               	btfss	_flags& (0+255),0,b
  6360  0054C2  EF65  F02A         	goto	i2u549_41
  6361  0054C6  EF67  F02A         	goto	i2u549_40
  6362  0054CA                     i2u549_41:
  6363  0054CA  EF84  F02A         	goto	i2l1501
  6364  0054CE                     i2u549_40:
  6365  0054CE  EF75  F02A         	goto	i2l4989
  6366  0054D2                     i2l4985:
  6367                           
  6368                           ;C:\Program Files\Microchip\xc8\v2.32\pic\sources\c99\common\doprnt.c: 605:             
      +                          fputc(' ', fp);
  6369  0054D2  0E00               	movlw	0
  6370  0054D4  6E04               	movwf	(fputc@c+1)^(0+1280),c
  6371  0054D6  0E20               	movlw	32
  6372  0054D8  6E03               	movwf	fputc@c^(0+1280),c
  6373  0054DA  C50C  F505         	movff	stoa@fp,fputc@fp
  6374  0054DE  C50D  F506         	movff	stoa@fp+1,fputc@fp+1
  6375  0054E2  EC7B  F02D         	call	_fputc	;wreg free
  6376  0054E6                     
  6377                           ;C:\Program Files\Microchip\xc8\v2.32\pic\sources\c99\common\doprnt.c: 606:             
      +                          ++l;
  6378  0054E6  4A20               	infsnz	stoa@l^(0+1280),f,c
  6379  0054E8  2A21               	incf	(stoa@l+1)^(0+1280),f,c
  6380  0054EA                     i2l4989:
  6381                           
  6382                           ;C:\Program Files\Microchip\xc8\v2.32\pic\sources\c99\common\doprnt.c: 604:         whil
      +                          e (l < w) {
  6383  0054EA  501A               	movf	stoa@w^(0+1280),w,c
  6384  0054EC  5C20               	subwf	stoa@l^(0+1280),w,c
  6385  0054EE  5021               	movf	(stoa@l+1)^(0+1280),w,c
  6386  0054F0  0A80               	xorlw	128
  6387  0054F2  6E10               	movwf	??_stoa^(0+1280),c
  6388  0054F4  501B               	movf	(stoa@w+1)^(0+1280),w,c
  6389  0054F6  0A80               	xorlw	128
  6390  0054F8  5810               	subwfb	??_stoa^(0+1280),w,c
  6391  0054FA  A0D8               	btfss	status,0,c
  6392  0054FC  EF82  F02A         	goto	i2u550_41
  6393  005500  EF84  F02A         	goto	i2u550_40
  6394  005504                     i2u550_41:
  6395  005504  EF69  F02A         	goto	i2l4985
  6396  005508                     i2u550_40:
  6397  005508                     i2l1501:
  6398                           
  6399                           ;C:\Program Files\Microchip\xc8\v2.32\pic\sources\c99\common\doprnt.c: 610:     return l
      +                          ;
  6400  005508  C520  F50C         	movff	stoa@l,?_stoa
  6401  00550C  C521  F50D         	movff	stoa@l+1,?_stoa+1
  6402  005510  0012               	return		;funcret
  6403  005512                     __end_of_stoa:
  6404                           	callstack 0
  6405                           
  6406 ;; *************** function _efgtoa *****************
  6407 ;; Defined at:
  6408 ;;		line 332 in file "C:\Program Files\Microchip\xc8\v2.32\pic\sources\c99\common\doprnt.c"
  6409 ;; Parameters:    Size  Location     Type
  6410 ;;  fp              2   63[COMRAM] PTR struct _IO_FILE
  6411 ;;		 -> NULL(0), sprintf@f(6), 
  6412 ;;  f               4   65[COMRAM] PTR struct _IO_FILE
  6413 ;;  c               1   69[COMRAM] unsigned char 
  6414 ;; Auto vars:     Size  Location     Type
  6415 ;;  u               4   52[BANK5 ] unsigned char 
  6416 ;;  g               4   44[BANK5 ] unsigned char 
  6417 ;;  l               4   38[BANK5 ] unsigned char 
  6418 ;;  h               4   34[BANK5 ] unsigned char 
  6419 ;;  ou              4   20[BANK5 ] unsigned char 
  6420 ;;  n               2   50[BANK5 ] int 
  6421 ;;  e               2   48[BANK5 ] int 
  6422 ;;  i               2   42[BANK5 ] int 
  6423 ;;  w               2   30[BANK5 ] int 
  6424 ;;  p               2   28[BANK5 ] int 
  6425 ;;  sign            2   26[BANK5 ] int 
  6426 ;;  d               2   24[BANK5 ] int 
  6427 ;;  m               2   18[BANK5 ] int 
  6428 ;;  ne              2   16[BANK5 ] int 
  6429 ;;  pp              2   14[BANK5 ] int 
  6430 ;;  t               2   12[BANK5 ] int 
  6431 ;;  mode            1   33[BANK5 ] unsigned char 
  6432 ;;  nmode           1   32[BANK5 ] unsigned char 
  6433 ;; Return value:  Size  Location     Type
  6434 ;;                  2   63[COMRAM] int 
  6435 ;; Registers used:
  6436 ;;		wreg, fsr0l, fsr0h, fsr1l, fsr1h, fsr2l, fsr2h, status,2, status,0, tblptrl, tblptrh, tblptru, prodl, prodh, cstack
  6437 ;; Tracked objects:
  6438 ;;		On entry : 0/0
  6439 ;;		On exit  : 0/0
  6440 ;;		Unchanged: 0/0
  6441 ;; Data sizes:     COMRAM   BANK5   BANK6   BANK7   BANK8   BANK9  BANK10  BANK11  BANK12  BANK13  BANK14  BANK15  BANK1
      +6  BANK17  BANK18  BANK19  BANK20  BANK21  BANK22  BANK23  BANK24  BANK25  BANK26  BANK27  BANK28  BANK29  BANK30  BANK3
      +1  BANK32  BANK33  BANK34  BANK35  BANK36  BANK37
  6442 ;;      Params:         7       0       0       0       0       0       0       0       0       0       0       0       
      +0       0       0       0       0       0       0       0       0       0       0       0       0       0       0       
      +0       0       0       0       0       0       0
  6443 ;;      Locals:         0      56       0       0       0       0       0       0       0       0       0       0       
      +0       0       0       0       0       0       0       0       0       0       0       0       0       0       0       
      +0       0       0       0       0       0       0
  6444 ;;      Temps:          5       0       0       0       0       0       0       0       0       0       0       0       
      +0       0       0       0       0       0       0       0       0       0       0       0       0       0       0       
      +0       0       0       0       0       0       0
  6445 ;;      Totals:        12      56       0       0       0       0       0       0       0       0       0       0       
      +0       0       0       0       0       0       0       0       0       0       0       0       0       0       0       
      +0       0       0       0       0       0       0
  6446 ;;Total ram usage:       68 bytes
  6447 ;; Hardware stack levels used: 1
  6448 ;; Hardware stack levels required when called: 5
  6449 ;; This function calls:
  6450 ;;		___awdiv
  6451 ;;		___awmod
  6452 ;;		___fladd
  6453 ;;		___fldiv
  6454 ;;		___fleq
  6455 ;;		___flge
  6456 ;;		___flmul
  6457 ;;		___flneg
  6458 ;;		___flsub
  6459 ;;		___fltol
  6460 ;;		___fpclassifyf
  6461 ;;		_floorf
  6462 ;;		_isupper
  6463 ;;		_pad
  6464 ;;		_strcpy
  6465 ;;		_tolower
  6466 ;; This function is called by:
  6467 ;;		_vfpfcnvrt
  6468 ;; This function uses a non-reentrant model
  6469 ;;
  6470                           
  6471                           	psect	text38
  6472  002664                     __ptext38:
  6473                           	callstack 0
  6474  002664                     _efgtoa:
  6475                           	callstack 113
  6476  002664                     
  6477                           ;C:\Program Files\Microchip\xc8\v2.32\pic\sources\c99\common\doprnt.c: 332: static int e
      +                          fgtoa(FILE *fp, long double f, char c);C:\Program Files\Microchip\xc8\v2.32\pic\sources\
      +                          c99\common\doprnt.c: 333: {;C:\Program Files\Microchip\xc8\v2.32\pic\sources\c99\common\
      +                          doprnt.c: 334:     char mode, nmode;;C:\Program Files\Microchip\xc8\v2.32\pic\sources\c9
      +                          9\common\doprnt.c: 335:     int d, e, i, m, n, ne, p, pp, sign, t, w;;C:\Program Files\M
      +                          icrochip\xc8\v2.32\pic\sources\c99\common\doprnt.c: 336:     long double g, h, l, ou, u;
  6478  002664  0E00               	movlw	0
  6479  002666  0105               	movlb	5	; () banked
  6480  002668  6F7B               	movwf	(efgtoa@sign+1)& (0+255),b
  6481  00266A  0E00               	movlw	0
  6482  00266C  6F7A               	movwf	efgtoa@sign& (0+255),b
  6483  00266E                     
  6484                           ; BSR set to: 5
  6485                           ;C:\Program Files\Microchip\xc8\v2.32\pic\sources\c99\common\doprnt.c: 340:     g = f;
  6486  00266E  C542  F58C         	movff	efgtoa@f,efgtoa@g
  6487  002672  C543  F58D         	movff	efgtoa@f+1,efgtoa@g+1
  6488  002676  C544  F58E         	movff	efgtoa@f+2,efgtoa@g+2
  6489  00267A  C545  F58F         	movff	efgtoa@f+3,efgtoa@g+3
  6490  00267E                     
  6491                           ; BSR set to: 5
  6492                           ;C:\Program Files\Microchip\xc8\v2.32\pic\sources\c99\common\doprnt.c: 341:     if (g < 
      +                          0.0) {
  6493  00267E  BF8F               	btfsc	(efgtoa@g+3)& (0+255),7,b
  6494  002680  EF46  F013         	goto	i2u488_40
  6495  002684  EF44  F013         	goto	i2u488_41
  6496  002688                     i2u488_41:
  6497  002688  EF5C  F013         	goto	i2l4651
  6498  00268C                     i2u488_40:
  6499  00268C                     
  6500                           ; BSR set to: 5
  6501                           ;C:\Program Files\Microchip\xc8\v2.32\pic\sources\c99\common\doprnt.c: 342:         sign
      +                           = 1;
  6502  00268C  0E00               	movlw	0
  6503  00268E  6F7B               	movwf	(efgtoa@sign+1)& (0+255),b
  6504  002690  0E01               	movlw	1
  6505  002692  6F7A               	movwf	efgtoa@sign& (0+255),b
  6506  002694                     
  6507                           ; BSR set to: 5
  6508                           ;C:\Program Files\Microchip\xc8\v2.32\pic\sources\c99\common\doprnt.c: 343:         g = 
      +                          -g;
  6509  002694  C58C  F501         	movff	efgtoa@g,___flneg@f1
  6510  002698  C58D  F502         	movff	efgtoa@g+1,___flneg@f1+1
  6511  00269C  C58E  F503         	movff	efgtoa@g+2,___flneg@f1+2
  6512  0026A0  C58F  F504         	movff	efgtoa@g+3,___flneg@f1+3
  6513  0026A4  EC82  F033         	call	___flneg	;wreg free
  6514  0026A8  C501  F58C         	movff	?___flneg,efgtoa@g
  6515  0026AC  C502  F58D         	movff	?___flneg+1,efgtoa@g+1
  6516  0026B0  C503  F58E         	movff	?___flneg+2,efgtoa@g+2
  6517  0026B4  C504  F58F         	movff	?___flneg+3,efgtoa@g+3
  6518  0026B8                     i2l4651:
  6519                           
  6520                           ;C:\Program Files\Microchip\xc8\v2.32\pic\sources\c99\common\doprnt.c: 347:     n = 0;
  6521  0026B8  0E00               	movlw	0
  6522  0026BA  0105               	movlb	5	; () banked
  6523  0026BC  6F93               	movwf	(efgtoa@n+1)& (0+255),b
  6524  0026BE  0E00               	movlw	0
  6525  0026C0  6F92               	movwf	efgtoa@n& (0+255),b
  6526  0026C2                     
  6527                           ; BSR set to: 5
  6528                           ;C:\Program Files\Microchip\xc8\v2.32\pic\sources\c99\common\doprnt.c: 348:     w = widt
      +                          h;
  6529  0026C2  C5D6  F57E         	movff	_width,efgtoa@w
  6530  0026C6  C5D7  F57F         	movff	_width+1,efgtoa@w+1
  6531  0026CA                     
  6532                           ; BSR set to: 5
  6533                           ;C:\Program Files\Microchip\xc8\v2.32\pic\sources\c99\common\doprnt.c: 349:     if (sign
      +                           || (flags & (1 << 2))) {
  6534  0026CA  517A               	movf	efgtoa@sign& (0+255),w,b
  6535  0026CC  117B               	iorwf	(efgtoa@sign+1)& (0+255),w,b
  6536  0026CE  A4D8               	btfss	status,2,c
  6537  0026D0  EF6C  F013         	goto	i2u489_41
  6538  0026D4  EF6E  F013         	goto	i2u489_40
  6539  0026D8                     i2u489_41:
  6540  0026D8  EF75  F013         	goto	i2l4659
  6541  0026DC                     i2u489_40:
  6542  0026DC                     
  6543                           ; BSR set to: 5
  6544  0026DC  A5DA               	btfss	_flags& (0+255),2,b
  6545  0026DE  EF73  F013         	goto	i2u490_41
  6546  0026E2  EF75  F013         	goto	i2u490_40
  6547  0026E6                     i2u490_41:
  6548  0026E6  EF8F  F013         	goto	i2l4671
  6549  0026EA                     i2u490_40:
  6550  0026EA                     i2l4659:
  6551                           
  6552                           ; BSR set to: 5
  6553                           ;C:\Program Files\Microchip\xc8\v2.32\pic\sources\c99\common\doprnt.c: 350:         dbuf
      +                          [n] = sign ? '-' : '+';
  6554  0026EA  517A               	movf	efgtoa@sign& (0+255),w,b
  6555  0026EC  117B               	iorwf	(efgtoa@sign+1)& (0+255),w,b
  6556  0026EE  A4D8               	btfss	status,2,c
  6557  0026F0  EF7C  F013         	goto	i2u491_41
  6558  0026F4  EF7E  F013         	goto	i2u491_40
  6559  0026F8                     i2u491_41:
  6560  0026F8  EF84  F013         	goto	i2l4663
  6561  0026FC                     i2u491_40:
  6562  0026FC                     
  6563                           ; BSR set to: 5
  6564  0026FC  0E00               	movlw	0
  6565  0026FE  6F61               	movwf	(_efgtoa$1841+1)& (0+255),b
  6566  002700  0E2B               	movlw	43
  6567  002702  6F60               	movwf	_efgtoa$1841& (0+255),b
  6568  002704  EF88  F013         	goto	i2l4665
  6569  002708                     i2l4663:
  6570                           
  6571                           ; BSR set to: 5
  6572  002708  0E00               	movlw	0
  6573  00270A  6F61               	movwf	(_efgtoa$1841+1)& (0+255),b
  6574  00270C  0E2D               	movlw	45
  6575  00270E  6F60               	movwf	_efgtoa$1841& (0+255),b
  6576  002710                     i2l4665:
  6577                           
  6578                           ; BSR set to: 5
  6579  002710  C560  F602         	movff	_efgtoa$1841,_dbuf
  6580  002714                     
  6581                           ; BSR set to: 5
  6582                           ;C:\Program Files\Microchip\xc8\v2.32\pic\sources\c99\common\doprnt.c: 351:         ++n;
  6583  002714  4B92               	infsnz	efgtoa@n& (0+255),f,b
  6584  002716  2B93               	incf	(efgtoa@n+1)& (0+255),f,b
  6585  002718                     
  6586                           ; BSR set to: 5
  6587                           ;C:\Program Files\Microchip\xc8\v2.32\pic\sources\c99\common\doprnt.c: 352:         --w;
  6588  002718  077E               	decf	efgtoa@w& (0+255),f,b
  6589  00271A  A0D8               	btfss	status,0,c
  6590  00271C  077F               	decf	(efgtoa@w+1)& (0+255),f,b
  6591  00271E                     i2l4671:
  6592                           
  6593                           ; BSR set to: 5
  6594                           ;C:\Program Files\Microchip\xc8\v2.32\pic\sources\c99\common\doprnt.c: 357:         if (
      +                          (0 ? isupper((int)c) : ((unsigned)((int)c)-'A') < 26)) {
  6595  00271E  C58C  F501         	movff	efgtoa@g,___fpclassifyf@x
  6596  002722  C58D  F502         	movff	efgtoa@g+1,___fpclassifyf@x+1
  6597  002726  C58E  F503         	movff	efgtoa@g+2,___fpclassifyf@x+2
  6598  00272A  C58F  F504         	movff	efgtoa@g+3,___fpclassifyf@x+3
  6599  00272E  EC8E  F02B         	call	___fpclassifyf	;wreg free
  6600  002732  0401               	decf	?___fpclassifyf^(0+1280),w,c
  6601  002734  1002               	iorwf	(?___fpclassifyf+1)^(0+1280),w,c
  6602  002736  A4D8               	btfss	status,2,c
  6603  002738  EFA0  F013         	goto	i2u492_41
  6604  00273C  EFA2  F013         	goto	i2u492_40
  6605  002740                     i2u492_41:
  6606  002740  EFF9  F013         	goto	i2l4689
  6607  002744                     i2u492_40:
  6608  002744  0EBF               	movlw	191
  6609  002746  6E47               	movwf	??_efgtoa^(0+1280),c
  6610  002748  0EFF               	movlw	255
  6611  00274A  6E48               	movwf	(??_efgtoa+1)^(0+1280),c
  6612  00274C  5046               	movf	efgtoa@c^(0+1280),w,c
  6613  00274E  6E49               	movwf	(??_efgtoa+2)^(0+1280),c
  6614  002750  6A4A               	clrf	(??_efgtoa+3)^(0+1280),c
  6615  002752  5047               	movf	??_efgtoa^(0+1280),w,c
  6616  002754  2649               	addwf	(??_efgtoa+2)^(0+1280),f,c
  6617  002756  5048               	movf	(??_efgtoa+1)^(0+1280),w,c
  6618  002758  224A               	addwfc	(??_efgtoa+3)^(0+1280),f,c
  6619  00275A  504A               	movf	(??_efgtoa+3)^(0+1280),w,c
  6620  00275C  E10A               	bnz	i2u493_40
  6621  00275E  0E1A               	movlw	26
  6622  002760  5C49               	subwf	(??_efgtoa+2)^(0+1280),w,c
  6623  002762  A0D8               	btfss	status,0,c
  6624  002764  EFB6  F013         	goto	i2u493_41
  6625  002768  EFB9  F013         	goto	i2u493_40
  6626  00276C                     i2u493_41:
  6627  00276C  0E01               	movlw	1
  6628  00276E  EFBA  F013         	goto	i2u494_40
  6629  002772                     i2u493_40:
  6630  002772  0E00               	movlw	0
  6631  002774                     i2u494_40:
  6632  002774  0105               	movlb	5	; () banked
  6633  002776  6F62               	movwf	_efgtoa$1842& (0+255),b
  6634  002778  6B63               	clrf	(_efgtoa$1842+1)& (0+255),b
  6635  00277A                     
  6636                           ; BSR set to: 5
  6637  00277A  5162               	movf	_efgtoa$1842& (0+255),w,b
  6638  00277C  1163               	iorwf	(_efgtoa$1842+1)& (0+255),w,b
  6639  00277E  B4D8               	btfsc	status,2,c
  6640  002780  EFC4  F013         	goto	i2u495_41
  6641  002784  EFC6  F013         	goto	i2u495_40
  6642  002788                     i2u495_41:
  6643  002788  EFD4  F013         	goto	i2l4681
  6644  00278C                     i2u495_40:
  6645  00278C                     
  6646                           ; BSR set to: 5
  6647                           ;C:\Program Files\Microchip\xc8\v2.32\pic\sources\c99\common\doprnt.c: 358:             
      +                          strcpy(&dbuf[n], "INF");
  6648  00278C  0E02               	movlw	low _dbuf
  6649  00278E  2592               	addwf	efgtoa@n& (0+255),w,b
  6650  002790  6E01               	movwf	strcpy@dest^(0+1280),c
  6651  002792  0E06               	movlw	high _dbuf
  6652  002794  2193               	addwfc	(efgtoa@n+1)& (0+255),w,b
  6653  002796  6E02               	movwf	(strcpy@dest+1)^(0+1280),c
  6654  002798  0E4F               	movlw	low STR_9
  6655  00279A  6E03               	movwf	strcpy@src^(0+1280),c
  6656  00279C  0E26               	movlw	high STR_9
  6657  00279E  6E04               	movwf	(strcpy@src+1)^(0+1280),c
  6658  0027A0  EC48  F031         	call	_strcpy	;wreg free
  6659                           
  6660                           ;C:\Program Files\Microchip\xc8\v2.32\pic\sources\c99\common\doprnt.c: 359:         } el
      +                          se {
  6661  0027A4  EFE0  F013         	goto	i2l4683
  6662  0027A8                     i2l4681:
  6663                           
  6664                           ; BSR set to: 5
  6665                           ;C:\Program Files\Microchip\xc8\v2.32\pic\sources\c99\common\doprnt.c: 360:             
      +                          strcpy(&dbuf[n], "inf");
  6666  0027A8  0E02               	movlw	low _dbuf
  6667  0027AA  2592               	addwf	efgtoa@n& (0+255),w,b
  6668  0027AC  6E01               	movwf	strcpy@dest^(0+1280),c
  6669  0027AE  0E06               	movlw	high _dbuf
  6670  0027B0  2193               	addwfc	(efgtoa@n+1)& (0+255),w,b
  6671  0027B2  6E02               	movwf	(strcpy@dest+1)^(0+1280),c
  6672  0027B4  0E57               	movlw	low STR_10
  6673  0027B6  6E03               	movwf	strcpy@src^(0+1280),c
  6674  0027B8  0E26               	movlw	high STR_10
  6675  0027BA  6E04               	movwf	(strcpy@src+1)^(0+1280),c
  6676  0027BC  EC48  F031         	call	_strcpy	;wreg free
  6677  0027C0                     i2l4683:
  6678                           
  6679                           ;C:\Program Files\Microchip\xc8\v2.32\pic\sources\c99\common\doprnt.c: 362:         w -=
      +                           ((sizeof("inf")/sizeof("inf"[0]))-1);
  6680  0027C0  0105               	movlb	5	; () banked
  6681  0027C2  0EFD               	movlw	253
  6682  0027C4  277E               	addwf	efgtoa@w& (0+255),f,b
  6683  0027C6  0EFF               	movlw	255
  6684  0027C8  237F               	addwfc	(efgtoa@w+1)& (0+255),f,b
  6685  0027CA                     i2l4685:
  6686                           
  6687                           ;C:\Program Files\Microchip\xc8\v2.32\pic\sources\c99\common\doprnt.c: 363:         retu
      +                          rn pad(fp, &dbuf[0], w);
  6688  0027CA  C540  F513         	movff	efgtoa@fp,pad@fp
  6689  0027CE  C541  F514         	movff	efgtoa@fp+1,pad@fp+1
  6690  0027D2  0E02               	movlw	low _dbuf
  6691  0027D4  6E15               	movwf	pad@buf^(0+1280),c
  6692  0027D6  0E06               	movlw	high _dbuf
  6693  0027D8  6E16               	movwf	(pad@buf+1)^(0+1280),c
  6694  0027DA  C57E  F517         	movff	efgtoa@w,pad@p
  6695  0027DE  C57F  F518         	movff	efgtoa@w+1,pad@p+1
  6696  0027E2  EC4F  F02E         	call	_pad	;wreg free
  6697  0027E6  C513  F540         	movff	?_pad,?_efgtoa
  6698  0027EA  C514  F541         	movff	?_pad+1,?_efgtoa+1
  6699  0027EE  EF5F  F019         	goto	i2l1407
  6700  0027F2                     i2l4689:
  6701                           
  6702                           ;C:\Program Files\Microchip\xc8\v2.32\pic\sources\c99\common\doprnt.c: 366:         if (
      +                          (0 ? isupper((int)c) : ((unsigned)((int)c)-'A') < 26)) {
  6703  0027F2  C58C  F501         	movff	efgtoa@g,___fpclassifyf@x
  6704  0027F6  C58D  F502         	movff	efgtoa@g+1,___fpclassifyf@x+1
  6705  0027FA  C58E  F503         	movff	efgtoa@g+2,___fpclassifyf@x+2
  6706  0027FE  C58F  F504         	movff	efgtoa@g+3,___fpclassifyf@x+3
  6707  002802  EC8E  F02B         	call	___fpclassifyf	;wreg free
  6708  002806  5001               	movf	?___fpclassifyf^(0+1280),w,c
  6709  002808  1002               	iorwf	(?___fpclassifyf+1)^(0+1280),w,c
  6710  00280A  A4D8               	btfss	status,2,c
  6711  00280C  EF0A  F014         	goto	i2u496_41
  6712  002810  EF0C  F014         	goto	i2u496_40
  6713  002814                     i2u496_41:
  6714  002814  EF4C  F014         	goto	i2l4707
  6715  002818                     i2u496_40:
  6716  002818  0EBF               	movlw	191
  6717  00281A  6E47               	movwf	??_efgtoa^(0+1280),c
  6718  00281C  0EFF               	movlw	255
  6719  00281E  6E48               	movwf	(??_efgtoa+1)^(0+1280),c
  6720  002820  5046               	movf	efgtoa@c^(0+1280),w,c
  6721  002822  6E49               	movwf	(??_efgtoa+2)^(0+1280),c
  6722  002824  6A4A               	clrf	(??_efgtoa+3)^(0+1280),c
  6723  002826  5047               	movf	??_efgtoa^(0+1280),w,c
  6724  002828  2649               	addwf	(??_efgtoa+2)^(0+1280),f,c
  6725  00282A  5048               	movf	(??_efgtoa+1)^(0+1280),w,c
  6726  00282C  224A               	addwfc	(??_efgtoa+3)^(0+1280),f,c
  6727  00282E  504A               	movf	(??_efgtoa+3)^(0+1280),w,c
  6728  002830  E10A               	bnz	i2u497_40
  6729  002832  0E1A               	movlw	26
  6730  002834  5C49               	subwf	(??_efgtoa+2)^(0+1280),w,c
  6731  002836  A0D8               	btfss	status,0,c
  6732  002838  EF20  F014         	goto	i2u497_41
  6733  00283C  EF23  F014         	goto	i2u497_40
  6734  002840                     i2u497_41:
  6735  002840  0E01               	movlw	1
  6736  002842  EF24  F014         	goto	i2u498_40
  6737  002846                     i2u497_40:
  6738  002846  0E00               	movlw	0
  6739  002848                     i2u498_40:
  6740  002848  0105               	movlb	5	; () banked
  6741  00284A  6F64               	movwf	_efgtoa$1847& (0+255),b
  6742  00284C  6B65               	clrf	(_efgtoa$1847+1)& (0+255),b
  6743  00284E                     
  6744                           ; BSR set to: 5
  6745  00284E  5164               	movf	_efgtoa$1847& (0+255),w,b
  6746  002850  1165               	iorwf	(_efgtoa$1847+1)& (0+255),w,b
  6747  002852  B4D8               	btfsc	status,2,c
  6748  002854  EF2E  F014         	goto	i2u499_41
  6749  002858  EF30  F014         	goto	i2u499_40
  6750  00285C                     i2u499_41:
  6751  00285C  EF3E  F014         	goto	i2l4699
  6752  002860                     i2u499_40:
  6753  002860                     
  6754                           ; BSR set to: 5
  6755                           ;C:\Program Files\Microchip\xc8\v2.32\pic\sources\c99\common\doprnt.c: 367:             
      +                          strcpy(&dbuf[n], "NAN");
  6756  002860  0E02               	movlw	low _dbuf
  6757  002862  2592               	addwf	efgtoa@n& (0+255),w,b
  6758  002864  6E01               	movwf	strcpy@dest^(0+1280),c
  6759  002866  0E06               	movlw	high _dbuf
  6760  002868  2193               	addwfc	(efgtoa@n+1)& (0+255),w,b
  6761  00286A  6E02               	movwf	(strcpy@dest+1)^(0+1280),c
  6762  00286C  0E53               	movlw	low STR_13
  6763  00286E  6E03               	movwf	strcpy@src^(0+1280),c
  6764  002870  0E26               	movlw	high STR_13
  6765  002872  6E04               	movwf	(strcpy@src+1)^(0+1280),c
  6766  002874  EC48  F031         	call	_strcpy	;wreg free
  6767                           
  6768                           ;C:\Program Files\Microchip\xc8\v2.32\pic\sources\c99\common\doprnt.c: 368:         } el
      +                          se {
  6769  002878  EFE0  F013         	goto	i2l4683
  6770  00287C                     i2l4699:
  6771                           
  6772                           ; BSR set to: 5
  6773                           ;C:\Program Files\Microchip\xc8\v2.32\pic\sources\c99\common\doprnt.c: 369:             
      +                          strcpy(&dbuf[n], "nan");
  6774  00287C  0E02               	movlw	low _dbuf
  6775  00287E  2592               	addwf	efgtoa@n& (0+255),w,b
  6776  002880  6E01               	movwf	strcpy@dest^(0+1280),c
  6777  002882  0E06               	movlw	high _dbuf
  6778  002884  2193               	addwfc	(efgtoa@n+1)& (0+255),w,b
  6779  002886  6E02               	movwf	(strcpy@dest+1)^(0+1280),c
  6780  002888  0E5B               	movlw	low STR_14
  6781  00288A  6E03               	movwf	strcpy@src^(0+1280),c
  6782  00288C  0E26               	movlw	high STR_14
  6783  00288E  6E04               	movwf	(strcpy@src+1)^(0+1280),c
  6784  002890  EC48  F031         	call	_strcpy	;wreg free
  6785  002894  EFE0  F013         	goto	i2l4683
  6786  002898                     i2l4707:
  6787                           
  6788                           ;C:\Program Files\Microchip\xc8\v2.32\pic\sources\c99\common\doprnt.c: 376:     u = 1.0;
  6789  002898  0E00               	movlw	0
  6790  00289A  0105               	movlb	5	; () banked
  6791  00289C  6F94               	movwf	efgtoa@u& (0+255),b
  6792  00289E  0E00               	movlw	0
  6793  0028A0  6F95               	movwf	(efgtoa@u+1)& (0+255),b
  6794  0028A2  0E80               	movlw	128
  6795  0028A4  6F96               	movwf	(efgtoa@u+2)& (0+255),b
  6796  0028A6  0E3F               	movlw	63
  6797  0028A8  6F97               	movwf	(efgtoa@u+3)& (0+255),b
  6798                           
  6799                           ;C:\Program Files\Microchip\xc8\v2.32\pic\sources\c99\common\doprnt.c: 377:     e = 0;
  6800  0028AA  0E00               	movlw	0
  6801  0028AC  6F91               	movwf	(efgtoa@e+1)& (0+255),b
  6802  0028AE  0E00               	movlw	0
  6803  0028B0  6F90               	movwf	efgtoa@e& (0+255),b
  6804  0028B2                     
  6805                           ; BSR set to: 5
  6806                           ;C:\Program Files\Microchip\xc8\v2.32\pic\sources\c99\common\doprnt.c: 378:     if (!(g 
      +                          == 0.0)) {
  6807  0028B2  C58C  F501         	movff	efgtoa@g,___fleq@ff1
  6808  0028B6  C58D  F502         	movff	efgtoa@g+1,___fleq@ff1+1
  6809  0028BA  C58E  F503         	movff	efgtoa@g+2,___fleq@ff1+2
  6810  0028BE  C58F  F504         	movff	efgtoa@g+3,___fleq@ff1+3
  6811  0028C2  0E00               	movlw	0
  6812  0028C4  6E05               	movwf	___fleq@ff2^(0+1280),c
  6813  0028C6  0E00               	movlw	0
  6814  0028C8  6E06               	movwf	(___fleq@ff2+1)^(0+1280),c
  6815  0028CA  0E00               	movlw	0
  6816  0028CC  6E07               	movwf	(___fleq@ff2+2)^(0+1280),c
  6817  0028CE  0E00               	movlw	0
  6818  0028D0  6E08               	movwf	(___fleq@ff2+3)^(0+1280),c
  6819  0028D2  ECC8  F02F         	call	___fleq	;wreg free
  6820  0028D6  B0D8               	btfsc	status,0,c
  6821  0028D8  EF70  F014         	goto	i2u500_41
  6822  0028DC  EF72  F014         	goto	i2u500_40
  6823  0028E0                     i2u500_41:
  6824  0028E0  EFF5  F014         	goto	i2l4725
  6825  0028E4                     i2u500_40:
  6826  0028E4  EF91  F014         	goto	i2l4717
  6827  0028E8                     i2l4713:
  6828                           
  6829                           ;C:\Program Files\Microchip\xc8\v2.32\pic\sources\c99\common\doprnt.c: 380:             
      +                          u = u*10.0;
  6830  0028E8  C594  F50F         	movff	efgtoa@u,___flmul@b
  6831  0028EC  C595  F510         	movff	efgtoa@u+1,___flmul@b+1
  6832  0028F0  C596  F511         	movff	efgtoa@u+2,___flmul@b+2
  6833  0028F4  C597  F512         	movff	efgtoa@u+3,___flmul@b+3
  6834  0028F8  0E00               	movlw	0
  6835  0028FA  6E13               	movwf	___flmul@a^(0+1280),c
  6836  0028FC  0E00               	movlw	0
  6837  0028FE  6E14               	movwf	(___flmul@a+1)^(0+1280),c
  6838  002900  0E20               	movlw	32
  6839  002902  6E15               	movwf	(___flmul@a+2)^(0+1280),c
  6840  002904  0E41               	movlw	65
  6841  002906  6E16               	movwf	(___flmul@a+3)^(0+1280),c
  6842  002908  ECA0  F020         	call	___flmul	;wreg free
  6843  00290C  C50F  F594         	movff	?___flmul,efgtoa@u
  6844  002910  C510  F595         	movff	?___flmul+1,efgtoa@u+1
  6845  002914  C511  F596         	movff	?___flmul+2,efgtoa@u+2
  6846  002918  C512  F597         	movff	?___flmul+3,efgtoa@u+3
  6847  00291C                     
  6848                           ;C:\Program Files\Microchip\xc8\v2.32\pic\sources\c99\common\doprnt.c: 381:             
      +                          ++e;
  6849  00291C  0105               	movlb	5	; () banked
  6850  00291E  4B90               	infsnz	efgtoa@e& (0+255),f,b
  6851  002920  2B91               	incf	(efgtoa@e+1)& (0+255),f,b
  6852  002922                     i2l4717:
  6853                           
  6854                           ;C:\Program Files\Microchip\xc8\v2.32\pic\sources\c99\common\doprnt.c: 379:         whil
      +                          e (!(g < (u*10.0))) {
  6855  002922  C58C  F528         	movff	efgtoa@g,___flge@ff1
  6856  002926  C58D  F529         	movff	efgtoa@g+1,___flge@ff1+1
  6857  00292A  C58E  F52A         	movff	efgtoa@g+2,___flge@ff1+2
  6858  00292E  C58F  F52B         	movff	efgtoa@g+3,___flge@ff1+3
  6859  002932  0E00               	movlw	0
  6860  002934  6E13               	movwf	___flmul@a^(0+1280),c
  6861  002936  0E00               	movlw	0
  6862  002938  6E14               	movwf	(___flmul@a+1)^(0+1280),c
  6863  00293A  0E20               	movlw	32
  6864  00293C  6E15               	movwf	(___flmul@a+2)^(0+1280),c
  6865  00293E  0E41               	movlw	65
  6866  002940  6E16               	movwf	(___flmul@a+3)^(0+1280),c
  6867  002942  C594  F50F         	movff	efgtoa@u,___flmul@b
  6868  002946  C595  F510         	movff	efgtoa@u+1,___flmul@b+1
  6869  00294A  C596  F511         	movff	efgtoa@u+2,___flmul@b+2
  6870  00294E  C597  F512         	movff	efgtoa@u+3,___flmul@b+3
  6871  002952  ECA0  F020         	call	___flmul	;wreg free
  6872  002956  C50F  F52C         	movff	?___flmul,___flge@ff2
  6873  00295A  C510  F52D         	movff	?___flmul+1,___flge@ff2+1
  6874  00295E  C511  F52E         	movff	?___flmul+2,___flge@ff2+2
  6875  002962  C512  F52F         	movff	?___flmul+3,___flge@ff2+3
  6876  002966  EC0C  F02B         	call	___flge	;wreg free
  6877  00296A  B0D8               	btfsc	status,0,c
  6878  00296C  EFBA  F014         	goto	i2u501_41
  6879  002970  EFBC  F014         	goto	i2u501_40
  6880  002974                     i2u501_41:
  6881  002974  EF74  F014         	goto	i2l4713
  6882  002978                     i2u501_40:
  6883  002978  EFDC  F014         	goto	i2l4723
  6884  00297C                     i2l4719:
  6885                           
  6886                           ;C:\Program Files\Microchip\xc8\v2.32\pic\sources\c99\common\doprnt.c: 384:             
      +                          u = u/10.0;
  6887  00297C  C594  F501         	movff	efgtoa@u,___fldiv@b
  6888  002980  C595  F502         	movff	efgtoa@u+1,___fldiv@b+1
  6889  002984  C596  F503         	movff	efgtoa@u+2,___fldiv@b+2
  6890  002988  C597  F504         	movff	efgtoa@u+3,___fldiv@b+3
  6891  00298C  0E00               	movlw	0
  6892  00298E  6E05               	movwf	___fldiv@a^(0+1280),c
  6893  002990  0E00               	movlw	0
  6894  002992  6E06               	movwf	(___fldiv@a+1)^(0+1280),c
  6895  002994  0E20               	movlw	32
  6896  002996  6E07               	movwf	(___fldiv@a+2)^(0+1280),c
  6897  002998  0E41               	movlw	65
  6898  00299A  6E08               	movwf	(___fldiv@a+3)^(0+1280),c
  6899  00299C  ECC7  F022         	call	___fldiv	;wreg free
  6900  0029A0  C501  F594         	movff	?___fldiv,efgtoa@u
  6901  0029A4  C502  F595         	movff	?___fldiv+1,efgtoa@u+1
  6902  0029A8  C503  F596         	movff	?___fldiv+2,efgtoa@u+2
  6903  0029AC  C504  F597         	movff	?___fldiv+3,efgtoa@u+3
  6904  0029B0                     
  6905                           ;C:\Program Files\Microchip\xc8\v2.32\pic\sources\c99\common\doprnt.c: 385:             
      +                          --e;
  6906  0029B0  0105               	movlb	5	; () banked
  6907  0029B2  0790               	decf	efgtoa@e& (0+255),f,b
  6908  0029B4  A0D8               	btfss	status,0,c
  6909  0029B6  0791               	decf	(efgtoa@e+1)& (0+255),f,b
  6910  0029B8                     i2l4723:
  6911                           
  6912                           ;C:\Program Files\Microchip\xc8\v2.32\pic\sources\c99\common\doprnt.c: 383:         whil
      +                          e (g < u) {
  6913  0029B8  C58C  F528         	movff	efgtoa@g,___flge@ff1
  6914  0029BC  C58D  F529         	movff	efgtoa@g+1,___flge@ff1+1
  6915  0029C0  C58E  F52A         	movff	efgtoa@g+2,___flge@ff1+2
  6916  0029C4  C58F  F52B         	movff	efgtoa@g+3,___flge@ff1+3
  6917  0029C8  C594  F52C         	movff	efgtoa@u,___flge@ff2
  6918  0029CC  C595  F52D         	movff	efgtoa@u+1,___flge@ff2+1
  6919  0029D0  C596  F52E         	movff	efgtoa@u+2,___flge@ff2+2
  6920  0029D4  C597  F52F         	movff	efgtoa@u+3,___flge@ff2+3
  6921  0029D8  EC0C  F02B         	call	___flge	;wreg free
  6922  0029DC  A0D8               	btfss	status,0,c
  6923  0029DE  EFF3  F014         	goto	i2u502_41
  6924  0029E2  EFF5  F014         	goto	i2u502_40
  6925  0029E6                     i2u502_41:
  6926  0029E6  EFBE  F014         	goto	i2l4719
  6927  0029EA                     i2u502_40:
  6928  0029EA                     i2l4725:
  6929                           
  6930                           ;C:\Program Files\Microchip\xc8\v2.32\pic\sources\c99\common\doprnt.c: 390:     mode = (
      +                          char)tolower((int)c);
  6931  0029EA  C546  F507         	movff	efgtoa@c,tolower@c
  6932  0029EE  6A08               	clrf	(tolower@c+1)^(0+1280),c
  6933  0029F0  EC7B  F031         	call	_tolower	;wreg free
  6934  0029F4  5007               	movf	?_tolower^(0+1280),w,c
  6935  0029F6  0105               	movlb	5	; () banked
  6936  0029F8  6F81               	movwf	efgtoa@mode& (0+255),b
  6937  0029FA                     
  6938                           ; BSR set to: 5
  6939                           ;C:\Program Files\Microchip\xc8\v2.32\pic\sources\c99\common\doprnt.c: 391:     nmode = 
      +                          mode;
  6940  0029FA  C581  F580         	movff	efgtoa@mode,efgtoa@nmode
  6941  0029FE                     
  6942                           ; BSR set to: 5
  6943                           ;C:\Program Files\Microchip\xc8\v2.32\pic\sources\c99\common\doprnt.c: 392:     if (mode
      +                           == 'g') {
  6944  0029FE  0E67               	movlw	103
  6945  002A00  1981               	xorwf	efgtoa@mode& (0+255),w,b
  6946  002A02  A4D8               	btfss	status,2,c
  6947  002A04  EF06  F015         	goto	i2u503_41
  6948  002A08  EF08  F015         	goto	i2u503_40
  6949  002A0C                     i2u503_41:
  6950  002A0C  EF2E  F015         	goto	i2l4739
  6951  002A10                     i2u503_40:
  6952  002A10                     
  6953                           ; BSR set to: 5
  6954                           ;C:\Program Files\Microchip\xc8\v2.32\pic\sources\c99\common\doprnt.c: 393:   if (prec =
      +                          = 0) {
  6955  002A10  51D8               	movf	_prec& (0+255),w,b
  6956  002A12  11D9               	iorwf	(_prec+1)& (0+255),w,b
  6957  002A14  A4D8               	btfss	status,2,c
  6958  002A16  EF0F  F015         	goto	i2u504_41
  6959  002A1A  EF11  F015         	goto	i2u504_40
  6960  002A1E                     i2u504_41:
  6961  002A1E  EF15  F015         	goto	i2l4735
  6962  002A22                     i2u504_40:
  6963  002A22                     
  6964                           ; BSR set to: 5
  6965                           ;C:\Program Files\Microchip\xc8\v2.32\pic\sources\c99\common\doprnt.c: 394:    prec = 1;
  6966  002A22  0E00               	movlw	0
  6967  002A24  6FD9               	movwf	(_prec+1)& (0+255),b
  6968  002A26  0E01               	movlw	1
  6969  002A28  6FD8               	movwf	_prec& (0+255),b
  6970  002A2A                     i2l4735:
  6971                           
  6972                           ; BSR set to: 5
  6973                           ;C:\Program Files\Microchip\xc8\v2.32\pic\sources\c99\common\doprnt.c: 396:         p = 
      +                          (0 < prec) ? prec : 6;
  6974  002A2A  BFD9               	btfsc	(_prec+1)& (0+255),7,b
  6975  002A2C  EF22  F015         	goto	i2u505_40
  6976  002A30  51D9               	movf	(_prec+1)& (0+255),w,b
  6977  002A32  E106               	bnz	i2u505_41
  6978  002A34  05D8               	decf	_prec& (0+255),w,b
  6979  002A36  B0D8               	btfsc	status,0,c
  6980  002A38  EF20  F015         	goto	i2u505_41
  6981  002A3C  EF22  F015         	goto	i2u505_40
  6982  002A40                     i2u505_41:
  6983  002A40  EF28  F015         	goto	i2l1425
  6984  002A44                     i2u505_40:
  6985  002A44                     i2l4737:
  6986                           
  6987                           ; BSR set to: 5
  6988  002A44  0E00               	movlw	0
  6989  002A46  6F7D               	movwf	(efgtoa@p+1)& (0+255),b
  6990  002A48  0E06               	movlw	6
  6991  002A4A  6F7C               	movwf	efgtoa@p& (0+255),b
  6992  002A4C  EF37  F015         	goto	i2l4745
  6993  002A50                     i2l1425:
  6994                           
  6995                           ; BSR set to: 5
  6996  002A50  C5D8  F57C         	movff	_prec,efgtoa@p
  6997  002A54  C5D9  F57D         	movff	_prec+1,efgtoa@p+1
  6998  002A58  EF37  F015         	goto	i2l4745
  6999  002A5C                     i2l4739:
  7000                           
  7001                           ; BSR set to: 5
  7002                           ;C:\Program Files\Microchip\xc8\v2.32\pic\sources\c99\common\doprnt.c: 398:         p = 
      +                          (prec < 0) ? 6 : prec;
  7003  002A5C  BFD9               	btfsc	(_prec+1)& (0+255),7,b
  7004  002A5E  EF33  F015         	goto	i2u506_41
  7005  002A62  EF35  F015         	goto	i2u506_40
  7006  002A66                     i2u506_41:
  7007  002A66  EF22  F015         	goto	i2l4737
  7008  002A6A                     i2u506_40:
  7009  002A6A  EF28  F015         	goto	i2l1425
  7010  002A6E                     i2l4745:
  7011                           
  7012                           ; BSR set to: 5
  7013                           ;C:\Program Files\Microchip\xc8\v2.32\pic\sources\c99\common\doprnt.c: 402:     if (mode
      +                           == 'g') {
  7014  002A6E  0E67               	movlw	103
  7015  002A70  1981               	xorwf	efgtoa@mode& (0+255),w,b
  7016  002A72  A4D8               	btfss	status,2,c
  7017  002A74  EF3E  F015         	goto	i2u507_41
  7018  002A78  EF40  F015         	goto	i2u507_40
  7019  002A7C                     i2u507_41:
  7020  002A7C  EF6F  F015         	goto	i2l4755
  7021  002A80                     i2u507_40:
  7022  002A80                     
  7023                           ; BSR set to: 5
  7024                           ;C:\Program Files\Microchip\xc8\v2.32\pic\sources\c99\common\doprnt.c: 403:         if (
      +                          !(e < -4) && !((p - 1) < e)) {
  7025  002A80  AF91               	btfss	(efgtoa@e+1)& (0+255),7,b
  7026  002A82  EF4E  F015         	goto	i2u508_40
  7027  002A86  0EFC               	movlw	252
  7028  002A88  5D90               	subwf	efgtoa@e& (0+255),w,b
  7029  002A8A  0EFF               	movlw	255
  7030  002A8C  5991               	subwfb	(efgtoa@e+1)& (0+255),w,b
  7031  002A8E  A0D8               	btfss	status,0,c
  7032  002A90  EF4C  F015         	goto	i2u508_41
  7033  002A94  EF4E  F015         	goto	i2u508_40
  7034  002A98                     i2u508_41:
  7035  002A98  EF6D  F015         	goto	i2l4753
  7036  002A9C                     i2u508_40:
  7037  002A9C                     
  7038                           ; BSR set to: 5
  7039  002A9C  0EFF               	movlw	255
  7040  002A9E  6E47               	movwf	??_efgtoa^(0+1280),c
  7041  002AA0  0EFF               	movlw	255
  7042  002AA2  6E48               	movwf	(??_efgtoa+1)^(0+1280),c
  7043  002AA4  C57C  F549         	movff	efgtoa@p,??_efgtoa+2
  7044  002AA8  C57D  F54A         	movff	efgtoa@p+1,??_efgtoa+3
  7045  002AAC  5047               	movf	??_efgtoa^(0+1280),w,c
  7046  002AAE  2649               	addwf	(??_efgtoa+2)^(0+1280),f,c
  7047  002AB0  5048               	movf	(??_efgtoa+1)^(0+1280),w,c
  7048  002AB2  224A               	addwfc	(??_efgtoa+3)^(0+1280),f,c
  7049  002AB4  5190               	movf	efgtoa@e& (0+255),w,b
  7050  002AB6  5C49               	subwf	(??_efgtoa+2)^(0+1280),w,c
  7051  002AB8  504A               	movf	(??_efgtoa+3)^(0+1280),w,c
  7052  002ABA  0A80               	xorlw	128
  7053  002ABC  6E4B               	movwf	(??_efgtoa+4)^(0+1280),c
  7054  002ABE  5191               	movf	(efgtoa@e+1)& (0+255),w,b
  7055  002AC0  0A80               	xorlw	128
  7056  002AC2  584B               	subwfb	(??_efgtoa+4)^(0+1280),w,c
  7057  002AC4  A0D8               	btfss	status,0,c
  7058  002AC6  EF67  F015         	goto	i2u509_41
  7059  002ACA  EF69  F015         	goto	i2u509_40
  7060  002ACE                     i2u509_41:
  7061  002ACE  EF6D  F015         	goto	i2l4753
  7062  002AD2                     i2u509_40:
  7063  002AD2                     
  7064                           ; BSR set to: 5
  7065                           ;C:\Program Files\Microchip\xc8\v2.32\pic\sources\c99\common\doprnt.c: 404:             
      +                          nmode = 'f';
  7066  002AD2  0E66               	movlw	102
  7067  002AD4  6F80               	movwf	efgtoa@nmode& (0+255),b
  7068                           
  7069                           ;C:\Program Files\Microchip\xc8\v2.32\pic\sources\c99\common\doprnt.c: 405:         } el
      +                          se {
  7070  002AD6  EF6F  F015         	goto	i2l4755
  7071  002ADA                     i2l4753:
  7072                           
  7073                           ; BSR set to: 5
  7074                           ;C:\Program Files\Microchip\xc8\v2.32\pic\sources\c99\common\doprnt.c: 406:             
      +                          nmode = 'e';
  7075  002ADA  0E65               	movlw	101
  7076  002ADC  6F80               	movwf	efgtoa@nmode& (0+255),b
  7077  002ADE                     i2l4755:
  7078                           
  7079                           ; BSR set to: 5
  7080                           ;C:\Program Files\Microchip\xc8\v2.32\pic\sources\c99\common\doprnt.c: 411:     m = p;
  7081  002ADE  C57C  F572         	movff	efgtoa@p,efgtoa@m
  7082  002AE2  C57D  F573         	movff	efgtoa@p+1,efgtoa@m+1
  7083  002AE6                     
  7084                           ; BSR set to: 5
  7085                           ;C:\Program Files\Microchip\xc8\v2.32\pic\sources\c99\common\doprnt.c: 412:     if (!(mo
      +                          de == 'g') || ((nmode == 'f') && (e < 0))) {
  7086  002AE6  0E67               	movlw	103
  7087  002AE8  1981               	xorwf	efgtoa@mode& (0+255),w,b
  7088  002AEA  A4D8               	btfss	status,2,c
  7089  002AEC  EF7A  F015         	goto	i2u510_41
  7090  002AF0  EF7C  F015         	goto	i2u510_40
  7091  002AF4                     i2u510_41:
  7092  002AF4  EF8C  F015         	goto	i2l4763
  7093  002AF8                     i2u510_40:
  7094  002AF8                     
  7095                           ; BSR set to: 5
  7096  002AF8  0E66               	movlw	102
  7097  002AFA  1980               	xorwf	efgtoa@nmode& (0+255),w,b
  7098  002AFC  A4D8               	btfss	status,2,c
  7099  002AFE  EF83  F015         	goto	i2u511_41
  7100  002B02  EF85  F015         	goto	i2u511_40
  7101  002B06                     i2u511_41:
  7102  002B06  EF8E  F015         	goto	i2l4765
  7103  002B0A                     i2u511_40:
  7104  002B0A                     
  7105                           ; BSR set to: 5
  7106  002B0A  BF91               	btfsc	(efgtoa@e+1)& (0+255),7,b
  7107  002B0C  EF8C  F015         	goto	i2u512_40
  7108  002B10  EF8A  F015         	goto	i2u512_41
  7109  002B14                     i2u512_41:
  7110  002B14  EF8E  F015         	goto	i2l4765
  7111  002B18                     i2u512_40:
  7112  002B18                     i2l4763:
  7113                           
  7114                           ; BSR set to: 5
  7115                           ;C:\Program Files\Microchip\xc8\v2.32\pic\sources\c99\common\doprnt.c: 413:         ++m;
  7116  002B18  4B72               	infsnz	efgtoa@m& (0+255),f,b
  7117  002B1A  2B73               	incf	(efgtoa@m+1)& (0+255),f,b
  7118  002B1C                     i2l4765:
  7119                           
  7120                           ; BSR set to: 5
  7121                           ;C:\Program Files\Microchip\xc8\v2.32\pic\sources\c99\common\doprnt.c: 417:     if (nmod
      +                          e == 'f') {
  7122  002B1C  0E66               	movlw	102
  7123  002B1E  1980               	xorwf	efgtoa@nmode& (0+255),w,b
  7124  002B20  A4D8               	btfss	status,2,c
  7125  002B22  EF95  F015         	goto	i2u513_41
  7126  002B26  EF97  F015         	goto	i2u513_40
  7127  002B2A                     i2u513_41:
  7128  002B2A  EFB7  F015         	goto	i2l4775
  7129  002B2E                     i2u513_40:
  7130  002B2E                     
  7131                           ; BSR set to: 5
  7132                           ;C:\Program Files\Microchip\xc8\v2.32\pic\sources\c99\common\doprnt.c: 418:         if (
      +                          e < 0) {
  7133  002B2E  BF91               	btfsc	(efgtoa@e+1)& (0+255),7,b
  7134  002B30  EF9E  F015         	goto	i2u514_40
  7135  002B34  EF9C  F015         	goto	i2u514_41
  7136  002B38                     i2u514_41:
  7137  002B38  EFAA  F015         	goto	i2l4771
  7138  002B3C                     i2u514_40:
  7139  002B3C                     
  7140                           ; BSR set to: 5
  7141                           ;C:\Program Files\Microchip\xc8\v2.32\pic\sources\c99\common\doprnt.c: 419:             
      +                          u = 1.0;
  7142  002B3C  0E00               	movlw	0
  7143  002B3E  6F94               	movwf	efgtoa@u& (0+255),b
  7144  002B40  0E00               	movlw	0
  7145  002B42  6F95               	movwf	(efgtoa@u+1)& (0+255),b
  7146  002B44  0E80               	movlw	128
  7147  002B46  6F96               	movwf	(efgtoa@u+2)& (0+255),b
  7148  002B48  0E3F               	movlw	63
  7149  002B4A  6F97               	movwf	(efgtoa@u+3)& (0+255),b
  7150                           
  7151                           ;C:\Program Files\Microchip\xc8\v2.32\pic\sources\c99\common\doprnt.c: 420:             
      +                          e = 0;
  7152  002B4C  0E00               	movlw	0
  7153  002B4E  6F91               	movwf	(efgtoa@e+1)& (0+255),b
  7154  002B50  0E00               	movlw	0
  7155  002B52  6F90               	movwf	efgtoa@e& (0+255),b
  7156  002B54                     i2l4771:
  7157                           
  7158                           ; BSR set to: 5
  7159                           ;C:\Program Files\Microchip\xc8\v2.32\pic\sources\c99\common\doprnt.c: 422:         if (
      +                          !(mode == 'g')) {
  7160  002B54  0E67               	movlw	103
  7161  002B56  1981               	xorwf	efgtoa@mode& (0+255),w,b
  7162  002B58  B4D8               	btfsc	status,2,c
  7163  002B5A  EFB1  F015         	goto	i2u515_41
  7164  002B5E  EFB3  F015         	goto	i2u515_40
  7165  002B62                     i2u515_41:
  7166  002B62  EFB7  F015         	goto	i2l4775
  7167  002B66                     i2u515_40:
  7168  002B66                     
  7169                           ; BSR set to: 5
  7170                           ;C:\Program Files\Microchip\xc8\v2.32\pic\sources\c99\common\doprnt.c: 423:             
      +                          m += e;
  7171  002B66  5190               	movf	efgtoa@e& (0+255),w,b
  7172  002B68  2772               	addwf	efgtoa@m& (0+255),f,b
  7173  002B6A  5191               	movf	(efgtoa@e+1)& (0+255),w,b
  7174  002B6C  2373               	addwfc	(efgtoa@m+1)& (0+255),f,b
  7175  002B6E                     i2l4775:
  7176                           
  7177                           ; BSR set to: 5
  7178                           ;C:\Program Files\Microchip\xc8\v2.32\pic\sources\c99\common\doprnt.c: 428:     i = 0;
  7179  002B6E  0E00               	movlw	0
  7180  002B70  6F8B               	movwf	(efgtoa@i+1)& (0+255),b
  7181  002B72  0E00               	movlw	0
  7182  002B74  6F8A               	movwf	efgtoa@i& (0+255),b
  7183  002B76                     
  7184                           ; BSR set to: 5
  7185                           ;C:\Program Files\Microchip\xc8\v2.32\pic\sources\c99\common\doprnt.c: 429:     h = g;
  7186  002B76  C58C  F582         	movff	efgtoa@g,efgtoa@h
  7187  002B7A  C58D  F583         	movff	efgtoa@g+1,efgtoa@h+1
  7188  002B7E  C58E  F584         	movff	efgtoa@g+2,efgtoa@h+2
  7189  002B82  C58F  F585         	movff	efgtoa@g+3,efgtoa@h+3
  7190  002B86                     
  7191                           ; BSR set to: 5
  7192                           ;C:\Program Files\Microchip\xc8\v2.32\pic\sources\c99\common\doprnt.c: 430:     ou = u;
  7193  002B86  C594  F574         	movff	efgtoa@u,efgtoa@ou
  7194  002B8A  C595  F575         	movff	efgtoa@u+1,efgtoa@ou+1
  7195  002B8E  C596  F576         	movff	efgtoa@u+2,efgtoa@ou+2
  7196  002B92  C597  F577         	movff	efgtoa@u+3,efgtoa@ou+3
  7197                           
  7198                           ;C:\Program Files\Microchip\xc8\v2.32\pic\sources\c99\common\doprnt.c: 431:     while (i
      +                           < m) {
  7199  002B96  EF48  F016         	goto	i2l4789
  7200  002B9A                     i2l4781:
  7201                           
  7202                           ; BSR set to: 5
  7203                           ;C:\Program Files\Microchip\xc8\v2.32\pic\sources\c99\common\doprnt.c: 432:         l = 
      +                          floorf(h/u);
  7204  002B9A  C582  F501         	movff	efgtoa@h,___fldiv@b
  7205  002B9E  C583  F502         	movff	efgtoa@h+1,___fldiv@b+1
  7206  002BA2  C584  F503         	movff	efgtoa@h+2,___fldiv@b+2
  7207  002BA6  C585  F504         	movff	efgtoa@h+3,___fldiv@b+3
  7208  002BAA  C594  F505         	movff	efgtoa@u,___fldiv@a
  7209  002BAE  C595  F506         	movff	efgtoa@u+1,___fldiv@a+1
  7210  002BB2  C596  F507         	movff	efgtoa@u+2,___fldiv@a+2
  7211  002BB6  C597  F508         	movff	efgtoa@u+3,___fldiv@a+3
  7212  002BBA  ECC7  F022         	call	___fldiv	;wreg free
  7213  002BBE  C501  F51A         	movff	?___fldiv,floorf@x
  7214  002BC2  C502  F51B         	movff	?___fldiv+1,floorf@x+1
  7215  002BC6  C503  F51C         	movff	?___fldiv+2,floorf@x+2
  7216  002BCA  C504  F51D         	movff	?___fldiv+3,floorf@x+3
  7217  002BCE  EC03  F026         	call	_floorf	;wreg free
  7218  002BD2  C51A  F586         	movff	?_floorf,efgtoa@l
  7219  002BD6  C51B  F587         	movff	?_floorf+1,efgtoa@l+1
  7220  002BDA  C51C  F588         	movff	?_floorf+2,efgtoa@l+2
  7221  002BDE  C51D  F589         	movff	?_floorf+3,efgtoa@l+3
  7222                           
  7223                           ;C:\Program Files\Microchip\xc8\v2.32\pic\sources\c99\common\doprnt.c: 433:         d = 
      +                          (int)l;
  7224  002BE2  C586  F501         	movff	efgtoa@l,___fltol@f1
  7225  002BE6  C587  F502         	movff	efgtoa@l+1,___fltol@f1+1
  7226  002BEA  C588  F503         	movff	efgtoa@l+2,___fltol@f1+2
  7227  002BEE  C589  F504         	movff	efgtoa@l+3,___fltol@f1+3
  7228  002BF2  EC89  F02A         	call	___fltol	;wreg free
  7229  002BF6  C501  F578         	movff	?___fltol,efgtoa@d
  7230  002BFA  C502  F579         	movff	?___fltol+1,efgtoa@d+1
  7231  002BFE                     
  7232                           ;C:\Program Files\Microchip\xc8\v2.32\pic\sources\c99\common\doprnt.c: 434:         h -=
      +                           l*u;
  7233  002BFE  C582  F538         	movff	efgtoa@h,___flsub@b
  7234  002C02  C583  F539         	movff	efgtoa@h+1,___flsub@b+1
  7235  002C06  C584  F53A         	movff	efgtoa@h+2,___flsub@b+2
  7236  002C0A  C585  F53B         	movff	efgtoa@h+3,___flsub@b+3
  7237  002C0E  C594  F513         	movff	efgtoa@u,___flmul@a
  7238  002C12  C595  F514         	movff	efgtoa@u+1,___flmul@a+1
  7239  002C16  C596  F515         	movff	efgtoa@u+2,___flmul@a+2
  7240  002C1A  C597  F516         	movff	efgtoa@u+3,___flmul@a+3
  7241  002C1E  C586  F50F         	movff	efgtoa@l,___flmul@b
  7242  002C22  C587  F510         	movff	efgtoa@l+1,___flmul@b+1
  7243  002C26  C588  F511         	movff	efgtoa@l+2,___flmul@b+2
  7244  002C2A  C589  F512         	movff	efgtoa@l+3,___flmul@b+3
  7245  002C2E  ECA0  F020         	call	___flmul	;wreg free
  7246  002C32  C50F  F53C         	movff	?___flmul,___flsub@a
  7247  002C36  C510  F53D         	movff	?___flmul+1,___flsub@a+1
  7248  002C3A  C511  F53E         	movff	?___flmul+2,___flsub@a+2
  7249  002C3E  C512  F53F         	movff	?___flmul+3,___flsub@a+3
  7250  002C42  ECA9  F032         	call	___flsub	;wreg free
  7251  002C46  C538  F582         	movff	?___flsub,efgtoa@h
  7252  002C4A  C539  F583         	movff	?___flsub+1,efgtoa@h+1
  7253  002C4E  C53A  F584         	movff	?___flsub+2,efgtoa@h+2
  7254  002C52  C53B  F585         	movff	?___flsub+3,efgtoa@h+3
  7255  002C56                     
  7256                           ;C:\Program Files\Microchip\xc8\v2.32\pic\sources\c99\common\doprnt.c: 435:         u = 
      +                          u/10.0;
  7257  002C56  C594  F501         	movff	efgtoa@u,___fldiv@b
  7258  002C5A  C595  F502         	movff	efgtoa@u+1,___fldiv@b+1
  7259  002C5E  C596  F503         	movff	efgtoa@u+2,___fldiv@b+2
  7260  002C62  C597  F504         	movff	efgtoa@u+3,___fldiv@b+3
  7261  002C66  0E00               	movlw	0
  7262  002C68  6E05               	movwf	___fldiv@a^(0+1280),c
  7263  002C6A  0E00               	movlw	0
  7264  002C6C  6E06               	movwf	(___fldiv@a+1)^(0+1280),c
  7265  002C6E  0E20               	movlw	32
  7266  002C70  6E07               	movwf	(___fldiv@a+2)^(0+1280),c
  7267  002C72  0E41               	movlw	65
  7268  002C74  6E08               	movwf	(___fldiv@a+3)^(0+1280),c
  7269  002C76  ECC7  F022         	call	___fldiv	;wreg free
  7270  002C7A  C501  F594         	movff	?___fldiv,efgtoa@u
  7271  002C7E  C502  F595         	movff	?___fldiv+1,efgtoa@u+1
  7272  002C82  C503  F596         	movff	?___fldiv+2,efgtoa@u+2
  7273  002C86  C504  F597         	movff	?___fldiv+3,efgtoa@u+3
  7274  002C8A                     
  7275                           ;C:\Program Files\Microchip\xc8\v2.32\pic\sources\c99\common\doprnt.c: 436:         ++i;
  7276  002C8A  0105               	movlb	5	; () banked
  7277  002C8C  4B8A               	infsnz	efgtoa@i& (0+255),f,b
  7278  002C8E  2B8B               	incf	(efgtoa@i+1)& (0+255),f,b
  7279  002C90                     i2l4789:
  7280                           
  7281                           ; BSR set to: 5
  7282                           ;C:\Program Files\Microchip\xc8\v2.32\pic\sources\c99\common\doprnt.c: 431:     while (i
      +                           < m) {
  7283  002C90  5172               	movf	efgtoa@m& (0+255),w,b
  7284  002C92  5D8A               	subwf	efgtoa@i& (0+255),w,b
  7285  002C94  518B               	movf	(efgtoa@i+1)& (0+255),w,b
  7286  002C96  0A80               	xorlw	128
  7287  002C98  6E47               	movwf	??_efgtoa^(0+1280),c
  7288  002C9A  5173               	movf	(efgtoa@m+1)& (0+255),w,b
  7289  002C9C  0A80               	xorlw	128
  7290  002C9E  5847               	subwfb	??_efgtoa^(0+1280),w,c
  7291  002CA0  A0D8               	btfss	status,0,c
  7292  002CA2  EF55  F016         	goto	i2u516_41
  7293  002CA6  EF57  F016         	goto	i2u516_40
  7294  002CAA                     i2u516_41:
  7295  002CAA  EFCD  F015         	goto	i2l4781
  7296  002CAE                     i2u516_40:
  7297  002CAE                     
  7298                           ; BSR set to: 5
  7299                           ;C:\Program Files\Microchip\xc8\v2.32\pic\sources\c99\common\doprnt.c: 440:     l = u*5.
      +                          0;
  7300  002CAE  C594  F50F         	movff	efgtoa@u,___flmul@b
  7301  002CB2  C595  F510         	movff	efgtoa@u+1,___flmul@b+1
  7302  002CB6  C596  F511         	movff	efgtoa@u+2,___flmul@b+2
  7303  002CBA  C597  F512         	movff	efgtoa@u+3,___flmul@b+3
  7304  002CBE  0E00               	movlw	0
  7305  002CC0  6E13               	movwf	___flmul@a^(0+1280),c
  7306  002CC2  0E00               	movlw	0
  7307  002CC4  6E14               	movwf	(___flmul@a+1)^(0+1280),c
  7308  002CC6  0EA0               	movlw	160
  7309  002CC8  6E15               	movwf	(___flmul@a+2)^(0+1280),c
  7310  002CCA  0E40               	movlw	64
  7311  002CCC  6E16               	movwf	(___flmul@a+3)^(0+1280),c
  7312  002CCE  ECA0  F020         	call	___flmul	;wreg free
  7313  002CD2  C50F  F586         	movff	?___flmul,efgtoa@l
  7314  002CD6  C510  F587         	movff	?___flmul+1,efgtoa@l+1
  7315  002CDA  C511  F588         	movff	?___flmul+2,efgtoa@l+2
  7316  002CDE  C512  F589         	movff	?___flmul+3,efgtoa@l+3
  7317  002CE2                     
  7318                           ;C:\Program Files\Microchip\xc8\v2.32\pic\sources\c99\common\doprnt.c: 441:     if (h < 
      +                          l) {
  7319  002CE2  C582  F528         	movff	efgtoa@h,___flge@ff1
  7320  002CE6  C583  F529         	movff	efgtoa@h+1,___flge@ff1+1
  7321  002CEA  C584  F52A         	movff	efgtoa@h+2,___flge@ff1+2
  7322  002CEE  C585  F52B         	movff	efgtoa@h+3,___flge@ff1+3
  7323  002CF2  C586  F52C         	movff	efgtoa@l,___flge@ff2
  7324  002CF6  C587  F52D         	movff	efgtoa@l+1,___flge@ff2+1
  7325  002CFA  C588  F52E         	movff	efgtoa@l+2,___flge@ff2+2
  7326  002CFE  C589  F52F         	movff	efgtoa@l+3,___flge@ff2+3
  7327  002D02  EC0C  F02B         	call	___flge	;wreg free
  7328  002D06  B0D8               	btfsc	status,0,c
  7329  002D08  EF88  F016         	goto	i2u517_41
  7330  002D0C  EF8A  F016         	goto	i2u517_40
  7331  002D10                     i2u517_41:
  7332  002D10  EF95  F016         	goto	i2l4797
  7333  002D14                     i2u517_40:
  7334  002D14                     
  7335                           ;C:\Program Files\Microchip\xc8\v2.32\pic\sources\c99\common\doprnt.c: 442:         l = 
      +                          0.0;
  7336  002D14  0E00               	movlw	0
  7337  002D16  0105               	movlb	5	; () banked
  7338  002D18  6F86               	movwf	efgtoa@l& (0+255),b
  7339  002D1A  0E00               	movlw	0
  7340  002D1C  6F87               	movwf	(efgtoa@l+1)& (0+255),b
  7341  002D1E  0E00               	movlw	0
  7342  002D20  6F88               	movwf	(efgtoa@l+2)& (0+255),b
  7343  002D22  0E00               	movlw	0
  7344  002D24  6F89               	movwf	(efgtoa@l+3)& (0+255),b
  7345                           
  7346                           ;C:\Program Files\Microchip\xc8\v2.32\pic\sources\c99\common\doprnt.c: 443:     } else {
  7347  002D26  EFBE  F016         	goto	i2l4803
  7348  002D2A                     i2l4797:
  7349                           
  7350                           ;C:\Program Files\Microchip\xc8\v2.32\pic\sources\c99\common\doprnt.c: 445:         if (
      +                          (h == l) && !(d % 2)) {
  7351  002D2A  C582  F501         	movff	efgtoa@h,___fleq@ff1
  7352  002D2E  C583  F502         	movff	efgtoa@h+1,___fleq@ff1+1
  7353  002D32  C584  F503         	movff	efgtoa@h+2,___fleq@ff1+2
  7354  002D36  C585  F504         	movff	efgtoa@h+3,___fleq@ff1+3
  7355  002D3A  C586  F505         	movff	efgtoa@l,___fleq@ff2
  7356  002D3E  C587  F506         	movff	efgtoa@l+1,___fleq@ff2+1
  7357  002D42  C588  F507         	movff	efgtoa@l+2,___fleq@ff2+2
  7358  002D46  C589  F508         	movff	efgtoa@l+3,___fleq@ff2+3
  7359  002D4A  ECC8  F02F         	call	___fleq	;wreg free
  7360  002D4E  A0D8               	btfss	status,0,c
  7361  002D50  EFAC  F016         	goto	i2u518_41
  7362  002D54  EFAE  F016         	goto	i2u518_40
  7363  002D58                     i2u518_41:
  7364  002D58  EFBE  F016         	goto	i2l4803
  7365  002D5C                     i2u518_40:
  7366  002D5C  0105               	movlb	5	; () banked
  7367  002D5E  B178               	btfsc	efgtoa@d& (0+255),0,b
  7368  002D60  EFB4  F016         	goto	i2u519_41
  7369  002D64  EFB6  F016         	goto	i2u519_40
  7370  002D68                     i2u519_41:
  7371  002D68  EFBE  F016         	goto	i2l4803
  7372  002D6C                     i2u519_40:
  7373  002D6C                     
  7374                           ; BSR set to: 5
  7375                           ;C:\Program Files\Microchip\xc8\v2.32\pic\sources\c99\common\doprnt.c: 446:             
      +                          l = 0.0;
  7376  002D6C  0E00               	movlw	0
  7377  002D6E  6F86               	movwf	efgtoa@l& (0+255),b
  7378  002D70  0E00               	movlw	0
  7379  002D72  6F87               	movwf	(efgtoa@l+1)& (0+255),b
  7380  002D74  0E00               	movlw	0
  7381  002D76  6F88               	movwf	(efgtoa@l+2)& (0+255),b
  7382  002D78  0E00               	movlw	0
  7383  002D7A  6F89               	movwf	(efgtoa@l+3)& (0+255),b
  7384  002D7C                     i2l4803:
  7385                           
  7386                           ;C:\Program Files\Microchip\xc8\v2.32\pic\sources\c99\common\doprnt.c: 451:     h = g + 
      +                          l;
  7387  002D7C  C58C  F528         	movff	efgtoa@g,___fladd@b
  7388  002D80  C58D  F529         	movff	efgtoa@g+1,___fladd@b+1
  7389  002D84  C58E  F52A         	movff	efgtoa@g+2,___fladd@b+2
  7390  002D88  C58F  F52B         	movff	efgtoa@g+3,___fladd@b+3
  7391  002D8C  C586  F52C         	movff	efgtoa@l,___fladd@a
  7392  002D90  C587  F52D         	movff	efgtoa@l+1,___fladd@a+1
  7393  002D94  C588  F52E         	movff	efgtoa@l+2,___fladd@a+2
  7394  002D98  C589  F52F         	movff	efgtoa@l+3,___fladd@a+3
  7395  002D9C  EC40  F01E         	call	___fladd	;wreg free
  7396  002DA0  C528  F582         	movff	?___fladd,efgtoa@h
  7397  002DA4  C529  F583         	movff	?___fladd+1,efgtoa@h+1
  7398  002DA8  C52A  F584         	movff	?___fladd+2,efgtoa@h+2
  7399  002DAC  C52B  F585         	movff	?___fladd+3,efgtoa@h+3
  7400  002DB0                     
  7401                           ;C:\Program Files\Microchip\xc8\v2.32\pic\sources\c99\common\doprnt.c: 453:  if (h >= (o
      +                          u*10.0)) {
  7402  002DB0  C582  F528         	movff	efgtoa@h,___flge@ff1
  7403  002DB4  C583  F529         	movff	efgtoa@h+1,___flge@ff1+1
  7404  002DB8  C584  F52A         	movff	efgtoa@h+2,___flge@ff1+2
  7405  002DBC  C585  F52B         	movff	efgtoa@h+3,___flge@ff1+3
  7406  002DC0  0E00               	movlw	0
  7407  002DC2  6E13               	movwf	___flmul@a^(0+1280),c
  7408  002DC4  0E00               	movlw	0
  7409  002DC6  6E14               	movwf	(___flmul@a+1)^(0+1280),c
  7410  002DC8  0E20               	movlw	32
  7411  002DCA  6E15               	movwf	(___flmul@a+2)^(0+1280),c
  7412  002DCC  0E41               	movlw	65
  7413  002DCE  6E16               	movwf	(___flmul@a+3)^(0+1280),c
  7414  002DD0  C574  F50F         	movff	efgtoa@ou,___flmul@b
  7415  002DD4  C575  F510         	movff	efgtoa@ou+1,___flmul@b+1
  7416  002DD8  C576  F511         	movff	efgtoa@ou+2,___flmul@b+2
  7417  002DDC  C577  F512         	movff	efgtoa@ou+3,___flmul@b+3
  7418  002DE0  ECA0  F020         	call	___flmul	;wreg free
  7419  002DE4  C50F  F52C         	movff	?___flmul,___flge@ff2
  7420  002DE8  C510  F52D         	movff	?___flmul+1,___flge@ff2+1
  7421  002DEC  C511  F52E         	movff	?___flmul+2,___flge@ff2+2
  7422  002DF0  C512  F52F         	movff	?___flmul+3,___flge@ff2+3
  7423  002DF4  EC0C  F02B         	call	___flge	;wreg free
  7424  002DF8  A0D8               	btfss	status,0,c
  7425  002DFA  EF01  F017         	goto	i2u520_41
  7426  002DFE  EF03  F017         	goto	i2u520_40
  7427  002E02                     i2u520_41:
  7428  002E02  EF2C  F017         	goto	i2l4815
  7429  002E06                     i2u520_40:
  7430  002E06                     
  7431                           ;C:\Program Files\Microchip\xc8\v2.32\pic\sources\c99\common\doprnt.c: 454:   e++;
  7432  002E06  0105               	movlb	5	; () banked
  7433  002E08  4B90               	infsnz	efgtoa@e& (0+255),f,b
  7434  002E0A  2B91               	incf	(efgtoa@e+1)& (0+255),f,b
  7435  002E0C                     
  7436                           ; BSR set to: 5
  7437                           ;C:\Program Files\Microchip\xc8\v2.32\pic\sources\c99\common\doprnt.c: 455:   ou *= 10.0
      +                          ;
  7438  002E0C  C574  F50F         	movff	efgtoa@ou,___flmul@b
  7439  002E10  C575  F510         	movff	efgtoa@ou+1,___flmul@b+1
  7440  002E14  C576  F511         	movff	efgtoa@ou+2,___flmul@b+2
  7441  002E18  C577  F512         	movff	efgtoa@ou+3,___flmul@b+3
  7442  002E1C  0E00               	movlw	0
  7443  002E1E  6E13               	movwf	___flmul@a^(0+1280),c
  7444  002E20  0E00               	movlw	0
  7445  002E22  6E14               	movwf	(___flmul@a+1)^(0+1280),c
  7446  002E24  0E20               	movlw	32
  7447  002E26  6E15               	movwf	(___flmul@a+2)^(0+1280),c
  7448  002E28  0E41               	movlw	65
  7449  002E2A  6E16               	movwf	(___flmul@a+3)^(0+1280),c
  7450  002E2C  ECA0  F020         	call	___flmul	;wreg free
  7451  002E30  C50F  F574         	movff	?___flmul,efgtoa@ou
  7452  002E34  C510  F575         	movff	?___flmul+1,efgtoa@ou+1
  7453  002E38  C511  F576         	movff	?___flmul+2,efgtoa@ou+2
  7454  002E3C  C512  F577         	movff	?___flmul+3,efgtoa@ou+3
  7455  002E40                     
  7456                           ;C:\Program Files\Microchip\xc8\v2.32\pic\sources\c99\common\doprnt.c: 456:   if (nmode 
      +                          == 'f') {
  7457  002E40  0E66               	movlw	102
  7458  002E42  0105               	movlb	5	; () banked
  7459  002E44  1980               	xorwf	efgtoa@nmode& (0+255),w,b
  7460  002E46  A4D8               	btfss	status,2,c
  7461  002E48  EF28  F017         	goto	i2u521_41
  7462  002E4C  EF2A  F017         	goto	i2u521_40
  7463  002E50                     i2u521_41:
  7464  002E50  EF2C  F017         	goto	i2l4815
  7465  002E54                     i2u521_40:
  7466  002E54                     
  7467                           ; BSR set to: 5
  7468                           ;C:\Program Files\Microchip\xc8\v2.32\pic\sources\c99\common\doprnt.c: 458:    m++;
  7469  002E54  4B72               	infsnz	efgtoa@m& (0+255),f,b
  7470  002E56  2B73               	incf	(efgtoa@m+1)& (0+255),f,b
  7471  002E58                     i2l4815:
  7472                           
  7473                           ;C:\Program Files\Microchip\xc8\v2.32\pic\sources\c99\common\doprnt.c: 463:     u = ou;
  7474  002E58  C574  F594         	movff	efgtoa@ou,efgtoa@u
  7475  002E5C  C575  F595         	movff	efgtoa@ou+1,efgtoa@u+1
  7476  002E60  C576  F596         	movff	efgtoa@ou+2,efgtoa@u+2
  7477  002E64  C577  F597         	movff	efgtoa@ou+3,efgtoa@u+3
  7478  002E68                     
  7479                           ;C:\Program Files\Microchip\xc8\v2.32\pic\sources\c99\common\doprnt.c: 464:     ne = (nm
      +                          ode == 'e') ? 0 : e;
  7480  002E68  0E65               	movlw	101
  7481  002E6A  0105               	movlb	5	; () banked
  7482  002E6C  1980               	xorwf	efgtoa@nmode& (0+255),w,b
  7483  002E6E  B4D8               	btfsc	status,2,c
  7484  002E70  EF3C  F017         	goto	i2u522_41
  7485  002E74  EF3E  F017         	goto	i2u522_40
  7486  002E78                     i2u522_41:
  7487  002E78  EF44  F017         	goto	i2l4821
  7488  002E7C                     i2u522_40:
  7489  002E7C                     
  7490                           ; BSR set to: 5
  7491  002E7C  C590  F570         	movff	efgtoa@e,efgtoa@ne
  7492  002E80  C591  F571         	movff	efgtoa@e+1,efgtoa@ne+1
  7493  002E84  EF48  F017         	goto	i2l1453
  7494  002E88                     i2l4821:
  7495                           
  7496                           ; BSR set to: 5
  7497  002E88  0E00               	movlw	0
  7498  002E8A  6F71               	movwf	(efgtoa@ne+1)& (0+255),b
  7499  002E8C  0E00               	movlw	0
  7500  002E8E  6F70               	movwf	efgtoa@ne& (0+255),b
  7501  002E90                     i2l1453:
  7502                           
  7503                           ; BSR set to: 5
  7504                           ;C:\Program Files\Microchip\xc8\v2.32\pic\sources\c99\common\doprnt.c: 465:     pp = 0;
  7505  002E90  0E00               	movlw	0
  7506  002E92  6F6F               	movwf	(efgtoa@pp+1)& (0+255),b
  7507  002E94  0E00               	movlw	0
  7508  002E96  6F6E               	movwf	efgtoa@pp& (0+255),b
  7509                           
  7510                           ;C:\Program Files\Microchip\xc8\v2.32\pic\sources\c99\common\doprnt.c: 466:     t = 0;
  7511  002E98  0E00               	movlw	0
  7512  002E9A  6F6D               	movwf	(efgtoa@t+1)& (0+255),b
  7513  002E9C  0E00               	movlw	0
  7514  002E9E  6F6C               	movwf	efgtoa@t& (0+255),b
  7515                           
  7516                           ;C:\Program Files\Microchip\xc8\v2.32\pic\sources\c99\common\doprnt.c: 467:     i = 0;
  7517  002EA0  0E00               	movlw	0
  7518  002EA2  6F8B               	movwf	(efgtoa@i+1)& (0+255),b
  7519  002EA4  0E00               	movlw	0
  7520  002EA6  6F8A               	movwf	efgtoa@i& (0+255),b
  7521                           
  7522                           ;C:\Program Files\Microchip\xc8\v2.32\pic\sources\c99\common\doprnt.c: 468:     while ((
      +                          i < m) && (n < (80 - 5))) {
  7523  002EA8  EF43  F018         	goto	i2l4871
  7524  002EAC                     i2l4823:
  7525                           
  7526                           ; BSR set to: 5
  7527                           ;C:\Program Files\Microchip\xc8\v2.32\pic\sources\c99\common\doprnt.c: 469:         l = 
      +                          floorf(h/u);
  7528  002EAC  C582  F501         	movff	efgtoa@h,___fldiv@b
  7529  002EB0  C583  F502         	movff	efgtoa@h+1,___fldiv@b+1
  7530  002EB4  C584  F503         	movff	efgtoa@h+2,___fldiv@b+2
  7531  002EB8  C585  F504         	movff	efgtoa@h+3,___fldiv@b+3
  7532  002EBC  C594  F505         	movff	efgtoa@u,___fldiv@a
  7533  002EC0  C595  F506         	movff	efgtoa@u+1,___fldiv@a+1
  7534  002EC4  C596  F507         	movff	efgtoa@u+2,___fldiv@a+2
  7535  002EC8  C597  F508         	movff	efgtoa@u+3,___fldiv@a+3
  7536  002ECC  ECC7  F022         	call	___fldiv	;wreg free
  7537  002ED0  C501  F51A         	movff	?___fldiv,floorf@x
  7538  002ED4  C502  F51B         	movff	?___fldiv+1,floorf@x+1
  7539  002ED8  C503  F51C         	movff	?___fldiv+2,floorf@x+2
  7540  002EDC  C504  F51D         	movff	?___fldiv+3,floorf@x+3
  7541  002EE0  EC03  F026         	call	_floorf	;wreg free
  7542  002EE4  C51A  F586         	movff	?_floorf,efgtoa@l
  7543  002EE8  C51B  F587         	movff	?_floorf+1,efgtoa@l+1
  7544  002EEC  C51C  F588         	movff	?_floorf+2,efgtoa@l+2
  7545  002EF0  C51D  F589         	movff	?_floorf+3,efgtoa@l+3
  7546                           
  7547                           ;C:\Program Files\Microchip\xc8\v2.32\pic\sources\c99\common\doprnt.c: 470:         d = 
      +                          (int)l;
  7548  002EF4  C586  F501         	movff	efgtoa@l,___fltol@f1
  7549  002EF8  C587  F502         	movff	efgtoa@l+1,___fltol@f1+1
  7550  002EFC  C588  F503         	movff	efgtoa@l+2,___fltol@f1+2
  7551  002F00  C589  F504         	movff	efgtoa@l+3,___fltol@f1+3
  7552  002F04  EC89  F02A         	call	___fltol	;wreg free
  7553  002F08  C501  F578         	movff	?___fltol,efgtoa@d
  7554  002F0C  C502  F579         	movff	?___fltol+1,efgtoa@d+1
  7555  002F10                     
  7556                           ;C:\Program Files\Microchip\xc8\v2.32\pic\sources\c99\common\doprnt.c: 471:         if (
      +                          !(flags & (1 << 4)) && !d && (mode == 'g') && (ne < 0)) {
  7557  002F10  0105               	movlb	5	; () banked
  7558  002F12  B9DA               	btfsc	_flags& (0+255),4,b
  7559  002F14  EF8E  F017         	goto	i2u523_41
  7560  002F18  EF90  F017         	goto	i2u523_40
  7561  002F1C                     i2u523_41:
  7562  002F1C  EFAD  F017         	goto	i2l4835
  7563  002F20                     i2u523_40:
  7564  002F20                     
  7565                           ; BSR set to: 5
  7566  002F20  5178               	movf	efgtoa@d& (0+255),w,b
  7567  002F22  1179               	iorwf	(efgtoa@d+1)& (0+255),w,b
  7568  002F24  A4D8               	btfss	status,2,c
  7569  002F26  EF97  F017         	goto	i2u524_41
  7570  002F2A  EF99  F017         	goto	i2u524_40
  7571  002F2E                     i2u524_41:
  7572  002F2E  EFAD  F017         	goto	i2l4835
  7573  002F32                     i2u524_40:
  7574  002F32                     
  7575                           ; BSR set to: 5
  7576  002F32  0E67               	movlw	103
  7577  002F34  1981               	xorwf	efgtoa@mode& (0+255),w,b
  7578  002F36  A4D8               	btfss	status,2,c
  7579  002F38  EFA0  F017         	goto	i2u525_41
  7580  002F3C  EFA2  F017         	goto	i2u525_40
  7581  002F40                     i2u525_41:
  7582  002F40  EFAD  F017         	goto	i2l4835
  7583  002F44                     i2u525_40:
  7584  002F44                     
  7585                           ; BSR set to: 5
  7586  002F44  BF71               	btfsc	(efgtoa@ne+1)& (0+255),7,b
  7587  002F46  EFA9  F017         	goto	i2u526_40
  7588  002F4A  EFA7  F017         	goto	i2u526_41
  7589  002F4E                     i2u526_41:
  7590  002F4E  EFAD  F017         	goto	i2l4835
  7591  002F52                     i2u526_40:
  7592  002F52                     
  7593                           ; BSR set to: 5
  7594                           ;C:\Program Files\Microchip\xc8\v2.32\pic\sources\c99\common\doprnt.c: 472:             
      +                          ++t;
  7595  002F52  4B6C               	infsnz	efgtoa@t& (0+255),f,b
  7596  002F54  2B6D               	incf	(efgtoa@t+1)& (0+255),f,b
  7597                           
  7598                           ;C:\Program Files\Microchip\xc8\v2.32\pic\sources\c99\common\doprnt.c: 473:         } el
      +                          se {
  7599  002F56  EFF7  F017         	goto	i2l4863
  7600  002F5A                     i2l4835:
  7601                           
  7602                           ; BSR set to: 5
  7603                           ;C:\Program Files\Microchip\xc8\v2.32\pic\sources\c99\common\doprnt.c: 474:             
      +                          if (!pp && (ne < 0)) {
  7604  002F5A  516E               	movf	efgtoa@pp& (0+255),w,b
  7605  002F5C  116F               	iorwf	(efgtoa@pp+1)& (0+255),w,b
  7606  002F5E  A4D8               	btfss	status,2,c
  7607  002F60  EFB4  F017         	goto	i2u527_41
  7608  002F64  EFB6  F017         	goto	i2u527_40
  7609  002F68                     i2u527_41:
  7610  002F68  EFE0  F017         	goto	i2l4855
  7611  002F6C                     i2u527_40:
  7612  002F6C                     
  7613                           ; BSR set to: 5
  7614  002F6C  BF71               	btfsc	(efgtoa@ne+1)& (0+255),7,b
  7615  002F6E  EFBD  F017         	goto	i2u528_40
  7616  002F72  EFBB  F017         	goto	i2u528_41
  7617  002F76                     i2u528_41:
  7618  002F76  EFE0  F017         	goto	i2l4855
  7619  002F7A                     i2u528_40:
  7620  002F7A                     
  7621                           ; BSR set to: 5
  7622                           ;C:\Program Files\Microchip\xc8\v2.32\pic\sources\c99\common\doprnt.c: 475:             
      +                              dbuf[n++] = '.';
  7623  002F7A  0E02               	movlw	low _dbuf
  7624  002F7C  2592               	addwf	efgtoa@n& (0+255),w,b
  7625  002F7E  6ED9               	movwf	fsr2l,c
  7626  002F80  0E06               	movlw	high _dbuf
  7627  002F82  2193               	addwfc	(efgtoa@n+1)& (0+255),w,b
  7628  002F84  6EDA               	movwf	fsr2h,c
  7629  002F86  0E2E               	movlw	46
  7630  002F88  6EDF               	movwf	indf2,c
  7631  002F8A                     
  7632                           ; BSR set to: 5
  7633  002F8A  4B92               	infsnz	efgtoa@n& (0+255),f,b
  7634  002F8C  2B93               	incf	(efgtoa@n+1)& (0+255),f,b
  7635  002F8E                     
  7636                           ; BSR set to: 5
  7637                           ;C:\Program Files\Microchip\xc8\v2.32\pic\sources\c99\common\doprnt.c: 476:             
      +                              --w;
  7638  002F8E  077E               	decf	efgtoa@w& (0+255),f,b
  7639  002F90  A0D8               	btfss	status,0,c
  7640  002F92  077F               	decf	(efgtoa@w+1)& (0+255),f,b
  7641  002F94                     
  7642                           ; BSR set to: 5
  7643                           ;C:\Program Files\Microchip\xc8\v2.32\pic\sources\c99\common\doprnt.c: 477:             
      +                              pp = 1;
  7644  002F94  0E00               	movlw	0
  7645  002F96  6F6F               	movwf	(efgtoa@pp+1)& (0+255),b
  7646  002F98  0E01               	movlw	1
  7647  002F9A  6F6E               	movwf	efgtoa@pp& (0+255),b
  7648  002F9C  EFE0  F017         	goto	i2l4855
  7649  002FA0                     i2l4847:
  7650                           
  7651                           ; BSR set to: 5
  7652                           ;C:\Program Files\Microchip\xc8\v2.32\pic\sources\c99\common\doprnt.c: 480:             
      +                              dbuf[n++] = '0';
  7653  002FA0  0E02               	movlw	low _dbuf
  7654  002FA2  2592               	addwf	efgtoa@n& (0+255),w,b
  7655  002FA4  6ED9               	movwf	fsr2l,c
  7656  002FA6  0E06               	movlw	high _dbuf
  7657  002FA8  2193               	addwfc	(efgtoa@n+1)& (0+255),w,b
  7658  002FAA  6EDA               	movwf	fsr2h,c
  7659  002FAC  0E30               	movlw	48
  7660  002FAE  6EDF               	movwf	indf2,c
  7661  002FB0                     
  7662                           ; BSR set to: 5
  7663  002FB0  4B92               	infsnz	efgtoa@n& (0+255),f,b
  7664  002FB2  2B93               	incf	(efgtoa@n+1)& (0+255),f,b
  7665  002FB4                     
  7666                           ; BSR set to: 5
  7667                           ;C:\Program Files\Microchip\xc8\v2.32\pic\sources\c99\common\doprnt.c: 481:             
      +                              --w;
  7668  002FB4  077E               	decf	efgtoa@w& (0+255),f,b
  7669  002FB6  A0D8               	btfss	status,0,c
  7670  002FB8  077F               	decf	(efgtoa@w+1)& (0+255),f,b
  7671  002FBA                     
  7672                           ; BSR set to: 5
  7673                           ;C:\Program Files\Microchip\xc8\v2.32\pic\sources\c99\common\doprnt.c: 482:             
      +                              --t;
  7674  002FBA  076C               	decf	efgtoa@t& (0+255),f,b
  7675  002FBC  A0D8               	btfss	status,0,c
  7676  002FBE  076D               	decf	(efgtoa@t+1)& (0+255),f,b
  7677  002FC0                     i2l4855:
  7678                           
  7679                           ; BSR set to: 5
  7680                           ;C:\Program Files\Microchip\xc8\v2.32\pic\sources\c99\common\doprnt.c: 479:             
      +                          while (t) {
  7681  002FC0  516C               	movf	efgtoa@t& (0+255),w,b
  7682  002FC2  116D               	iorwf	(efgtoa@t+1)& (0+255),w,b
  7683  002FC4  A4D8               	btfss	status,2,c
  7684  002FC6  EFE7  F017         	goto	i2u529_41
  7685  002FCA  EFE9  F017         	goto	i2u529_40
  7686  002FCE                     i2u529_41:
  7687  002FCE  EFD0  F017         	goto	i2l4847
  7688  002FD2                     i2u529_40:
  7689  002FD2                     
  7690                           ; BSR set to: 5
  7691                           ;C:\Program Files\Microchip\xc8\v2.32\pic\sources\c99\common\doprnt.c: 484:             
      +                          dbuf[n++] = (char)((int)'0' + d);
  7692  002FD2  0E02               	movlw	low _dbuf
  7693  002FD4  2592               	addwf	efgtoa@n& (0+255),w,b
  7694  002FD6  6ED9               	movwf	fsr2l,c
  7695  002FD8  0E06               	movlw	high _dbuf
  7696  002FDA  2193               	addwfc	(efgtoa@n+1)& (0+255),w,b
  7697  002FDC  6EDA               	movwf	fsr2h,c
  7698  002FDE  5178               	movf	efgtoa@d& (0+255),w,b
  7699  002FE0  0F30               	addlw	48
  7700  002FE2  6EDF               	movwf	indf2,c
  7701  002FE4                     
  7702                           ; BSR set to: 5
  7703  002FE4  4B92               	infsnz	efgtoa@n& (0+255),f,b
  7704  002FE6  2B93               	incf	(efgtoa@n+1)& (0+255),f,b
  7705  002FE8                     
  7706                           ; BSR set to: 5
  7707                           ;C:\Program Files\Microchip\xc8\v2.32\pic\sources\c99\common\doprnt.c: 485:             
      +                          --w;
  7708  002FE8  077E               	decf	efgtoa@w& (0+255),f,b
  7709  002FEA  A0D8               	btfss	status,0,c
  7710  002FEC  077F               	decf	(efgtoa@w+1)& (0+255),f,b
  7711  002FEE                     i2l4863:
  7712                           
  7713                           ; BSR set to: 5
  7714                           ;C:\Program Files\Microchip\xc8\v2.32\pic\sources\c99\common\doprnt.c: 487:         h -=
      +                           l*u;
  7715  002FEE  C582  F538         	movff	efgtoa@h,___flsub@b
  7716  002FF2  C583  F539         	movff	efgtoa@h+1,___flsub@b+1
  7717  002FF6  C584  F53A         	movff	efgtoa@h+2,___flsub@b+2
  7718  002FFA  C585  F53B         	movff	efgtoa@h+3,___flsub@b+3
  7719  002FFE  C594  F513         	movff	efgtoa@u,___flmul@a
  7720  003002  C595  F514         	movff	efgtoa@u+1,___flmul@a+1
  7721  003006  C596  F515         	movff	efgtoa@u+2,___flmul@a+2
  7722  00300A  C597  F516         	movff	efgtoa@u+3,___flmul@a+3
  7723  00300E  C586  F50F         	movff	efgtoa@l,___flmul@b
  7724  003012  C587  F510         	movff	efgtoa@l+1,___flmul@b+1
  7725  003016  C588  F511         	movff	efgtoa@l+2,___flmul@b+2
  7726  00301A  C589  F512         	movff	efgtoa@l+3,___flmul@b+3
  7727  00301E  ECA0  F020         	call	___flmul	;wreg free
  7728  003022  C50F  F53C         	movff	?___flmul,___flsub@a
  7729  003026  C510  F53D         	movff	?___flmul+1,___flsub@a+1
  7730  00302A  C511  F53E         	movff	?___flmul+2,___flsub@a+2
  7731  00302E  C512  F53F         	movff	?___flmul+3,___flsub@a+3
  7732  003032  ECA9  F032         	call	___flsub	;wreg free
  7733  003036  C538  F582         	movff	?___flsub,efgtoa@h
  7734  00303A  C539  F583         	movff	?___flsub+1,efgtoa@h+1
  7735  00303E  C53A  F584         	movff	?___flsub+2,efgtoa@h+2
  7736  003042  C53B  F585         	movff	?___flsub+3,efgtoa@h+3
  7737  003046                     
  7738                           ;C:\Program Files\Microchip\xc8\v2.32\pic\sources\c99\common\doprnt.c: 488:         u = 
      +                          u/10.0;
  7739  003046  C594  F501         	movff	efgtoa@u,___fldiv@b
  7740  00304A  C595  F502         	movff	efgtoa@u+1,___fldiv@b+1
  7741  00304E  C596  F503         	movff	efgtoa@u+2,___fldiv@b+2
  7742  003052  C597  F504         	movff	efgtoa@u+3,___fldiv@b+3
  7743  003056  0E00               	movlw	0
  7744  003058  6E05               	movwf	___fldiv@a^(0+1280),c
  7745  00305A  0E00               	movlw	0
  7746  00305C  6E06               	movwf	(___fldiv@a+1)^(0+1280),c
  7747  00305E  0E20               	movlw	32
  7748  003060  6E07               	movwf	(___fldiv@a+2)^(0+1280),c
  7749  003062  0E41               	movlw	65
  7750  003064  6E08               	movwf	(___fldiv@a+3)^(0+1280),c
  7751  003066  ECC7  F022         	call	___fldiv	;wreg free
  7752  00306A  C501  F594         	movff	?___fldiv,efgtoa@u
  7753  00306E  C502  F595         	movff	?___fldiv+1,efgtoa@u+1
  7754  003072  C503  F596         	movff	?___fldiv+2,efgtoa@u+2
  7755  003076  C504  F597         	movff	?___fldiv+3,efgtoa@u+3
  7756  00307A                     
  7757                           ;C:\Program Files\Microchip\xc8\v2.32\pic\sources\c99\common\doprnt.c: 489:         --ne
      +                          ;
  7758  00307A  0105               	movlb	5	; () banked
  7759  00307C  0770               	decf	efgtoa@ne& (0+255),f,b
  7760  00307E  A0D8               	btfss	status,0,c
  7761  003080  0771               	decf	(efgtoa@ne+1)& (0+255),f,b
  7762  003082                     
  7763                           ; BSR set to: 5
  7764                           ;C:\Program Files\Microchip\xc8\v2.32\pic\sources\c99\common\doprnt.c: 490:         ++i;
  7765  003082  4B8A               	infsnz	efgtoa@i& (0+255),f,b
  7766  003084  2B8B               	incf	(efgtoa@i+1)& (0+255),f,b
  7767  003086                     i2l4871:
  7768                           
  7769                           ; BSR set to: 5
  7770                           ;C:\Program Files\Microchip\xc8\v2.32\pic\sources\c99\common\doprnt.c: 468:     while ((
      +                          i < m) && (n < (80 - 5))) {
  7771  003086  5172               	movf	efgtoa@m& (0+255),w,b
  7772  003088  5D8A               	subwf	efgtoa@i& (0+255),w,b
  7773  00308A  518B               	movf	(efgtoa@i+1)& (0+255),w,b
  7774  00308C  0A80               	xorlw	128
  7775  00308E  6E47               	movwf	??_efgtoa^(0+1280),c
  7776  003090  5173               	movf	(efgtoa@m+1)& (0+255),w,b
  7777  003092  0A80               	xorlw	128
  7778  003094  5847               	subwfb	??_efgtoa^(0+1280),w,c
  7779  003096  B0D8               	btfsc	status,0,c
  7780  003098  EF50  F018         	goto	i2u530_41
  7781  00309C  EF52  F018         	goto	i2u530_40
  7782  0030A0                     i2u530_41:
  7783  0030A0  EF60  F018         	goto	i2l4875
  7784  0030A4                     i2u530_40:
  7785  0030A4                     
  7786                           ; BSR set to: 5
  7787  0030A4  BF93               	btfsc	(efgtoa@n+1)& (0+255),7,b
  7788  0030A6  EF5E  F018         	goto	i2u531_41
  7789  0030AA  5193               	movf	(efgtoa@n+1)& (0+255),w,b
  7790  0030AC  E109               	bnz	i2u531_40
  7791  0030AE  0E4B               	movlw	75
  7792  0030B0  5D92               	subwf	efgtoa@n& (0+255),w,b
  7793  0030B2  A0D8               	btfss	status,0,c
  7794  0030B4  EF5E  F018         	goto	i2u531_41
  7795  0030B8  EF60  F018         	goto	i2u531_40
  7796  0030BC                     i2u531_41:
  7797  0030BC  EF56  F017         	goto	i2l4823
  7798  0030C0                     i2u531_40:
  7799  0030C0                     i2l4875:
  7800                           
  7801                           ; BSR set to: 5
  7802                           ;C:\Program Files\Microchip\xc8\v2.32\pic\sources\c99\common\doprnt.c: 492:     if (!pp 
      +                          && (flags & (1 << 4))) {
  7803  0030C0  516E               	movf	efgtoa@pp& (0+255),w,b
  7804  0030C2  116F               	iorwf	(efgtoa@pp+1)& (0+255),w,b
  7805  0030C4  A4D8               	btfss	status,2,c
  7806  0030C6  EF67  F018         	goto	i2u532_41
  7807  0030CA  EF69  F018         	goto	i2u532_40
  7808  0030CE                     i2u532_41:
  7809  0030CE  EF7A  F018         	goto	i2l4883
  7810  0030D2                     i2u532_40:
  7811  0030D2                     
  7812                           ; BSR set to: 5
  7813  0030D2  A9DA               	btfss	_flags& (0+255),4,b
  7814  0030D4  EF6E  F018         	goto	i2u533_41
  7815  0030D8  EF70  F018         	goto	i2u533_40
  7816  0030DC                     i2u533_41:
  7817  0030DC  EF7A  F018         	goto	i2l4883
  7818  0030E0                     i2u533_40:
  7819  0030E0                     
  7820                           ; BSR set to: 5
  7821                           ;C:\Program Files\Microchip\xc8\v2.32\pic\sources\c99\common\doprnt.c: 493:         dbuf
      +                          [n++] = '.';
  7822  0030E0  0E02               	movlw	low _dbuf
  7823  0030E2  2592               	addwf	efgtoa@n& (0+255),w,b
  7824  0030E4  6ED9               	movwf	fsr2l,c
  7825  0030E6  0E06               	movlw	high _dbuf
  7826  0030E8  2193               	addwfc	(efgtoa@n+1)& (0+255),w,b
  7827  0030EA  6EDA               	movwf	fsr2h,c
  7828  0030EC  0E2E               	movlw	46
  7829  0030EE  6EDF               	movwf	indf2,c
  7830  0030F0                     
  7831                           ; BSR set to: 5
  7832  0030F0  4B92               	infsnz	efgtoa@n& (0+255),f,b
  7833  0030F2  2B93               	incf	(efgtoa@n+1)& (0+255),f,b
  7834  0030F4                     i2l4883:
  7835                           
  7836                           ; BSR set to: 5
  7837                           ;C:\Program Files\Microchip\xc8\v2.32\pic\sources\c99\common\doprnt.c: 495:     dbuf[n] 
      +                          = '\0';
  7838  0030F4  0E02               	movlw	low _dbuf
  7839  0030F6  2592               	addwf	efgtoa@n& (0+255),w,b
  7840  0030F8  6ED9               	movwf	fsr2l,c
  7841  0030FA  0E06               	movlw	high _dbuf
  7842  0030FC  2193               	addwfc	(efgtoa@n+1)& (0+255),w,b
  7843  0030FE  6EDA               	movwf	fsr2h,c
  7844  003100  0E00               	movlw	0
  7845  003102  6EDF               	movwf	indf2,c
  7846  003104                     
  7847                           ; BSR set to: 5
  7848                           ;C:\Program Files\Microchip\xc8\v2.32\pic\sources\c99\common\doprnt.c: 498:     if (nmod
      +                          e == 'e') {
  7849  003104  0E65               	movlw	101
  7850  003106  1980               	xorwf	efgtoa@nmode& (0+255),w,b
  7851  003108  A4D8               	btfss	status,2,c
  7852  00310A  EF89  F018         	goto	i2u534_41
  7853  00310E  EF8B  F018         	goto	i2u534_40
  7854  003112                     i2u534_41:
  7855  003112  EFE5  F013         	goto	i2l4685
  7856  003116                     i2u534_40:
  7857  003116                     
  7858                           ; BSR set to: 5
  7859                           ;C:\Program Files\Microchip\xc8\v2.32\pic\sources\c99\common\doprnt.c: 499:         i = 
      +                          sizeof(dbuf) - 1;
  7860  003116  0E00               	movlw	0
  7861  003118  6F8B               	movwf	(efgtoa@i+1)& (0+255),b
  7862  00311A  0E4F               	movlw	79
  7863  00311C  6F8A               	movwf	efgtoa@i& (0+255),b
  7864  00311E                     
  7865                           ; BSR set to: 5
  7866                           ;C:\Program Files\Microchip\xc8\v2.32\pic\sources\c99\common\doprnt.c: 500:         dbuf
      +                          [i] = '\0';
  7867  00311E  0E02               	movlw	low _dbuf
  7868  003120  258A               	addwf	efgtoa@i& (0+255),w,b
  7869  003122  6ED9               	movwf	fsr2l,c
  7870  003124  0E06               	movlw	high _dbuf
  7871  003126  218B               	addwfc	(efgtoa@i+1)& (0+255),w,b
  7872  003128  6EDA               	movwf	fsr2h,c
  7873  00312A  0E00               	movlw	0
  7874  00312C  6EDF               	movwf	indf2,c
  7875  00312E                     
  7876                           ; BSR set to: 5
  7877                           ;C:\Program Files\Microchip\xc8\v2.32\pic\sources\c99\common\doprnt.c: 501:         sign
      +                           = 0;
  7878  00312E  0E00               	movlw	0
  7879  003130  6F7B               	movwf	(efgtoa@sign+1)& (0+255),b
  7880  003132  0E00               	movlw	0
  7881  003134  6F7A               	movwf	efgtoa@sign& (0+255),b
  7882  003136                     
  7883                           ; BSR set to: 5
  7884                           ;C:\Program Files\Microchip\xc8\v2.32\pic\sources\c99\common\doprnt.c: 502:         if (
      +                          e < 0) {
  7885  003136  BF91               	btfsc	(efgtoa@e+1)& (0+255),7,b
  7886  003138  EFA2  F018         	goto	i2u535_40
  7887  00313C  EFA0  F018         	goto	i2u535_41
  7888  003140                     i2u535_41:
  7889  003140  EFAA  F018         	goto	i2l4899
  7890  003144                     i2u535_40:
  7891  003144                     
  7892                           ; BSR set to: 5
  7893                           ;C:\Program Files\Microchip\xc8\v2.32\pic\sources\c99\common\doprnt.c: 503:             
      +                          sign = 1;
  7894  003144  0E00               	movlw	0
  7895  003146  6F7B               	movwf	(efgtoa@sign+1)& (0+255),b
  7896  003148  0E01               	movlw	1
  7897  00314A  6F7A               	movwf	efgtoa@sign& (0+255),b
  7898  00314C                     
  7899                           ; BSR set to: 5
  7900                           ;C:\Program Files\Microchip\xc8\v2.32\pic\sources\c99\common\doprnt.c: 504:             
      +                          e = -e;
  7901  00314C  6D90               	negf	efgtoa@e& (0+255),b
  7902  00314E  1F91               	comf	(efgtoa@e+1)& (0+255),f,b
  7903  003150  B0D8               	btfsc	status,0,c
  7904  003152  2B91               	incf	(efgtoa@e+1)& (0+255),f,b
  7905  003154                     i2l4899:
  7906                           
  7907                           ; BSR set to: 5
  7908                           ;C:\Program Files\Microchip\xc8\v2.32\pic\sources\c99\common\doprnt.c: 506:         p = 
      +                          2;
  7909  003154  0E00               	movlw	0
  7910  003156  6F7D               	movwf	(efgtoa@p+1)& (0+255),b
  7911  003158  0E02               	movlw	2
  7912  00315A  6F7C               	movwf	efgtoa@p& (0+255),b
  7913                           
  7914                           ;C:\Program Files\Microchip\xc8\v2.32\pic\sources\c99\common\doprnt.c: 507:         whil
      +                          e (e || (0 < p)) {
  7915  00315C  EFDB  F018         	goto	i2l4911
  7916  003160                     i2l4901:
  7917                           
  7918                           ; BSR set to: 5
  7919                           ;C:\Program Files\Microchip\xc8\v2.32\pic\sources\c99\common\doprnt.c: 508:             
      +                          --i;
  7920  003160  078A               	decf	efgtoa@i& (0+255),f,b
  7921  003162  A0D8               	btfss	status,0,c
  7922  003164  078B               	decf	(efgtoa@i+1)& (0+255),f,b
  7923  003166                     
  7924                           ; BSR set to: 5
  7925                           ;C:\Program Files\Microchip\xc8\v2.32\pic\sources\c99\common\doprnt.c: 509:             
      +                          dbuf[i] = '0' + (e % 10);
  7926  003166  0E02               	movlw	low _dbuf
  7927  003168  258A               	addwf	efgtoa@i& (0+255),w,b
  7928  00316A  6ED9               	movwf	fsr2l,c
  7929  00316C  0E06               	movlw	high _dbuf
  7930  00316E  218B               	addwfc	(efgtoa@i+1)& (0+255),w,b
  7931  003170  6EDA               	movwf	fsr2h,c
  7932  003172  C590  F501         	movff	efgtoa@e,___awmod@dividend
  7933  003176  C591  F502         	movff	efgtoa@e+1,___awmod@dividend+1
  7934  00317A  0E00               	movlw	0
  7935  00317C  6E04               	movwf	(___awmod@divisor+1)^(0+1280),c
  7936  00317E  0E0A               	movlw	10
  7937  003180  6E03               	movwf	___awmod@divisor^(0+1280),c
  7938  003182  EC70  F02F         	call	___awmod	;wreg free
  7939  003186  5001               	movf	?___awmod^(0+1280),w,c
  7940  003188  0F30               	addlw	48
  7941  00318A  6EDF               	movwf	indf2,c
  7942  00318C                     
  7943                           ;C:\Program Files\Microchip\xc8\v2.32\pic\sources\c99\common\doprnt.c: 510:             
      +                          e = e / 10;
  7944  00318C  C590  F501         	movff	efgtoa@e,___awdiv@dividend
  7945  003190  C591  F502         	movff	efgtoa@e+1,___awdiv@dividend+1
  7946  003194  0E00               	movlw	0
  7947  003196  6E04               	movwf	(___awdiv@divisor+1)^(0+1280),c
  7948  003198  0E0A               	movlw	10
  7949  00319A  6E03               	movwf	___awdiv@divisor^(0+1280),c
  7950  00319C  ECB2  F02E         	call	___awdiv	;wreg free
  7951  0031A0  C501  F590         	movff	?___awdiv,efgtoa@e
  7952  0031A4  C502  F591         	movff	?___awdiv+1,efgtoa@e+1
  7953  0031A8                     
  7954                           ;C:\Program Files\Microchip\xc8\v2.32\pic\sources\c99\common\doprnt.c: 511:             
      +                          --p;
  7955  0031A8  0105               	movlb	5	; () banked
  7956  0031AA  077C               	decf	efgtoa@p& (0+255),f,b
  7957  0031AC  A0D8               	btfss	status,0,c
  7958  0031AE  077D               	decf	(efgtoa@p+1)& (0+255),f,b
  7959  0031B0                     
  7960                           ; BSR set to: 5
  7961                           ;C:\Program Files\Microchip\xc8\v2.32\pic\sources\c99\common\doprnt.c: 512:             
      +                          --w;
  7962  0031B0  077E               	decf	efgtoa@w& (0+255),f,b
  7963  0031B2  A0D8               	btfss	status,0,c
  7964  0031B4  077F               	decf	(efgtoa@w+1)& (0+255),f,b
  7965  0031B6                     i2l4911:
  7966                           
  7967                           ; BSR set to: 5
  7968                           ;C:\Program Files\Microchip\xc8\v2.32\pic\sources\c99\common\doprnt.c: 507:         whil
      +                          e (e || (0 < p)) {
  7969  0031B6  5190               	movf	efgtoa@e& (0+255),w,b
  7970  0031B8  1191               	iorwf	(efgtoa@e+1)& (0+255),w,b
  7971  0031BA  A4D8               	btfss	status,2,c
  7972  0031BC  EFE2  F018         	goto	i2u536_41
  7973  0031C0  EFE4  F018         	goto	i2u536_40
  7974  0031C4                     i2u536_41:
  7975  0031C4  EFB0  F018         	goto	i2l4901
  7976  0031C8                     i2u536_40:
  7977  0031C8                     
  7978                           ; BSR set to: 5
  7979  0031C8  BF7D               	btfsc	(efgtoa@p+1)& (0+255),7,b
  7980  0031CA  EFF1  F018         	goto	i2u537_40
  7981  0031CE  517D               	movf	(efgtoa@p+1)& (0+255),w,b
  7982  0031D0  E106               	bnz	i2u537_41
  7983  0031D2  057C               	decf	efgtoa@p& (0+255),w,b
  7984  0031D4  B0D8               	btfsc	status,0,c
  7985  0031D6  EFEF  F018         	goto	i2u537_41
  7986  0031DA  EFF1  F018         	goto	i2u537_40
  7987  0031DE                     i2u537_41:
  7988  0031DE  EFB0  F018         	goto	i2l4901
  7989  0031E2                     i2u537_40:
  7990  0031E2                     
  7991                           ; BSR set to: 5
  7992                           ;C:\Program Files\Microchip\xc8\v2.32\pic\sources\c99\common\doprnt.c: 514:         --i;
  7993  0031E2  078A               	decf	efgtoa@i& (0+255),f,b
  7994  0031E4  A0D8               	btfss	status,0,c
  7995  0031E6  078B               	decf	(efgtoa@i+1)& (0+255),f,b
  7996  0031E8                     
  7997                           ; BSR set to: 5
  7998                           ;C:\Program Files\Microchip\xc8\v2.32\pic\sources\c99\common\doprnt.c: 515:         dbuf
      +                          [i] = sign ? '-' : '+';
  7999  0031E8  517A               	movf	efgtoa@sign& (0+255),w,b
  8000  0031EA  117B               	iorwf	(efgtoa@sign+1)& (0+255),w,b
  8001  0031EC  A4D8               	btfss	status,2,c
  8002  0031EE  EFFB  F018         	goto	i2u538_41
  8003  0031F2  EFFD  F018         	goto	i2u538_40
  8004  0031F6                     i2u538_41:
  8005  0031F6  EF03  F019         	goto	i2l4921
  8006  0031FA                     i2u538_40:
  8007  0031FA                     
  8008                           ; BSR set to: 5
  8009  0031FA  0E00               	movlw	0
  8010  0031FC  6F67               	movwf	(_efgtoa$1851+1)& (0+255),b
  8011  0031FE  0E2B               	movlw	43
  8012  003200  6F66               	movwf	_efgtoa$1851& (0+255),b
  8013  003202  EF07  F019         	goto	i2l4923
  8014  003206                     i2l4921:
  8015                           
  8016                           ; BSR set to: 5
  8017  003206  0E00               	movlw	0
  8018  003208  6F67               	movwf	(_efgtoa$1851+1)& (0+255),b
  8019  00320A  0E2D               	movlw	45
  8020  00320C  6F66               	movwf	_efgtoa$1851& (0+255),b
  8021  00320E                     i2l4923:
  8022                           
  8023                           ; BSR set to: 5
  8024  00320E  0E02               	movlw	low _dbuf
  8025  003210  258A               	addwf	efgtoa@i& (0+255),w,b
  8026  003212  6ED9               	movwf	fsr2l,c
  8027  003214  0E06               	movlw	high _dbuf
  8028  003216  218B               	addwfc	(efgtoa@i+1)& (0+255),w,b
  8029  003218  6EDA               	movwf	fsr2h,c
  8030  00321A  0061  F598  F4DF   	movff	_efgtoa$1851,indf2
  8031  003220                     
  8032                           ; BSR set to: 5
  8033                           ;C:\Program Files\Microchip\xc8\v2.32\pic\sources\c99\common\doprnt.c: 516:         --w;
  8034  003220  077E               	decf	efgtoa@w& (0+255),f,b
  8035  003222  A0D8               	btfss	status,0,c
  8036  003224  077F               	decf	(efgtoa@w+1)& (0+255),f,b
  8037  003226                     
  8038                           ; BSR set to: 5
  8039                           ;C:\Program Files\Microchip\xc8\v2.32\pic\sources\c99\common\doprnt.c: 518:         dbuf
      +                          [i] = (0 ? isupper((int)c) : ((unsigned)((int)c)-'A') < 26) ? 'E' : 'e';
  8040  003226  078A               	decf	efgtoa@i& (0+255),f,b
  8041  003228  A0D8               	btfss	status,0,c
  8042  00322A  078B               	decf	(efgtoa@i+1)& (0+255),f,b
  8043  00322C                     
  8044                           ; BSR set to: 5
  8045  00322C  0EBF               	movlw	191
  8046  00322E  6E47               	movwf	??_efgtoa^(0+1280),c
  8047  003230  0EFF               	movlw	255
  8048  003232  6E48               	movwf	(??_efgtoa+1)^(0+1280),c
  8049  003234  5046               	movf	efgtoa@c^(0+1280),w,c
  8050  003236  6E49               	movwf	(??_efgtoa+2)^(0+1280),c
  8051  003238  6A4A               	clrf	(??_efgtoa+3)^(0+1280),c
  8052  00323A  5047               	movf	??_efgtoa^(0+1280),w,c
  8053  00323C  2649               	addwf	(??_efgtoa+2)^(0+1280),f,c
  8054  00323E  5048               	movf	(??_efgtoa+1)^(0+1280),w,c
  8055  003240  224A               	addwfc	(??_efgtoa+3)^(0+1280),f,c
  8056  003242  504A               	movf	(??_efgtoa+3)^(0+1280),w,c
  8057  003244  E10A               	bnz	i2u539_40
  8058  003246  0E1A               	movlw	26
  8059  003248  5C49               	subwf	(??_efgtoa+2)^(0+1280),w,c
  8060  00324A  A0D8               	btfss	status,0,c
  8061  00324C  EF2A  F019         	goto	i2u539_41
  8062  003250  EF2D  F019         	goto	i2u539_40
  8063  003254                     i2u539_41:
  8064  003254  0E01               	movlw	1
  8065  003256  EF2E  F019         	goto	i2u540_40
  8066  00325A                     i2u539_40:
  8067  00325A  0E00               	movlw	0
  8068  00325C                     i2u540_40:
  8069  00325C  6F6A               	movwf	_efgtoa$1853& (0+255),b
  8070  00325E  6B6B               	clrf	(_efgtoa$1853+1)& (0+255),b
  8071  003260                     
  8072                           ; BSR set to: 5
  8073  003260  516A               	movf	_efgtoa$1853& (0+255),w,b
  8074  003262  116B               	iorwf	(_efgtoa$1853+1)& (0+255),w,b
  8075  003264  A4D8               	btfss	status,2,c
  8076  003266  EF37  F019         	goto	i2u541_41
  8077  00326A  EF39  F019         	goto	i2u541_40
  8078  00326E                     i2u541_41:
  8079  00326E  EF3F  F019         	goto	i2l4937
  8080  003272                     i2u541_40:
  8081  003272                     
  8082                           ; BSR set to: 5
  8083  003272  0E00               	movlw	0
  8084  003274  6F69               	movwf	(_efgtoa$1852+1)& (0+255),b
  8085  003276  0E65               	movlw	101
  8086  003278  6F68               	movwf	_efgtoa$1852& (0+255),b
  8087  00327A  EF43  F019         	goto	i2l4939
  8088  00327E                     i2l4937:
  8089                           
  8090                           ; BSR set to: 5
  8091  00327E  0E00               	movlw	0
  8092  003280  6F69               	movwf	(_efgtoa$1852+1)& (0+255),b
  8093  003282  0E45               	movlw	69
  8094  003284  6F68               	movwf	_efgtoa$1852& (0+255),b
  8095  003286                     i2l4939:
  8096                           
  8097                           ; BSR set to: 5
  8098  003286  0E02               	movlw	low _dbuf
  8099  003288  258A               	addwf	efgtoa@i& (0+255),w,b
  8100  00328A  6ED9               	movwf	fsr2l,c
  8101  00328C  0E06               	movlw	high _dbuf
  8102  00328E  218B               	addwfc	(efgtoa@i+1)& (0+255),w,b
  8103  003290  6EDA               	movwf	fsr2h,c
  8104  003292  0061  F5A0  F4DF   	movff	_efgtoa$1852,indf2
  8105  003298                     
  8106                           ; BSR set to: 5
  8107                           ;C:\Program Files\Microchip\xc8\v2.32\pic\sources\c99\common\doprnt.c: 519:         --w;
  8108  003298  077E               	decf	efgtoa@w& (0+255),f,b
  8109  00329A  A0D8               	btfss	status,0,c
  8110  00329C  077F               	decf	(efgtoa@w+1)& (0+255),f,b
  8111  00329E                     
  8112                           ; BSR set to: 5
  8113                           ;C:\Program Files\Microchip\xc8\v2.32\pic\sources\c99\common\doprnt.c: 520:         strc
      +                          py(&dbuf[n], &dbuf[i]);
  8114  00329E  0E02               	movlw	low _dbuf
  8115  0032A0  2592               	addwf	efgtoa@n& (0+255),w,b
  8116  0032A2  6E01               	movwf	strcpy@dest^(0+1280),c
  8117  0032A4  0E06               	movlw	high _dbuf
  8118  0032A6  2193               	addwfc	(efgtoa@n+1)& (0+255),w,b
  8119  0032A8  6E02               	movwf	(strcpy@dest+1)^(0+1280),c
  8120  0032AA  0E02               	movlw	low _dbuf
  8121  0032AC  258A               	addwf	efgtoa@i& (0+255),w,b
  8122  0032AE  6E03               	movwf	strcpy@src^(0+1280),c
  8123  0032B0  0E06               	movlw	high _dbuf
  8124  0032B2  218B               	addwfc	(efgtoa@i+1)& (0+255),w,b
  8125  0032B4  6E04               	movwf	(strcpy@src+1)^(0+1280),c
  8126  0032B6  EC48  F031         	call	_strcpy	;wreg free
  8127  0032BA  EFE5  F013         	goto	i2l4685
  8128  0032BE                     i2l1407:
  8129  0032BE  0012               	return		;funcret
  8130  0032C0                     __end_of_efgtoa:
  8131                           	callstack 0
  8132                           
  8133 ;; *************** function _tolower *****************
  8134 ;; Defined at:
  8135 ;;		line 4 in file "C:\Program Files\Microchip\xc8\v2.32\pic\sources\c99\common\tolower.c"
  8136 ;; Parameters:    Size  Location     Type
  8137 ;;  c               2    6[COMRAM] int 
  8138 ;; Auto vars:     Size  Location     Type
  8139 ;;		None
  8140 ;; Return value:  Size  Location     Type
  8141 ;;                  2    6[COMRAM] int 
  8142 ;; Registers used:
  8143 ;;		wreg, status,2, status,0
  8144 ;; Tracked objects:
  8145 ;;		On entry : 0/0
  8146 ;;		On exit  : 0/0
  8147 ;;		Unchanged: 0/0
  8148 ;; Data sizes:     COMRAM   BANK5   BANK6   BANK7   BANK8   BANK9  BANK10  BANK11  BANK12  BANK13  BANK14  BANK15  BANK1
      +6  BANK17  BANK18  BANK19  BANK20  BANK21  BANK22  BANK23  BANK24  BANK25  BANK26  BANK27  BANK28  BANK29  BANK30  BANK3
      +1  BANK32  BANK33  BANK34  BANK35  BANK36  BANK37
  8149 ;;      Params:         2       0       0       0       0       0       0       0       0       0       0       0       
      +0       0       0       0       0       0       0       0       0       0       0       0       0       0       0       
      +0       0       0       0       0       0       0
  8150 ;;      Locals:         2       0       0       0       0       0       0       0       0       0       0       0       
      +0       0       0       0       0       0       0       0       0       0       0       0       0       0       0       
      +0       0       0       0       0       0       0
  8151 ;;      Temps:          4       0       0       0       0       0       0       0       0       0       0       0       
      +0       0       0       0       0       0       0       0       0       0       0       0       0       0       0       
      +0       0       0       0       0       0       0
  8152 ;;      Totals:         8       0       0       0       0       0       0       0       0       0       0       0       
      +0       0       0       0       0       0       0       0       0       0       0       0       0       0       0       
      +0       0       0       0       0       0       0
  8153 ;;Total ram usage:        8 bytes
  8154 ;; Hardware stack levels used: 1
  8155 ;; Hardware stack levels required when called: 1
  8156 ;; This function calls:
  8157 ;;		_isupper
  8158 ;; This function is called by:
  8159 ;;		_efgtoa
  8160 ;;		_vfpfcnvrt
  8161 ;; This function uses a non-reentrant model
  8162 ;;
  8163                           
  8164                           	psect	text39
  8165  0062F6                     __ptext39:
  8166                           	callstack 0
  8167  0062F6                     _tolower:
  8168                           	callstack 117
  8169  0062F6  0EBF               	movlw	191
  8170  0062F8  6E09               	movwf	??_tolower^(0+1280),c
  8171  0062FA  0EFF               	movlw	255
  8172  0062FC  6E0A               	movwf	(??_tolower+1)^(0+1280),c
  8173  0062FE  C507  F50B         	movff	tolower@c,??_tolower+2
  8174  006302  C508  F50C         	movff	tolower@c+1,??_tolower+3
  8175  006306  5009               	movf	??_tolower^(0+1280),w,c
  8176  006308  260B               	addwf	(??_tolower+2)^(0+1280),f,c
  8177  00630A  500A               	movf	(??_tolower+1)^(0+1280),w,c
  8178  00630C  220C               	addwfc	(??_tolower+3)^(0+1280),f,c
  8179  00630E  500C               	movf	(??_tolower+3)^(0+1280),w,c
  8180  006310  E10A               	bnz	i2u466_40
  8181  006312  0E1A               	movlw	26
  8182  006314  5C0B               	subwf	(??_tolower+2)^(0+1280),w,c
  8183  006316  A0D8               	btfss	status,0,c
  8184  006318  EF90  F031         	goto	i2u466_41
  8185  00631C  EF93  F031         	goto	i2u466_40
  8186  006320                     i2u466_41:
  8187  006320  0E01               	movlw	1
  8188  006322  EF94  F031         	goto	i2u467_40
  8189  006326                     i2u466_40:
  8190  006326  0E00               	movlw	0
  8191  006328                     i2u467_40:
  8192  006328  6E0D               	movwf	_tolower$2047^(0+1280),c
  8193  00632A  6A0E               	clrf	(_tolower$2047+1)^(0+1280),c
  8194  00632C  500D               	movf	_tolower$2047^(0+1280),w,c
  8195  00632E  100E               	iorwf	(_tolower$2047+1)^(0+1280),w,c
  8196  006330  B4D8               	btfsc	status,2,c
  8197  006332  EF9D  F031         	goto	i2u468_41
  8198  006336  EF9F  F031         	goto	i2u468_40
  8199  00633A                     i2u468_41:
  8200  00633A  EFA6  F031         	goto	i2l1742
  8201  00633E                     i2u468_40:
  8202  00633E  0E20               	movlw	32
  8203  006340  1007               	iorwf	tolower@c^(0+1280),w,c
  8204  006342  6E07               	movwf	?_tolower^(0+1280),c
  8205  006344  5008               	movf	(tolower@c+1)^(0+1280),w,c
  8206  006346  6E08               	movwf	(?_tolower+1)^(0+1280),c
  8207  006348  EFAA  F031         	goto	i2l1747
  8208  00634C                     i2l1742:
  8209  00634C  C507  F507         	movff	tolower@c,?_tolower
  8210  006350  C508  F508         	movff	tolower@c+1,?_tolower+1
  8211  006354                     i2l1747:
  8212  006354  0012               	return		;funcret
  8213  006356                     __end_of_tolower:
  8214                           	callstack 0
  8215                           
  8216 ;; *************** function _isupper *****************
  8217 ;; Defined at:
  8218 ;;		line 5 in file "C:\Program Files\Microchip\xc8\v2.32\pic\sources\c99\common\isupper.c"
  8219 ;; Parameters:    Size  Location     Type
  8220 ;;  c               2    0[COMRAM] int 
  8221 ;; Auto vars:     Size  Location     Type
  8222 ;;		None
  8223 ;; Return value:  Size  Location     Type
  8224 ;;                  2    0[COMRAM] int 
  8225 ;; Registers used:
  8226 ;;		wreg, status,2, status,0
  8227 ;; Tracked objects:
  8228 ;;		On entry : 0/0
  8229 ;;		On exit  : 0/0
  8230 ;;		Unchanged: 0/0
  8231 ;; Data sizes:     COMRAM   BANK5   BANK6   BANK7   BANK8   BANK9  BANK10  BANK11  BANK12  BANK13  BANK14  BANK15  BANK1
      +6  BANK17  BANK18  BANK19  BANK20  BANK21  BANK22  BANK23  BANK24  BANK25  BANK26  BANK27  BANK28  BANK29  BANK30  BANK3
      +1  BANK32  BANK33  BANK34  BANK35  BANK36  BANK37
  8232 ;;      Params:         2       0       0       0       0       0       0       0       0       0       0       0       
      +0       0       0       0       0       0       0       0       0       0       0       0       0       0       0       
      +0       0       0       0       0       0       0
  8233 ;;      Locals:         0       0       0       0       0       0       0       0       0       0       0       0       
      +0       0       0       0       0       0       0       0       0       0       0       0       0       0       0       
      +0       0       0       0       0       0       0
  8234 ;;      Temps:          4       0       0       0       0       0       0       0       0       0       0       0       
      +0       0       0       0       0       0       0       0       0       0       0       0       0       0       0       
      +0       0       0       0       0       0       0
  8235 ;;      Totals:         6       0       0       0       0       0       0       0       0       0       0       0       
      +0       0       0       0       0       0       0       0       0       0       0       0       0       0       0       
      +0       0       0       0       0       0       0
  8236 ;;Total ram usage:        6 bytes
  8237 ;; Hardware stack levels used: 1
  8238 ;; This function calls:
  8239 ;;		Nothing
  8240 ;; This function is called by:
  8241 ;;		_efgtoa
  8242 ;;		_xtoa
  8243 ;;		_vfpfcnvrt
  8244 ;;		_tolower
  8245 ;; This function uses a non-reentrant model
  8246 ;;
  8247                           
  8248                           	psect	text40
  8249  0066CC                     __ptext40:
  8250                           	callstack 0
  8251  0066CC                     _isupper:
  8252                           	callstack 117
  8253  0066CC  0EBF               	movlw	191
  8254  0066CE  6E03               	movwf	??_isupper^(0+1280),c
  8255  0066D0  0EFF               	movlw	255
  8256  0066D2  6E04               	movwf	(??_isupper+1)^(0+1280),c
  8257  0066D4  C501  F505         	movff	isupper@c,??_isupper+2
  8258  0066D8  C502  F506         	movff	isupper@c+1,??_isupper+3
  8259  0066DC  5003               	movf	??_isupper^(0+1280),w,c
  8260  0066DE  2605               	addwf	(??_isupper+2)^(0+1280),f,c
  8261  0066E0  5004               	movf	(??_isupper+1)^(0+1280),w,c
  8262  0066E2  2206               	addwfc	(??_isupper+3)^(0+1280),f,c
  8263  0066E4  5006               	movf	(??_isupper+3)^(0+1280),w,c
  8264  0066E6  E10A               	bnz	i2u372_40
  8265  0066E8  0E1A               	movlw	26
  8266  0066EA  5C05               	subwf	(??_isupper+2)^(0+1280),w,c
  8267  0066EC  A0D8               	btfss	status,0,c
  8268  0066EE  EF7B  F033         	goto	i2u372_41
  8269  0066F2  EF7E  F033         	goto	i2u372_40
  8270  0066F6                     i2u372_41:
  8271  0066F6  0E01               	movlw	1
  8272  0066F8  EF7F  F033         	goto	i2u373_40
  8273  0066FC                     i2u372_40:
  8274  0066FC  0E00               	movlw	0
  8275  0066FE                     i2u373_40:
  8276  0066FE  6E01               	movwf	?_isupper^(0+1280),c
  8277  006700  6A02               	clrf	(?_isupper+1)^(0+1280),c
  8278  006702  0012               	return		;funcret
  8279  006704                     __end_of_isupper:
  8280                           	callstack 0
  8281                           
  8282 ;; *************** function _strcpy *****************
  8283 ;; Defined at:
  8284 ;;		line 3 in file "C:\Program Files\Microchip\xc8\v2.32\pic\sources\c99\common\strcpy.c"
  8285 ;; Parameters:    Size  Location     Type
  8286 ;;  dest            2    0[COMRAM] PTR unsigned char 
  8287 ;;		 -> dbuf(80), 
  8288 ;;  src             2    2[COMRAM] PTR const unsigned char 
  8289 ;;		 -> STR_14(4), STR_13(4), STR_10(4), STR_9(4), 
  8290 ;;		 -> dbuf(80), 
  8291 ;; Auto vars:     Size  Location     Type
  8292 ;;  d               2    8[COMRAM] PTR unsigned char 
  8293 ;;		 -> dbuf(80), 
  8294 ;;  s               2    6[COMRAM] PTR const unsigned char 
  8295 ;;		 -> STR_14(4), STR_13(4), STR_10(4), STR_9(4), 
  8296 ;;		 -> dbuf(80), 
  8297 ;; Return value:  Size  Location     Type
  8298 ;;                  2    0[COMRAM] PTR unsigned char 
  8299 ;; Registers used:
  8300 ;;		wreg, fsr0l, fsr0h, fsr2l, fsr2h, status,2, status,0, tblptrl, tblptrh, tblptru
  8301 ;; Tracked objects:
  8302 ;;		On entry : 0/0
  8303 ;;		On exit  : 0/0
  8304 ;;		Unchanged: 0/0
  8305 ;; Data sizes:     COMRAM   BANK5   BANK6   BANK7   BANK8   BANK9  BANK10  BANK11  BANK12  BANK13  BANK14  BANK15  BANK1
      +6  BANK17  BANK18  BANK19  BANK20  BANK21  BANK22  BANK23  BANK24  BANK25  BANK26  BANK27  BANK28  BANK29  BANK30  BANK3
      +1  BANK32  BANK33  BANK34  BANK35  BANK36  BANK37
  8306 ;;      Params:         4       0       0       0       0       0       0       0       0       0       0       0       
      +0       0       0       0       0       0       0       0       0       0       0       0       0       0       0       
      +0       0       0       0       0       0       0
  8307 ;;      Locals:         4       0       0       0       0       0       0       0       0       0       0       0       
      +0       0       0       0       0       0       0       0       0       0       0       0       0       0       0       
      +0       0       0       0       0       0       0
  8308 ;;      Temps:          2       0       0       0       0       0       0       0       0       0       0       0       
      +0       0       0       0       0       0       0       0       0       0       0       0       0       0       0       
      +0       0       0       0       0       0       0
  8309 ;;      Totals:        10       0       0       0       0       0       0       0       0       0       0       0       
      +0       0       0       0       0       0       0       0       0       0       0       0       0       0       0       
      +0       0       0       0       0       0       0
  8310 ;;Total ram usage:       10 bytes
  8311 ;; Hardware stack levels used: 1
  8312 ;; This function calls:
  8313 ;;		Nothing
  8314 ;; This function is called by:
  8315 ;;		_efgtoa
  8316 ;; This function uses a non-reentrant model
  8317 ;;
  8318                           
  8319                           	psect	text41
  8320  006290                     __ptext41:
  8321                           	callstack 0
  8322  006290                     _strcpy:
  8323                           	callstack 117
  8324  006290  C503  F507         	movff	strcpy@src,strcpy@s
  8325  006294  C504  F508         	movff	strcpy@src+1,strcpy@s+1
  8326  006298  C501  F509         	movff	strcpy@dest,strcpy@d
  8327  00629C  C502  F50A         	movff	strcpy@dest+1,strcpy@d+1
  8328  0062A0                     i2l4571:
  8329  0062A0  5007               	movf	strcpy@s^(0+1280),w,c
  8330  0062A2  6E05               	movwf	??_strcpy^(0+1280),c
  8331  0062A4  5008               	movf	(strcpy@s+1)^(0+1280),w,c
  8332  0062A6  6E06               	movwf	(??_strcpy+1)^(0+1280),c
  8333  0062A8  4A07               	infsnz	strcpy@s^(0+1280),f,c
  8334  0062AA  2A08               	incf	(strcpy@s+1)^(0+1280),f,c
  8335  0062AC  0061  F414  F4F6   	movff	??_strcpy,tblptrl
  8336  0062B2  0061  F418  F4F7   	movff	??_strcpy+1,tblptrh
  8337  0062B8  0E00               	movlw	low (__smallconst shr (0+16))
  8338  0062BA  6EF8               	movwf	tblptru,c
  8339  0062BC  0061  F424  F4D9   	movff	strcpy@d,fsr2l
  8340  0062C2  0061  F428  F4DA   	movff	strcpy@d+1,fsr2h
  8341  0062C8  4A09               	infsnz	strcpy@d^(0+1280),f,c
  8342  0062CA  2A0A               	incf	(strcpy@d+1)^(0+1280),f,c
  8343  0062CC  0E25               	movlw	(high __ramtop+-1)
  8344  0062CE  64F7               	cpfsgt	tblptrh,c
  8345  0062D0  D003               	bra	i2u464_47
  8346  0062D2  0008               	tblrd		*
  8347  0062D4  50F5               	movf	tablat,w,c
  8348  0062D6  D005               	bra	i2u464_40
  8349  0062D8                     i2u464_47:
  8350  0062D8  C4F6 F4E9          	movff	tblptrl,fsr0l
  8351  0062DC  C4F7 F4EA          	movff	tblptrh,fsr0h
  8352  0062E0  50EF               	movf	indf0,w,c
  8353  0062E2                     i2u464_40:
  8354  0062E2  6EDF               	movwf	indf2,c
  8355  0062E4  50DF               	movf	indf2,w,c
  8356  0062E6  A4D8               	btfss	status,2,c
  8357  0062E8  EF78  F031         	goto	i2u465_41
  8358  0062EC  EF7A  F031         	goto	i2u465_40
  8359  0062F0                     i2u465_41:
  8360  0062F0  EF50  F031         	goto	i2l4571
  8361  0062F4                     i2u465_40:
  8362  0062F4  0012               	return		;funcret
  8363  0062F6                     __end_of_strcpy:
  8364                           	callstack 0
  8365                           
  8366 ;; *************** function _pad *****************
  8367 ;; Defined at:
  8368 ;;		line 72 in file "C:\Program Files\Microchip\xc8\v2.32\pic\sources\c99\common\doprnt.c"
  8369 ;; Parameters:    Size  Location     Type
  8370 ;;  fp              2   18[COMRAM] PTR struct _IO_FILE
  8371 ;;		 -> NULL(0), sprintf@f(6), 
  8372 ;;  buf             2   20[COMRAM] PTR unsigned char 
  8373 ;;		 -> dbuf(80), 
  8374 ;;  p               2   22[COMRAM] int 
  8375 ;; Auto vars:     Size  Location     Type
  8376 ;;  w               2   27[COMRAM] int 
  8377 ;;  i               2   25[COMRAM] int 
  8378 ;; Return value:  Size  Location     Type
  8379 ;;                  2   18[COMRAM] int 
  8380 ;; Registers used:
  8381 ;;		wreg, fsr1l, fsr1h, fsr2l, fsr2h, status,2, status,0, cstack
  8382 ;; Tracked objects:
  8383 ;;		On entry : 0/0
  8384 ;;		On exit  : 0/0
  8385 ;;		Unchanged: 0/0
  8386 ;; Data sizes:     COMRAM   BANK5   BANK6   BANK7   BANK8   BANK9  BANK10  BANK11  BANK12  BANK13  BANK14  BANK15  BANK1
      +6  BANK17  BANK18  BANK19  BANK20  BANK21  BANK22  BANK23  BANK24  BANK25  BANK26  BANK27  BANK28  BANK29  BANK30  BANK3
      +1  BANK32  BANK33  BANK34  BANK35  BANK36  BANK37
  8387 ;;      Params:         6       0       0       0       0       0       0       0       0       0       0       0       
      +0       0       0       0       0       0       0       0       0       0       0       0       0       0       0       
      +0       0       0       0       0       0       0
  8388 ;;      Locals:         4       0       0       0       0       0       0       0       0       0       0       0       
      +0       0       0       0       0       0       0       0       0       0       0       0       0       0       0       
      +0       0       0       0       0       0       0
  8389 ;;      Temps:          1       0       0       0       0       0       0       0       0       0       0       0       
      +0       0       0       0       0       0       0       0       0       0       0       0       0       0       0       
      +0       0       0       0       0       0       0
  8390 ;;      Totals:        11       0       0       0       0       0       0       0       0       0       0       0       
      +0       0       0       0       0       0       0       0       0       0       0       0       0       0       0       
      +0       0       0       0       0       0       0
  8391 ;;Total ram usage:       11 bytes
  8392 ;; Hardware stack levels used: 1
  8393 ;; Hardware stack levels required when called: 4
  8394 ;; This function calls:
  8395 ;;		_fputc
  8396 ;;		_fputs
  8397 ;;		_strlen
  8398 ;; This function is called by:
  8399 ;;		_efgtoa
  8400 ;;		_utoa
  8401 ;;		_xtoa
  8402 ;; This function uses a non-reentrant model
  8403 ;;
  8404                           
  8405                           	psect	text42
  8406  005C9E                     __ptext42:
  8407                           	callstack 0
  8408  005C9E                     _pad:
  8409                           	callstack 113
  8410  005C9E                     
  8411                           ;C:\Program Files\Microchip\xc8\v2.32\pic\sources\c99\common\doprnt.c: 72: static int pa
      +                          d(FILE *fp, char *buf, int p);C:\Program Files\Microchip\xc8\v2.32\pic\sources\c99\commo
      +                          n\doprnt.c: 73: {;C:\Program Files\Microchip\xc8\v2.32\pic\sources\c99\common\doprnt.c: 
      +                          74:     int i, w;;C:\Program Files\Microchip\xc8\v2.32\pic\sources\c99\common\doprnt.c: 
      +                          77:     if (flags & (1 << 0)) {
  8412  005C9E  0105               	movlb	5	; () banked
  8413  005CA0  A1DA               	btfss	_flags& (0+255),0,b
  8414  005CA2  EF55  F02E         	goto	i2u453_41
  8415  005CA6  EF57  F02E         	goto	i2u453_40
  8416  005CAA                     i2u453_41:
  8417  005CAA  EF61  F02E         	goto	i2l4529
  8418  005CAE                     i2u453_40:
  8419  005CAE                     
  8420                           ; BSR set to: 5
  8421                           ;C:\Program Files\Microchip\xc8\v2.32\pic\sources\c99\common\doprnt.c: 78:         fputs
      +                          ((const char *)buf, fp);
  8422  005CAE  C515  F50C         	movff	pad@buf,fputs@s
  8423  005CB2  C516  F50D         	movff	pad@buf+1,fputs@s+1
  8424  005CB6  C513  F50E         	movff	pad@fp,fputs@fp
  8425  005CBA  C514  F50F         	movff	pad@fp+1,fputs@fp+1
  8426  005CBE  ECCC  F032         	call	_fputs	;wreg free
  8427  005CC2                     i2l4529:
  8428                           
  8429                           ;C:\Program Files\Microchip\xc8\v2.32\pic\sources\c99\common\doprnt.c: 82:     w = (p < 
      +                          0) ? 0 : p;
  8430  005CC2  BE18               	btfsc	(pad@p+1)^(0+1280),7,c
  8431  005CC4  EF66  F02E         	goto	i2u454_41
  8432  005CC8  EF68  F02E         	goto	i2u454_40
  8433  005CCC                     i2u454_41:
  8434  005CCC  EF6E  F02E         	goto	i2l4533
  8435  005CD0                     i2u454_40:
  8436  005CD0  C517  F51C         	movff	pad@p,pad@w
  8437  005CD4  C518  F51D         	movff	pad@p+1,pad@w+1
  8438  005CD8  EF72  F02E         	goto	i2l1384
  8439  005CDC                     i2l4533:
  8440  005CDC  0E00               	movlw	0
  8441  005CDE  6E1D               	movwf	(pad@w+1)^(0+1280),c
  8442  005CE0  0E00               	movlw	0
  8443  005CE2  6E1C               	movwf	pad@w^(0+1280),c
  8444  005CE4                     i2l1384:
  8445                           
  8446                           ;C:\Program Files\Microchip\xc8\v2.32\pic\sources\c99\common\doprnt.c: 83:     i = 0;
  8447  005CE4  0E00               	movlw	0
  8448  005CE6  6E1B               	movwf	(pad@i+1)^(0+1280),c
  8449  005CE8  0E00               	movlw	0
  8450  005CEA  6E1A               	movwf	pad@i^(0+1280),c
  8451                           
  8452                           ;C:\Program Files\Microchip\xc8\v2.32\pic\sources\c99\common\doprnt.c: 84:     while (i 
      +                          < w) {
  8453  005CEC  EF84  F02E         	goto	i2l4539
  8454  005CF0                     i2l4535:
  8455                           
  8456                           ;C:\Program Files\Microchip\xc8\v2.32\pic\sources\c99\common\doprnt.c: 85:         fputc
      +                          (' ', fp);
  8457  005CF0  0E00               	movlw	0
  8458  005CF2  6E04               	movwf	(fputc@c+1)^(0+1280),c
  8459  005CF4  0E20               	movlw	32
  8460  005CF6  6E03               	movwf	fputc@c^(0+1280),c
  8461  005CF8  C513  F505         	movff	pad@fp,fputc@fp
  8462  005CFC  C514  F506         	movff	pad@fp+1,fputc@fp+1
  8463  005D00  EC7B  F02D         	call	_fputc	;wreg free
  8464  005D04                     
  8465                           ;C:\Program Files\Microchip\xc8\v2.32\pic\sources\c99\common\doprnt.c: 86:         ++i;
  8466  005D04  4A1A               	infsnz	pad@i^(0+1280),f,c
  8467  005D06  2A1B               	incf	(pad@i+1)^(0+1280),f,c
  8468  005D08                     i2l4539:
  8469                           
  8470                           ;C:\Program Files\Microchip\xc8\v2.32\pic\sources\c99\common\doprnt.c: 84:     while (i 
      +                          < w) {
  8471  005D08  501C               	movf	pad@w^(0+1280),w,c
  8472  005D0A  5C1A               	subwf	pad@i^(0+1280),w,c
  8473  005D0C  501B               	movf	(pad@i+1)^(0+1280),w,c
  8474  005D0E  0A80               	xorlw	128
  8475  005D10  6E19               	movwf	??_pad^(0+1280),c
  8476  005D12  501D               	movf	(pad@w+1)^(0+1280),w,c
  8477  005D14  0A80               	xorlw	128
  8478  005D16  5819               	subwfb	??_pad^(0+1280),w,c
  8479  005D18  A0D8               	btfss	status,0,c
  8480  005D1A  EF91  F02E         	goto	i2u455_41
  8481  005D1E  EF93  F02E         	goto	i2u455_40
  8482  005D22                     i2u455_41:
  8483  005D22  EF78  F02E         	goto	i2l4535
  8484  005D26                     i2u455_40:
  8485  005D26                     
  8486                           ;C:\Program Files\Microchip\xc8\v2.32\pic\sources\c99\common\doprnt.c: 90:     if (!(fla
      +                          gs & (1 << 0))) {
  8487  005D26  0105               	movlb	5	; () banked
  8488  005D28  B1DA               	btfsc	_flags& (0+255),0,b
  8489  005D2A  EF99  F02E         	goto	i2u456_41
  8490  005D2E  EF9B  F02E         	goto	i2u456_40
  8491  005D32                     i2u456_41:
  8492  005D32  EFA5  F02E         	goto	i2l4543
  8493  005D36                     i2u456_40:
  8494  005D36                     
  8495                           ; BSR set to: 5
  8496                           ;C:\Program Files\Microchip\xc8\v2.32\pic\sources\c99\common\doprnt.c: 91:         fputs
      +                          ((const char *)buf, fp);
  8497  005D36  C515  F50C         	movff	pad@buf,fputs@s
  8498  005D3A  C516  F50D         	movff	pad@buf+1,fputs@s+1
  8499  005D3E  C513  F50E         	movff	pad@fp,fputs@fp
  8500  005D42  C514  F50F         	movff	pad@fp+1,fputs@fp+1
  8501  005D46  ECCC  F032         	call	_fputs	;wreg free
  8502  005D4A                     i2l4543:
  8503                           
  8504                           ;C:\Program Files\Microchip\xc8\v2.32\pic\sources\c99\common\doprnt.c: 94:     return (i
      +                          nt)(strlen(buf) + (size_t)w);
  8505  005D4A  C515  F501         	movff	pad@buf,strlen@s
  8506  005D4E  C516  F502         	movff	pad@buf+1,strlen@s+1
  8507  005D52  EC2D  F033         	call	_strlen	;wreg free
  8508  005D56  501C               	movf	pad@w^(0+1280),w,c
  8509  005D58  2401               	addwf	?_strlen^(0+1280),w,c
  8510  005D5A  6E13               	movwf	?_pad^(0+1280),c
  8511  005D5C  501D               	movf	(pad@w+1)^(0+1280),w,c
  8512  005D5E  2002               	addwfc	(?_strlen+1)^(0+1280),w,c
  8513  005D60  6E14               	movwf	(?_pad+1)^(0+1280),c
  8514  005D62  0012               	return		;funcret
  8515  005D64                     __end_of_pad:
  8516                           	callstack 0
  8517                           
  8518 ;; *************** function _strlen *****************
  8519 ;; Defined at:
  8520 ;;		line 5 in file "C:\Program Files\Microchip\xc8\v2.32\pic\sources\c99\common\strlen.c"
  8521 ;; Parameters:    Size  Location     Type
  8522 ;;  s               2    0[COMRAM] PTR const unsigned char 
  8523 ;;		 -> ?_printf(2), stoa@nuls(7), dbuf(80), ?_sprintf(2), 
  8524 ;;		 -> sensor_interrupt@value_hex(4), sensor_interrupt@value(2), 
  8525 ;; Auto vars:     Size  Location     Type
  8526 ;;  a               2    2[COMRAM] PTR const unsigned char 
  8527 ;;		 -> ?_printf(2), stoa@nuls(7), dbuf(80), ?_sprintf(2), 
  8528 ;;		 -> sensor_interrupt@value_hex(4), sensor_interrupt@value(2), 
  8529 ;; Return value:  Size  Location     Type
  8530 ;;                  2    0[COMRAM] unsigned int 
  8531 ;; Registers used:
  8532 ;;		wreg, fsr2l, fsr2h, status,2, status,0
  8533 ;; Tracked objects:
  8534 ;;		On entry : 0/0
  8535 ;;		On exit  : 0/0
  8536 ;;		Unchanged: 0/0
  8537 ;; Data sizes:     COMRAM   BANK5   BANK6   BANK7   BANK8   BANK9  BANK10  BANK11  BANK12  BANK13  BANK14  BANK15  BANK1
      +6  BANK17  BANK18  BANK19  BANK20  BANK21  BANK22  BANK23  BANK24  BANK25  BANK26  BANK27  BANK28  BANK29  BANK30  BANK3
      +1  BANK32  BANK33  BANK34  BANK35  BANK36  BANK37
  8538 ;;      Params:         2       0       0       0       0       0       0       0       0       0       0       0       
      +0       0       0       0       0       0       0       0       0       0       0       0       0       0       0       
      +0       0       0       0       0       0       0
  8539 ;;      Locals:         2       0       0       0       0       0       0       0       0       0       0       0       
      +0       0       0       0       0       0       0       0       0       0       0       0       0       0       0       
      +0       0       0       0       0       0       0
  8540 ;;      Temps:          0       0       0       0       0       0       0       0       0       0       0       0       
      +0       0       0       0       0       0       0       0       0       0       0       0       0       0       0       
      +0       0       0       0       0       0       0
  8541 ;;      Totals:         4       0       0       0       0       0       0       0       0       0       0       0       
      +0       0       0       0       0       0       0       0       0       0       0       0       0       0       0       
      +0       0       0       0       0       0       0
  8542 ;;Total ram usage:        4 bytes
  8543 ;; Hardware stack levels used: 1
  8544 ;; This function calls:
  8545 ;;		Nothing
  8546 ;; This function is called by:
  8547 ;;		_pad
  8548 ;;		_stoa
  8549 ;; This function uses a non-reentrant model
  8550 ;;
  8551                           
  8552                           	psect	text43
  8553  00665A                     __ptext43:
  8554                           	callstack 0
  8555  00665A                     _strlen:
  8556                           	callstack 116
  8557  00665A  C501  F503         	movff	strlen@s,strlen@a
  8558  00665E  C502  F504         	movff	strlen@s+1,strlen@a+1
  8559  006662  EF35  F033         	goto	i2l4023
  8560  006666                     i2l4021:
  8561  006666  4A01               	infsnz	strlen@s^(0+1280),f,c
  8562  006668  2A02               	incf	(strlen@s+1)^(0+1280),f,c
  8563  00666A                     i2l4023:
  8564  00666A  0061  F404  F4D9   	movff	strlen@s,fsr2l
  8565  006670  0061  F408  F4DA   	movff	strlen@s+1,fsr2h
  8566  006676  50DF               	movf	indf2,w,c
  8567  006678  A4D8               	btfss	status,2,c
  8568  00667A  EF41  F033         	goto	i2u371_41
  8569  00667E  EF43  F033         	goto	i2u371_40
  8570  006682                     i2u371_41:
  8571  006682  EF33  F033         	goto	i2l4021
  8572  006686                     i2u371_40:
  8573  006686  5003               	movf	strlen@a^(0+1280),w,c
  8574  006688  5C01               	subwf	strlen@s^(0+1280),w,c
  8575  00668A  6E01               	movwf	?_strlen^(0+1280),c
  8576  00668C  5004               	movf	(strlen@a+1)^(0+1280),w,c
  8577  00668E  5802               	subwfb	(strlen@s+1)^(0+1280),w,c
  8578  006690  6E02               	movwf	(?_strlen+1)^(0+1280),c
  8579  006692  0012               	return		;funcret
  8580  006694                     __end_of_strlen:
  8581                           	callstack 0
  8582                           
  8583 ;; *************** function _fputs *****************
  8584 ;; Defined at:
  8585 ;;		line 8 in file "C:\Program Files\Microchip\xc8\v2.32\pic\sources\c99\common\nf_fputs.c"
  8586 ;; Parameters:    Size  Location     Type
  8587 ;;  s               2   11[COMRAM] PTR const unsigned char 
  8588 ;;		 -> dbuf(80), 
  8589 ;;  fp              2   13[COMRAM] PTR struct _IO_FILE
  8590 ;;		 -> NULL(0), sprintf@f(6), 
  8591 ;; Auto vars:     Size  Location     Type
  8592 ;;  i               2   16[COMRAM] int 
  8593 ;;  c               1   15[COMRAM] unsigned char 
  8594 ;; Return value:  Size  Location     Type
  8595 ;;                  2   11[COMRAM] int 
  8596 ;; Registers used:
  8597 ;;		wreg, fsr1l, fsr1h, fsr2l, fsr2h, status,2, status,0, cstack
  8598 ;; Tracked objects:
  8599 ;;		On entry : 0/0
  8600 ;;		On exit  : 0/0
  8601 ;;		Unchanged: 0/0
  8602 ;; Data sizes:     COMRAM   BANK5   BANK6   BANK7   BANK8   BANK9  BANK10  BANK11  BANK12  BANK13  BANK14  BANK15  BANK1
      +6  BANK17  BANK18  BANK19  BANK20  BANK21  BANK22  BANK23  BANK24  BANK25  BANK26  BANK27  BANK28  BANK29  BANK30  BANK3
      +1  BANK32  BANK33  BANK34  BANK35  BANK36  BANK37
  8603 ;;      Params:         4       0       0       0       0       0       0       0       0       0       0       0       
      +0       0       0       0       0       0       0       0       0       0       0       0       0       0       0       
      +0       0       0       0       0       0       0
  8604 ;;      Locals:         3       0       0       0       0       0       0       0       0       0       0       0       
      +0       0       0       0       0       0       0       0       0       0       0       0       0       0       0       
      +0       0       0       0       0       0       0
  8605 ;;      Temps:          0       0       0       0       0       0       0       0       0       0       0       0       
      +0       0       0       0       0       0       0       0       0       0       0       0       0       0       0       
      +0       0       0       0       0       0       0
  8606 ;;      Totals:         7       0       0       0       0       0       0       0       0       0       0       0       
      +0       0       0       0       0       0       0       0       0       0       0       0       0       0       0       
      +0       0       0       0       0       0       0
  8607 ;;Total ram usage:        7 bytes
  8608 ;; Hardware stack levels used: 1
  8609 ;; Hardware stack levels required when called: 3
  8610 ;; This function calls:
  8611 ;;		_fputc
  8612 ;; This function is called by:
  8613 ;;		_pad
  8614 ;; This function uses a non-reentrant model
  8615 ;;
  8616                           
  8617                           	psect	text44
  8618  006598                     __ptext44:
  8619                           	callstack 0
  8620  006598                     _fputs:
  8621                           	callstack 113
  8622  006598  0E00               	movlw	0
  8623  00659A  6E12               	movwf	(fputs@i+1)^(0+1280),c
  8624  00659C  0E00               	movlw	0
  8625  00659E  6E11               	movwf	fputs@i^(0+1280),c
  8626  0065A0  EFDD  F032         	goto	i2l4017
  8627  0065A4                     i2l4013:
  8628  0065A4  C510  F503         	movff	fputs@c,fputc@c
  8629  0065A8  6A04               	clrf	(fputc@c+1)^(0+1280),c
  8630  0065AA  C50E  F505         	movff	fputs@fp,fputc@fp
  8631  0065AE  C50F  F506         	movff	fputs@fp+1,fputc@fp+1
  8632  0065B2  EC7B  F02D         	call	_fputc	;wreg free
  8633  0065B6  4A11               	infsnz	fputs@i^(0+1280),f,c
  8634  0065B8  2A12               	incf	(fputs@i+1)^(0+1280),f,c
  8635  0065BA                     i2l4017:
  8636  0065BA  5011               	movf	fputs@i^(0+1280),w,c
  8637  0065BC  240C               	addwf	fputs@s^(0+1280),w,c
  8638  0065BE  6ED9               	movwf	fsr2l,c
  8639  0065C0  5012               	movf	(fputs@i+1)^(0+1280),w,c
  8640  0065C2  200D               	addwfc	(fputs@s+1)^(0+1280),w,c
  8641  0065C4  6EDA               	movwf	fsr2h,c
  8642  0065C6  50DF               	movf	indf2,w,c
  8643  0065C8  6E10               	movwf	fputs@c^(0+1280),c
  8644  0065CA  5010               	movf	fputs@c^(0+1280),w,c
  8645  0065CC  A4D8               	btfss	status,2,c
  8646  0065CE  EFEB  F032         	goto	i2u370_41
  8647  0065D2  EFED  F032         	goto	i2u370_40
  8648  0065D6                     i2u370_41:
  8649  0065D6  EFD2  F032         	goto	i2l4013
  8650  0065DA                     i2u370_40:
  8651  0065DA  0012               	return		;funcret
  8652  0065DC                     __end_of_fputs:
  8653                           	callstack 0
  8654                           
  8655 ;; *************** function _fputc *****************
  8656 ;; Defined at:
  8657 ;;		line 8 in file "C:\Program Files\Microchip\xc8\v2.32\pic\sources\c99\common\nf_fputc.c"
  8658 ;; Parameters:    Size  Location     Type
  8659 ;;  c               2    2[COMRAM] int 
  8660 ;;  fp              2    4[COMRAM] PTR struct _IO_FILE
  8661 ;;		 -> NULL(0), sprintf@f(6), 
  8662 ;; Auto vars:     Size  Location     Type
  8663 ;;		None
  8664 ;; Return value:  Size  Location     Type
  8665 ;;                  2    2[COMRAM] int 
  8666 ;; Registers used:
  8667 ;;		wreg, fsr1l, fsr1h, fsr2l, fsr2h, status,2, status,0, cstack
  8668 ;; Tracked objects:
  8669 ;;		On entry : 0/0
  8670 ;;		On exit  : 0/0
  8671 ;;		Unchanged: 0/0
  8672 ;; Data sizes:     COMRAM   BANK5   BANK6   BANK7   BANK8   BANK9  BANK10  BANK11  BANK12  BANK13  BANK14  BANK15  BANK1
      +6  BANK17  BANK18  BANK19  BANK20  BANK21  BANK22  BANK23  BANK24  BANK25  BANK26  BANK27  BANK28  BANK29  BANK30  BANK3
      +1  BANK32  BANK33  BANK34  BANK35  BANK36  BANK37
  8673 ;;      Params:         4       0       0       0       0       0       0       0       0       0       0       0       
      +0       0       0       0       0       0       0       0       0       0       0       0       0       0       0       
      +0       0       0       0       0       0       0
  8674 ;;      Locals:         0       0       0       0       0       0       0       0       0       0       0       0       
      +0       0       0       0       0       0       0       0       0       0       0       0       0       0       0       
      +0       0       0       0       0       0       0
  8675 ;;      Temps:          5       0       0       0       0       0       0       0       0       0       0       0       
      +0       0       0       0       0       0       0       0       0       0       0       0       0       0       0       
      +0       0       0       0       0       0       0
  8676 ;;      Totals:         9       0       0       0       0       0       0       0       0       0       0       0       
      +0       0       0       0       0       0       0       0       0       0       0       0       0       0       0       
      +0       0       0       0       0       0       0
  8677 ;;Total ram usage:        9 bytes
  8678 ;; Hardware stack levels used: 1
  8679 ;; Hardware stack levels required when called: 2
  8680 ;; This function calls:
  8681 ;;		_putch
  8682 ;; This function is called by:
  8683 ;;		_pad
  8684 ;;		_stoa
  8685 ;;		_vfpfcnvrt
  8686 ;;		_fputs
  8687 ;; This function uses a non-reentrant model
  8688 ;;
  8689                           
  8690                           	psect	text45
  8691  005AF6                     __ptext45:
  8692                           	callstack 0
  8693  005AF6                     _fputc:
  8694                           	callstack 113
  8695  005AF6  5005               	movf	fputc@fp^(0+1280),w,c
  8696  005AF8  1006               	iorwf	(fputc@fp+1)^(0+1280),w,c
  8697  005AFA  B4D8               	btfsc	status,2,c
  8698  005AFC  EF82  F02D         	goto	i2u327_41
  8699  005B00  EF84  F02D         	goto	i2u327_40
  8700  005B04                     i2u327_41:
  8701  005B04  EF8D  F02D         	goto	i2l3799
  8702  005B08                     i2u327_40:
  8703  005B08  5005               	movf	fputc@fp^(0+1280),w,c
  8704  005B0A  1006               	iorwf	(fputc@fp+1)^(0+1280),w,c
  8705  005B0C  A4D8               	btfss	status,2,c
  8706  005B0E  EF8B  F02D         	goto	i2u328_41
  8707  005B12  EF8D  F02D         	goto	i2u328_40
  8708  005B16                     i2u328_41:
  8709  005B16  EF92  F02D         	goto	i2l3801
  8710  005B1A                     i2u328_40:
  8711  005B1A                     i2l3799:
  8712  005B1A  5003               	movf	fputc@c^(0+1280),w,c
  8713  005B1C  ECB7  F034         	call	_putch
  8714  005B20  EFE6  F02D         	goto	i2l1701
  8715  005B24                     i2l3801:
  8716  005B24  EE20 F004          	lfsr	2,4
  8717  005B28  5005               	movf	fputc@fp^(0+1280),w,c
  8718  005B2A  26D9               	addwf	fsr2l,f,c
  8719  005B2C  5006               	movf	(fputc@fp+1)^(0+1280),w,c
  8720  005B2E  22DA               	addwfc	fsr2h,f,c
  8721  005B30  50DE               	movf	postinc2,w,c
  8722  005B32  10DE               	iorwf	postinc2,w,c
  8723  005B34  B4D8               	btfsc	status,2,c
  8724  005B36  EF9F  F02D         	goto	i2u329_41
  8725  005B3A  EFA1  F02D         	goto	i2u329_40
  8726  005B3E                     i2u329_41:
  8727  005B3E  EFBC  F02D         	goto	i2l3805
  8728  005B42                     i2u329_40:
  8729  005B42  EE20 F004          	lfsr	2,4
  8730  005B46  5005               	movf	fputc@fp^(0+1280),w,c
  8731  005B48  26D9               	addwf	fsr2l,f,c
  8732  005B4A  5006               	movf	(fputc@fp+1)^(0+1280),w,c
  8733  005B4C  22DA               	addwfc	fsr2h,f,c
  8734  005B4E  EE10 F002          	lfsr	1,2
  8735  005B52  5005               	movf	fputc@fp^(0+1280),w,c
  8736  005B54  26E1               	addwf	fsr1l,f,c
  8737  005B56  5006               	movf	(fputc@fp+1)^(0+1280),w,c
  8738  005B58  22E2               	addwfc	fsr1h,f,c
  8739  005B5A  50DE               	movf	postinc2,w,c
  8740  005B5C  5CE6               	subwf	postinc1,w,c
  8741  005B5E  50E6               	movf	postinc1,w,c
  8742  005B60  0A80               	xorlw	128
  8743  005B62  6E0B               	movwf	(??_fputc+4)^(0+1280),c
  8744  005B64  50DE               	movf	postinc2,w,c
  8745  005B66  0A80               	xorlw	128
  8746  005B68  580B               	subwfb	(??_fputc+4)^(0+1280),w,c
  8747  005B6A  B0D8               	btfsc	status,0,c
  8748  005B6C  EFBA  F02D         	goto	i2u330_41
  8749  005B70  EFBC  F02D         	goto	i2u330_40
  8750  005B74                     i2u330_41:
  8751  005B74  EFE6  F02D         	goto	i2l1701
  8752  005B78                     i2u330_40:
  8753  005B78                     i2l3805:
  8754  005B78  EE20 F002          	lfsr	2,2
  8755  005B7C  5005               	movf	fputc@fp^(0+1280),w,c
  8756  005B7E  26D9               	addwf	fsr2l,f,c
  8757  005B80  5006               	movf	(fputc@fp+1)^(0+1280),w,c
  8758  005B82  22DA               	addwfc	fsr2h,f,c
  8759  005B84  0061 F378  F507    	movff	postinc2,??_fputc
  8760  005B8A  0061 F374  F508    	movff	postdec2,??_fputc+1
  8761  005B90  0061  F414  F4D9   	movff	fputc@fp,fsr2l
  8762  005B96  0061  F418  F4DA   	movff	fputc@fp+1,fsr2h
  8763  005B9C  0061 F378  F509    	movff	postinc2,??_fputc+2
  8764  005BA2  0061 F374  F50A    	movff	postdec2,??_fputc+3
  8765  005BA8  5007               	movf	??_fputc^(0+1280),w,c
  8766  005BAA  2409               	addwf	(??_fputc+2)^(0+1280),w,c
  8767  005BAC  6ED9               	movwf	fsr2l,c
  8768  005BAE  5008               	movf	(??_fputc+1)^(0+1280),w,c
  8769  005BB0  200A               	addwfc	(??_fputc+3)^(0+1280),w,c
  8770  005BB2  6EDA               	movwf	fsr2h,c
  8771  005BB4  0061  F40C  F4DF   	movff	fputc@c,indf2
  8772  005BBA  EE20 F002          	lfsr	2,2
  8773  005BBE  5005               	movf	fputc@fp^(0+1280),w,c
  8774  005BC0  26D9               	addwf	fsr2l,f,c
  8775  005BC2  5006               	movf	(fputc@fp+1)^(0+1280),w,c
  8776  005BC4  22DA               	addwfc	fsr2h,f,c
  8777  005BC6  2ADE               	incf	postinc2,f,c
  8778  005BC8  0E00               	movlw	0
  8779  005BCA  22DD               	addwfc	postdec2,f,c
  8780  005BCC                     i2l1701:
  8781  005BCC  0012               	return		;funcret
  8782  005BCE                     __end_of_fputc:
  8783                           	callstack 0
  8784                           
  8785 ;; *************** function _putch *****************
  8786 ;; Defined at:
  8787 ;;		line 175 in file "mcc_generated_files/uart5.c"
  8788 ;; Parameters:    Size  Location     Type
  8789 ;;  txData          1    wreg     unsigned char 
  8790 ;; Auto vars:     Size  Location     Type
  8791 ;;  txData          1    1[COMRAM] unsigned char 
  8792 ;; Return value:  Size  Location     Type
  8793 ;;                  1    wreg      void 
  8794 ;; Registers used:
  8795 ;;		wreg, status,2, cstack
  8796 ;; Tracked objects:
  8797 ;;		On entry : 0/0
  8798 ;;		On exit  : 0/0
  8799 ;;		Unchanged: 0/0
  8800 ;; Data sizes:     COMRAM   BANK5   BANK6   BANK7   BANK8   BANK9  BANK10  BANK11  BANK12  BANK13  BANK14  BANK15  BANK1
      +6  BANK17  BANK18  BANK19  BANK20  BANK21  BANK22  BANK23  BANK24  BANK25  BANK26  BANK27  BANK28  BANK29  BANK30  BANK3
      +1  BANK32  BANK33  BANK34  BANK35  BANK36  BANK37
  8801 ;;      Params:         0       0       0       0       0       0       0       0       0       0       0       0       
      +0       0       0       0       0       0       0       0       0       0       0       0       0       0       0       
      +0       0       0       0       0       0       0
  8802 ;;      Locals:         1       0       0       0       0       0       0       0       0       0       0       0       
      +0       0       0       0       0       0       0       0       0       0       0       0       0       0       0       
      +0       0       0       0       0       0       0
  8803 ;;      Temps:          0       0       0       0       0       0       0       0       0       0       0       0       
      +0       0       0       0       0       0       0       0       0       0       0       0       0       0       0       
      +0       0       0       0       0       0       0
  8804 ;;      Totals:         1       0       0       0       0       0       0       0       0       0       0       0       
      +0       0       0       0       0       0       0       0       0       0       0       0       0       0       0       
      +0       0       0       0       0       0       0
  8805 ;;Total ram usage:        1 bytes
  8806 ;; Hardware stack levels used: 1
  8807 ;; Hardware stack levels required when called: 1
  8808 ;; This function calls:
  8809 ;;		_UART5_Write
  8810 ;; This function is called by:
  8811 ;;		_fputc
  8812 ;; This function uses a non-reentrant model
  8813 ;;
  8814                           
  8815                           	psect	text46
  8816  00696E                     __ptext46:
  8817                           	callstack 0
  8818  00696E                     _putch:
  8819                           	callstack 113
  8820                           
  8821                           ;incstack = 0
  8822                           ;putch@txData stored from wreg
  8823  00696E  6E02               	movwf	putch@txData^(0+1280),c
  8824  006970                     
  8825                           ;mcc_generated_files/uart5.c: 175: void putch(char txData);mcc_generated_files/uart5.c: 
      +                          176: {;mcc_generated_files/uart5.c: 177:     UART5_Write(txData);
  8826  006970  5002               	movf	putch@txData^(0+1280),w,c
  8827  006972  EC7A  F034         	call	_UART5_Write
  8828  006976  0012               	return		;funcret
  8829  006978                     __end_of_putch:
  8830                           	callstack 0
  8831                           
  8832 ;; *************** function _UART5_Write *****************
  8833 ;; Defined at:
  8834 ;;		line 161 in file "mcc_generated_files/uart5.c"
  8835 ;; Parameters:    Size  Location     Type
  8836 ;;  txData          1    wreg     unsigned char 
  8837 ;; Auto vars:     Size  Location     Type
  8838 ;;  txData          1    0[COMRAM] unsigned char 
  8839 ;; Return value:  Size  Location     Type
  8840 ;;                  1    wreg      void 
  8841 ;; Registers used:
  8842 ;;		wreg
  8843 ;; Tracked objects:
  8844 ;;		On entry : 0/0
  8845 ;;		On exit  : 0/0
  8846 ;;		Unchanged: 0/0
  8847 ;; Data sizes:     COMRAM   BANK5   BANK6   BANK7   BANK8   BANK9  BANK10  BANK11  BANK12  BANK13  BANK14  BANK15  BANK1
      +6  BANK17  BANK18  BANK19  BANK20  BANK21  BANK22  BANK23  BANK24  BANK25  BANK26  BANK27  BANK28  BANK29  BANK30  BANK3
      +1  BANK32  BANK33  BANK34  BANK35  BANK36  BANK37
  8848 ;;      Params:         0       0       0       0       0       0       0       0       0       0       0       0       
      +0       0       0       0       0       0       0       0       0       0       0       0       0       0       0       
      +0       0       0       0       0       0       0
  8849 ;;      Locals:         1       0       0       0       0       0       0       0       0       0       0       0       
      +0       0       0       0       0       0       0       0       0       0       0       0       0       0       0       
      +0       0       0       0       0       0       0
  8850 ;;      Temps:          0       0       0       0       0       0       0       0       0       0       0       0       
      +0       0       0       0       0       0       0       0       0       0       0       0       0       0       0       
      +0       0       0       0       0       0       0
  8851 ;;      Totals:         1       0       0       0       0       0       0       0       0       0       0       0       
      +0       0       0       0       0       0       0       0       0       0       0       0       0       0       0       
      +0       0       0       0       0       0       0
  8852 ;;Total ram usage:        1 bytes
  8853 ;; Hardware stack levels used: 1
  8854 ;; This function calls:
  8855 ;;		Nothing
  8856 ;; This function is called by:
  8857 ;;		_putch
  8858 ;; This function uses a non-reentrant model
  8859 ;;
  8860                           
  8861                           	psect	text47
  8862  0068F4                     __ptext47:
  8863                           	callstack 0
  8864  0068F4                     _UART5_Write:
  8865                           	callstack 113
  8866                           
  8867                           ;incstack = 0
  8868                           ;UART5_Write@txData stored from wreg
  8869  0068F4  6E01               	movwf	UART5_Write@txData^(0+1280),c
  8870  0068F6                     i2l242:
  8871                           
  8872                           ;mcc_generated_files/uart5.c: 163:     while(0 == PIR13bits.U5TXIF)
  8873  0068F6  A2BB               	btfss	187,1,c	;volatile
  8874  0068F8  EF80  F034         	goto	i2u326_41
  8875  0068FC  EF82  F034         	goto	i2u326_40
  8876  006900                     i2u326_41:
  8877  006900  EF7B  F034         	goto	i2l242
  8878  006904                     i2u326_40:
  8879  006904                     
  8880                           ;mcc_generated_files/uart5.c: 167:     U5TXB = txData;
  8881  006904  0061  F404  F2EF   	movff	UART5_Write@txData,751	;volatile
  8882  00690A  0012               	return		;funcret
  8883  00690C                     __end_of_UART5_Write:
  8884                           	callstack 0
  8885                           
  8886 ;; *************** function _floorf *****************
  8887 ;; Defined at:
  8888 ;;		line 3 in file "C:\Program Files\Microchip\xc8\v2.32\pic\sources\c99\common\floorf.c"
  8889 ;; Parameters:    Size  Location     Type
  8890 ;;  x               4   25[COMRAM] float 
  8891 ;; Auto vars:     Size  Location     Type
  8892 ;;  u               4   41[COMRAM] struct .
  8893 ;;  m               4   35[COMRAM] unsigned long 
  8894 ;;  e               2   39[COMRAM] int 
  8895 ;; Return value:  Size  Location     Type
  8896 ;;                  4   25[COMRAM] float 
  8897 ;; Registers used:
  8898 ;;		wreg, status,2, status,0
  8899 ;; Tracked objects:
  8900 ;;		On entry : 0/0
  8901 ;;		On exit  : 0/0
  8902 ;;		Unchanged: 0/0
  8903 ;; Data sizes:     COMRAM   BANK5   BANK6   BANK7   BANK8   BANK9  BANK10  BANK11  BANK12  BANK13  BANK14  BANK15  BANK1
      +6  BANK17  BANK18  BANK19  BANK20  BANK21  BANK22  BANK23  BANK24  BANK25  BANK26  BANK27  BANK28  BANK29  BANK30  BANK3
      +1  BANK32  BANK33  BANK34  BANK35  BANK36  BANK37
  8904 ;;      Params:         4       0       0       0       0       0       0       0       0       0       0       0       
      +0       0       0       0       0       0       0       0       0       0       0       0       0       0       0       
      +0       0       0       0       0       0       0
  8905 ;;      Locals:        10       0       0       0       0       0       0       0       0       0       0       0       
      +0       0       0       0       0       0       0       0       0       0       0       0       0       0       0       
      +0       0       0       0       0       0       0
  8906 ;;      Temps:          6       0       0       0       0       0       0       0       0       0       0       0       
      +0       0       0       0       0       0       0       0       0       0       0       0       0       0       0       
      +0       0       0       0       0       0       0
  8907 ;;      Totals:        20       0       0       0       0       0       0       0       0       0       0       0       
      +0       0       0       0       0       0       0       0       0       0       0       0       0       0       0       
      +0       0       0       0       0       0       0
  8908 ;;Total ram usage:       20 bytes
  8909 ;; Hardware stack levels used: 1
  8910 ;; This function calls:
  8911 ;;		Nothing
  8912 ;; This function is called by:
  8913 ;;		_efgtoa
  8914 ;; This function uses a non-reentrant model
  8915 ;;
  8916                           
  8917                           	psect	text48
  8918  004C06                     __ptext48:
  8919                           	callstack 0
  8920  004C06                     _floorf:
  8921                           	callstack 117
  8922  004C06  C5CC  F52A         	movff	floorf@F527,floorf@u
  8923  004C0A  C5CD  F52B         	movff	floorf@F527+1,floorf@u+1
  8924  004C0E  C5CE  F52C         	movff	floorf@F527+2,floorf@u+2
  8925  004C12  C5CF  F52D         	movff	floorf@F527+3,floorf@u+3
  8926  004C16  C51A  F52A         	movff	floorf@x,floorf@u
  8927  004C1A  C51B  F52B         	movff	floorf@x+1,floorf@u+1
  8928  004C1E  C51C  F52C         	movff	floorf@x+2,floorf@u+2
  8929  004C22  C51D  F52D         	movff	floorf@x+3,floorf@u+3
  8930  004C26  0E81               	movlw	129
  8931  004C28  6E1E               	movwf	??_floorf^(0+1280),c
  8932  004C2A  0EFF               	movlw	255
  8933  004C2C  6E1F               	movwf	(??_floorf+1)^(0+1280),c
  8934  004C2E  C52A  F520         	movff	floorf@u,??_floorf+2
  8935  004C32  C52B  F521         	movff	floorf@u+1,??_floorf+3
  8936  004C36  C52C  F522         	movff	floorf@u+2,??_floorf+4
  8937  004C3A  C52D  F523         	movff	floorf@u+3,??_floorf+5
  8938  004C3E  0E18               	movlw	24
  8939  004C40  EF27  F026         	goto	i2u469_40
  8940  004C44                     i2u469_45:
  8941  004C44  90D8               	bcf	status,0,c
  8942  004C46  3223               	rrcf	(??_floorf+5)^(0+1280),f,c
  8943  004C48  3222               	rrcf	(??_floorf+4)^(0+1280),f,c
  8944  004C4A  3221               	rrcf	(??_floorf+3)^(0+1280),f,c
  8945  004C4C  3220               	rrcf	(??_floorf+2)^(0+1280),f,c
  8946  004C4E                     i2u469_40:
  8947  004C4E  2EE8               	decfsz	wreg,f,c
  8948  004C50  EF22  F026         	goto	i2u469_45
  8949  004C54  5020               	movf	(??_floorf+2)^(0+1280),w,c
  8950  004C56  241E               	addwf	??_floorf^(0+1280),w,c
  8951  004C58  6E28               	movwf	floorf@e^(0+1280),c
  8952  004C5A  0E00               	movlw	0
  8953  004C5C  201F               	addwfc	(??_floorf+1)^(0+1280),w,c
  8954  004C5E  6E29               	movwf	(floorf@e+1)^(0+1280),c
  8955  004C60  BE29               	btfsc	(floorf@e+1)^(0+1280),7,c
  8956  004C62  EF3C  F026         	goto	i2u470_41
  8957  004C66  5029               	movf	(floorf@e+1)^(0+1280),w,c
  8958  004C68  E109               	bnz	i2u470_40
  8959  004C6A  0E17               	movlw	23
  8960  004C6C  5C28               	subwf	floorf@e^(0+1280),w,c
  8961  004C6E  A0D8               	btfss	status,0,c
  8962  004C70  EF3C  F026         	goto	i2u470_41
  8963  004C74  EF3E  F026         	goto	i2u470_40
  8964  004C78                     i2u470_41:
  8965  004C78  EF48  F026         	goto	i2l4589
  8966  004C7C                     i2u470_40:
  8967  004C7C                     i2l4587:
  8968  004C7C  C51A  F51A         	movff	floorf@x,?_floorf
  8969  004C80  C51B  F51B         	movff	floorf@x+1,?_floorf+1
  8970  004C84  C51C  F51C         	movff	floorf@x+2,?_floorf+2
  8971  004C88  C51D  F51D         	movff	floorf@x+3,?_floorf+3
  8972  004C8C  EF0B  F027         	goto	i2l1656
  8973  004C90                     i2l4589:
  8974  004C90  BE29               	btfsc	(floorf@e+1)^(0+1280),7,c
  8975  004C92  EF4D  F026         	goto	i2u471_41
  8976  004C96  EF4F  F026         	goto	i2u471_40
  8977  004C9A                     i2u471_41:
  8978  004C9A  EFBF  F026         	goto	i2l4599
  8979  004C9E                     i2u471_40:
  8980  004C9E  C528  F51E         	movff	floorf@e,??_floorf
  8981  004CA2  0EFF               	movlw	255
  8982  004CA4  6E1F               	movwf	(??_floorf+1)^(0+1280),c
  8983  004CA6  0EFF               	movlw	255
  8984  004CA8  6E20               	movwf	(??_floorf+2)^(0+1280),c
  8985  004CAA  0E7F               	movlw	127
  8986  004CAC  6E21               	movwf	(??_floorf+3)^(0+1280),c
  8987  004CAE  0E00               	movlw	0
  8988  004CB0  6E22               	movwf	(??_floorf+4)^(0+1280),c
  8989  004CB2                     i2u472_45:
  8990  004CB2  661E               	tstfsz	??_floorf^(0+1280),c
  8991  004CB4  EF5E  F026         	goto	i2u472_46
  8992  004CB8  EF66  F026         	goto	i2u472_47
  8993  004CBC                     i2u472_46:
  8994  004CBC  3422               	rlcf	(??_floorf+4)^(0+1280),w,c
  8995  004CBE  3222               	rrcf	(??_floorf+4)^(0+1280),f,c
  8996  004CC0  3221               	rrcf	(??_floorf+3)^(0+1280),f,c
  8997  004CC2  3220               	rrcf	(??_floorf+2)^(0+1280),f,c
  8998  004CC4  321F               	rrcf	(??_floorf+1)^(0+1280),f,c
  8999  004CC6  2E1E               	decfsz	??_floorf^(0+1280),f,c
  9000  004CC8  EF59  F026         	goto	i2u472_45
  9001  004CCC                     i2u472_47:
  9002  004CCC  C51F  F524         	movff	??_floorf+1,floorf@m
  9003  004CD0  C520  F525         	movff	??_floorf+2,floorf@m+1
  9004  004CD4  C521  F526         	movff	??_floorf+3,floorf@m+2
  9005  004CD8  C522  F527         	movff	??_floorf+4,floorf@m+3
  9006  004CDC  5024               	movf	floorf@m^(0+1280),w,c
  9007  004CDE  142A               	andwf	floorf@u^(0+1280),w,c
  9008  004CE0  6E1E               	movwf	??_floorf^(0+1280),c
  9009  004CE2  5025               	movf	(floorf@m+1)^(0+1280),w,c
  9010  004CE4  142B               	andwf	(floorf@u+1)^(0+1280),w,c
  9011  004CE6  6E1F               	movwf	(??_floorf+1)^(0+1280),c
  9012  004CE8  5026               	movf	(floorf@m+2)^(0+1280),w,c
  9013  004CEA  142C               	andwf	(floorf@u+2)^(0+1280),w,c
  9014  004CEC  6E20               	movwf	(??_floorf+2)^(0+1280),c
  9015  004CEE  5027               	movf	(floorf@m+3)^(0+1280),w,c
  9016  004CF0  142D               	andwf	(floorf@u+3)^(0+1280),w,c
  9017  004CF2  6E21               	movwf	(??_floorf+3)^(0+1280),c
  9018  004CF4  501E               	movf	??_floorf^(0+1280),w,c
  9019  004CF6  101F               	iorwf	(??_floorf+1)^(0+1280),w,c
  9020  004CF8  1020               	iorwf	(??_floorf+2)^(0+1280),w,c
  9021  004CFA  1021               	iorwf	(??_floorf+3)^(0+1280),w,c
  9022  004CFC  A4D8               	btfss	status,2,c
  9023  004CFE  EF83  F026         	goto	i2u473_41
  9024  004D02  EF85  F026         	goto	i2u473_40
  9025  004D06                     i2u473_41:
  9026  004D06  EF87  F026         	goto	i2l4595
  9027  004D0A                     i2u473_40:
  9028  004D0A  EF3E  F026         	goto	i2l4587
  9029  004D0E                     i2l4595:
  9030  004D0E  C52A  F51E         	movff	floorf@u,??_floorf
  9031  004D12  C52B  F51F         	movff	floorf@u+1,??_floorf+1
  9032  004D16  C52C  F520         	movff	floorf@u+2,??_floorf+2
  9033  004D1A  C52D  F521         	movff	floorf@u+3,??_floorf+3
  9034  004D1E  0E20               	movlw	32
  9035  004D20  EF97  F026         	goto	i2u474_40
  9036  004D24                     i2u474_45:
  9037  004D24  90D8               	bcf	status,0,c
  9038  004D26  3221               	rrcf	(??_floorf+3)^(0+1280),f,c
  9039  004D28  3220               	rrcf	(??_floorf+2)^(0+1280),f,c
  9040  004D2A  321F               	rrcf	(??_floorf+1)^(0+1280),f,c
  9041  004D2C  321E               	rrcf	??_floorf^(0+1280),f,c
  9042  004D2E                     i2u474_40:
  9043  004D2E  2EE8               	decfsz	wreg,f,c
  9044  004D30  EF92  F026         	goto	i2u474_45
  9045  004D34  501E               	movf	??_floorf^(0+1280),w,c
  9046  004D36  101F               	iorwf	(??_floorf+1)^(0+1280),w,c
  9047  004D38  1020               	iorwf	(??_floorf+2)^(0+1280),w,c
  9048  004D3A  1021               	iorwf	(??_floorf+3)^(0+1280),w,c
  9049  004D3C  B4D8               	btfsc	status,2,c
  9050  004D3E  EFA3  F026         	goto	i2u475_41
  9051  004D42  EFA5  F026         	goto	i2u475_40
  9052  004D46                     i2u475_41:
  9053  004D46  EFAD  F026         	goto	i2l1659
  9054  004D4A                     i2u475_40:
  9055  004D4A  5024               	movf	floorf@m^(0+1280),w,c
  9056  004D4C  262A               	addwf	floorf@u^(0+1280),f,c
  9057  004D4E  5025               	movf	(floorf@m+1)^(0+1280),w,c
  9058  004D50  222B               	addwfc	(floorf@u+1)^(0+1280),f,c
  9059  004D52  5026               	movf	(floorf@m+2)^(0+1280),w,c
  9060  004D54  222C               	addwfc	(floorf@u+2)^(0+1280),f,c
  9061  004D56  5027               	movf	(floorf@m+3)^(0+1280),w,c
  9062  004D58  222D               	addwfc	(floorf@u+3)^(0+1280),f,c
  9063  004D5A                     i2l1659:
  9064  004D5A  1C24               	comf	floorf@m^(0+1280),w,c
  9065  004D5C  6E1E               	movwf	??_floorf^(0+1280),c
  9066  004D5E  1C25               	comf	(floorf@m+1)^(0+1280),w,c
  9067  004D60  6E1F               	movwf	(??_floorf+1)^(0+1280),c
  9068  004D62  1C26               	comf	(floorf@m+2)^(0+1280),w,c
  9069  004D64  6E20               	movwf	(??_floorf+2)^(0+1280),c
  9070  004D66  1C27               	comf	(floorf@m+3)^(0+1280),w,c
  9071  004D68  6E21               	movwf	(??_floorf+3)^(0+1280),c
  9072  004D6A  501E               	movf	??_floorf^(0+1280),w,c
  9073  004D6C  162A               	andwf	floorf@u^(0+1280),f,c
  9074  004D6E  501F               	movf	(??_floorf+1)^(0+1280),w,c
  9075  004D70  162B               	andwf	(floorf@u+1)^(0+1280),f,c
  9076  004D72  5020               	movf	(??_floorf+2)^(0+1280),w,c
  9077  004D74  162C               	andwf	(floorf@u+2)^(0+1280),f,c
  9078  004D76  5021               	movf	(??_floorf+3)^(0+1280),w,c
  9079  004D78  162D               	andwf	(floorf@u+3)^(0+1280),f,c
  9080  004D7A  EF03  F027         	goto	i2l4607
  9081  004D7E                     i2l4599:
  9082  004D7E  C52A  F51E         	movff	floorf@u,??_floorf
  9083  004D82  C52B  F51F         	movff	floorf@u+1,??_floorf+1
  9084  004D86  C52C  F520         	movff	floorf@u+2,??_floorf+2
  9085  004D8A  C52D  F521         	movff	floorf@u+3,??_floorf+3
  9086  004D8E  0E20               	movlw	32
  9087  004D90  EFCF  F026         	goto	i2u476_40
  9088  004D94                     i2u476_45:
  9089  004D94  90D8               	bcf	status,0,c
  9090  004D96  3221               	rrcf	(??_floorf+3)^(0+1280),f,c
  9091  004D98  3220               	rrcf	(??_floorf+2)^(0+1280),f,c
  9092  004D9A  321F               	rrcf	(??_floorf+1)^(0+1280),f,c
  9093  004D9C  321E               	rrcf	??_floorf^(0+1280),f,c
  9094  004D9E                     i2u476_40:
  9095  004D9E  2EE8               	decfsz	wreg,f,c
  9096  004DA0  EFCA  F026         	goto	i2u476_45
  9097  004DA4  501E               	movf	??_floorf^(0+1280),w,c
  9098  004DA6  101F               	iorwf	(??_floorf+1)^(0+1280),w,c
  9099  004DA8  1020               	iorwf	(??_floorf+2)^(0+1280),w,c
  9100  004DAA  1021               	iorwf	(??_floorf+3)^(0+1280),w,c
  9101  004DAC  A4D8               	btfss	status,2,c
  9102  004DAE  EFDB  F026         	goto	i2u477_41
  9103  004DB2  EFDD  F026         	goto	i2u477_40
  9104  004DB6                     i2u477_41:
  9105  004DB6  EFE7  F026         	goto	i2l4603
  9106  004DBA                     i2u477_40:
  9107  004DBA  0E00               	movlw	0
  9108  004DBC  6E2A               	movwf	floorf@u^(0+1280),c
  9109  004DBE  0E00               	movlw	0
  9110  004DC0  6E2B               	movwf	(floorf@u+1)^(0+1280),c
  9111  004DC2  0E00               	movlw	0
  9112  004DC4  6E2C               	movwf	(floorf@u+2)^(0+1280),c
  9113  004DC6  0E00               	movlw	0
  9114  004DC8  6E2D               	movwf	(floorf@u+3)^(0+1280),c
  9115  004DCA  EF03  F027         	goto	i2l4607
  9116  004DCE                     i2l4603:
  9117  004DCE  90D8               	bcf	status,0,c
  9118  004DD0  342A               	rlcf	floorf@u^(0+1280),w,c
  9119  004DD2  6E1E               	movwf	??_floorf^(0+1280),c
  9120  004DD4  342B               	rlcf	(floorf@u+1)^(0+1280),w,c
  9121  004DD6  6E1F               	movwf	(??_floorf+1)^(0+1280),c
  9122  004DD8  342C               	rlcf	(floorf@u+2)^(0+1280),w,c
  9123  004DDA  6E20               	movwf	(??_floorf+2)^(0+1280),c
  9124  004DDC  342D               	rlcf	(floorf@u+3)^(0+1280),w,c
  9125  004DDE  6E21               	movwf	(??_floorf+3)^(0+1280),c
  9126  004DE0  501E               	movf	??_floorf^(0+1280),w,c
  9127  004DE2  101F               	iorwf	(??_floorf+1)^(0+1280),w,c
  9128  004DE4  1020               	iorwf	(??_floorf+2)^(0+1280),w,c
  9129  004DE6  1021               	iorwf	(??_floorf+3)^(0+1280),w,c
  9130  004DE8  B4D8               	btfsc	status,2,c
  9131  004DEA  EFF9  F026         	goto	i2u478_41
  9132  004DEE  EFFB  F026         	goto	i2u478_40
  9133  004DF2                     i2u478_41:
  9134  004DF2  EF03  F027         	goto	i2l4607
  9135  004DF6                     i2u478_40:
  9136  004DF6  0E00               	movlw	0
  9137  004DF8  6E2A               	movwf	floorf@u^(0+1280),c
  9138  004DFA  0E00               	movlw	0
  9139  004DFC  6E2B               	movwf	(floorf@u+1)^(0+1280),c
  9140  004DFE  0E80               	movlw	128
  9141  004E00  6E2C               	movwf	(floorf@u+2)^(0+1280),c
  9142  004E02  0EBF               	movlw	191
  9143  004E04  6E2D               	movwf	(floorf@u+3)^(0+1280),c
  9144  004E06                     i2l4607:
  9145  004E06  C52A  F51A         	movff	floorf@u,?_floorf
  9146  004E0A  C52B  F51B         	movff	floorf@u+1,?_floorf+1
  9147  004E0E  C52C  F51C         	movff	floorf@u+2,?_floorf+2
  9148  004E12  C52D  F51D         	movff	floorf@u+3,?_floorf+3
  9149  004E16                     i2l1656:
  9150  004E16  0012               	return		;funcret
  9151  004E18                     __end_of_floorf:
  9152                           	callstack 0
  9153                           
  9154 ;; *************** function ___fpclassifyf *****************
  9155 ;; Defined at:
  9156 ;;		line 4 in file "C:\Program Files\Microchip\xc8\v2.32\pic\sources\c99\common\__fpclassifyf.c"
  9157 ;; Parameters:    Size  Location     Type
  9158 ;;  x               4    0[COMRAM] float 
  9159 ;; Auto vars:     Size  Location     Type
  9160 ;;  u               4   10[COMRAM] struct .
  9161 ;;  e               2    8[COMRAM] int 
  9162 ;; Return value:  Size  Location     Type
  9163 ;;                  2    0[COMRAM] int 
  9164 ;; Registers used:
  9165 ;;		wreg, status,2, status,0
  9166 ;; Tracked objects:
  9167 ;;		On entry : 0/0
  9168 ;;		On exit  : 0/0
  9169 ;;		Unchanged: 0/0
  9170 ;; Data sizes:     COMRAM   BANK5   BANK6   BANK7   BANK8   BANK9  BANK10  BANK11  BANK12  BANK13  BANK14  BANK15  BANK1
      +6  BANK17  BANK18  BANK19  BANK20  BANK21  BANK22  BANK23  BANK24  BANK25  BANK26  BANK27  BANK28  BANK29  BANK30  BANK3
      +1  BANK32  BANK33  BANK34  BANK35  BANK36  BANK37
  9171 ;;      Params:         4       0       0       0       0       0       0       0       0       0       0       0       
      +0       0       0       0       0       0       0       0       0       0       0       0       0       0       0       
      +0       0       0       0       0       0       0
  9172 ;;      Locals:         6       0       0       0       0       0       0       0       0       0       0       0       
      +0       0       0       0       0       0       0       0       0       0       0       0       0       0       0       
      +0       0       0       0       0       0       0
  9173 ;;      Temps:          4       0       0       0       0       0       0       0       0       0       0       0       
      +0       0       0       0       0       0       0       0       0       0       0       0       0       0       0       
      +0       0       0       0       0       0       0
  9174 ;;      Totals:        14       0       0       0       0       0       0       0       0       0       0       0       
      +0       0       0       0       0       0       0       0       0       0       0       0       0       0       0       
      +0       0       0       0       0       0       0
  9175 ;;Total ram usage:       14 bytes
  9176 ;; Hardware stack levels used: 1
  9177 ;; This function calls:
  9178 ;;		Nothing
  9179 ;; This function is called by:
  9180 ;;		_efgtoa
  9181 ;; This function uses a non-reentrant model
  9182 ;;
  9183                           
  9184                           	psect	text49
  9185  00571C                     __ptext49:
  9186                           	callstack 0
  9187  00571C                     ___fpclassifyf:
  9188                           	callstack 117
  9189  00571C  C5D0  F50B         	movff	___fpclassifyf@F465,___fpclassifyf@u
  9190  005720  C5D1  F50C         	movff	___fpclassifyf@F465+1,___fpclassifyf@u+1
  9191  005724  C5D2  F50D         	movff	___fpclassifyf@F465+2,___fpclassifyf@u+2
  9192  005728  C5D3  F50E         	movff	___fpclassifyf@F465+3,___fpclassifyf@u+3
  9193  00572C  C501  F50B         	movff	___fpclassifyf@x,___fpclassifyf@u
  9194  005730  C502  F50C         	movff	___fpclassifyf@x+1,___fpclassifyf@u+1
  9195  005734  C503  F50D         	movff	___fpclassifyf@x+2,___fpclassifyf@u+2
  9196  005738  C504  F50E         	movff	___fpclassifyf@x+3,___fpclassifyf@u+3
  9197  00573C  C50B  F505         	movff	___fpclassifyf@u,??___fpclassifyf
  9198  005740  C50C  F506         	movff	___fpclassifyf@u+1,??___fpclassifyf+1
  9199  005744  C50D  F507         	movff	___fpclassifyf@u+2,??___fpclassifyf+2
  9200  005748  C50E  F508         	movff	___fpclassifyf@u+3,??___fpclassifyf+3
  9201  00574C  0E18               	movlw	24
  9202  00574E  EFAE  F02B         	goto	i2u457_40
  9203  005752                     i2u457_45:
  9204  005752  90D8               	bcf	status,0,c
  9205  005754  3208               	rrcf	(??___fpclassifyf+3)^(0+1280),f,c
  9206  005756  3207               	rrcf	(??___fpclassifyf+2)^(0+1280),f,c
  9207  005758  3206               	rrcf	(??___fpclassifyf+1)^(0+1280),f,c
  9208  00575A  3205               	rrcf	??___fpclassifyf^(0+1280),f,c
  9209  00575C                     i2u457_40:
  9210  00575C  2EE8               	decfsz	wreg,f,c
  9211  00575E  EFA9  F02B         	goto	i2u457_45
  9212  005762  5005               	movf	??___fpclassifyf^(0+1280),w,c
  9213  005764  6E09               	movwf	___fpclassifyf@e^(0+1280),c
  9214  005766  6A0A               	clrf	(___fpclassifyf@e+1)^(0+1280),c
  9215  005768  5009               	movf	___fpclassifyf@e^(0+1280),w,c
  9216  00576A  100A               	iorwf	(___fpclassifyf@e+1)^(0+1280),w,c
  9217  00576C  A4D8               	btfss	status,2,c
  9218  00576E  EFBB  F02B         	goto	i2u458_41
  9219  005772  EFBD  F02B         	goto	i2u458_40
  9220  005776                     i2u458_41:
  9221  005776  EFDD  F02B         	goto	i2l4559
  9222  00577A                     i2u458_40:
  9223  00577A  90D8               	bcf	status,0,c
  9224  00577C  340B               	rlcf	___fpclassifyf@u^(0+1280),w,c
  9225  00577E  6E05               	movwf	??___fpclassifyf^(0+1280),c
  9226  005780  340C               	rlcf	(___fpclassifyf@u+1)^(0+1280),w,c
  9227  005782  6E06               	movwf	(??___fpclassifyf+1)^(0+1280),c
  9228  005784  340D               	rlcf	(___fpclassifyf@u+2)^(0+1280),w,c
  9229  005786  6E07               	movwf	(??___fpclassifyf+2)^(0+1280),c
  9230  005788  340E               	rlcf	(___fpclassifyf@u+3)^(0+1280),w,c
  9231  00578A  6E08               	movwf	(??___fpclassifyf+3)^(0+1280),c
  9232  00578C  5005               	movf	??___fpclassifyf^(0+1280),w,c
  9233  00578E  1006               	iorwf	(??___fpclassifyf+1)^(0+1280),w,c
  9234  005790  1007               	iorwf	(??___fpclassifyf+2)^(0+1280),w,c
  9235  005792  1008               	iorwf	(??___fpclassifyf+3)^(0+1280),w,c
  9236  005794  A4D8               	btfss	status,2,c
  9237  005796  EFCF  F02B         	goto	i2u459_41
  9238  00579A  EFD1  F02B         	goto	i2u459_40
  9239  00579E                     i2u459_41:
  9240  00579E  EFD7  F02B         	goto	i2l4555
  9241  0057A2                     i2u459_40:
  9242  0057A2  0E00               	movlw	0
  9243  0057A4  6E02               	movwf	(?___fpclassifyf+1)^(0+1280),c
  9244  0057A6  0E02               	movlw	2
  9245  0057A8  6E01               	movwf	?___fpclassifyf^(0+1280),c
  9246  0057AA  EF0C  F02C         	goto	i2l1618
  9247  0057AE                     i2l4555:
  9248  0057AE  0E00               	movlw	0
  9249  0057B0  6E02               	movwf	(?___fpclassifyf+1)^(0+1280),c
  9250  0057B2  0E03               	movlw	3
  9251  0057B4  6E01               	movwf	?___fpclassifyf^(0+1280),c
  9252  0057B6  EF0C  F02C         	goto	i2l1618
  9253  0057BA                     i2l4559:
  9254  0057BA  2809               	incf	___fpclassifyf@e^(0+1280),w,c
  9255  0057BC  100A               	iorwf	(___fpclassifyf@e+1)^(0+1280),w,c
  9256  0057BE  A4D8               	btfss	status,2,c
  9257  0057C0  EFE4  F02B         	goto	i2u460_41
  9258  0057C4  EFE6  F02B         	goto	i2u460_40
  9259  0057C8                     i2u460_41:
  9260  0057C8  EF08  F02C         	goto	i2l4565
  9261  0057CC                     i2u460_40:
  9262  0057CC  C50B  F505         	movff	___fpclassifyf@u,??___fpclassifyf
  9263  0057D0  C50C  F506         	movff	___fpclassifyf@u+1,??___fpclassifyf+1
  9264  0057D4  C50D  F507         	movff	___fpclassifyf@u+2,??___fpclassifyf+2
  9265  0057D8  C50E  F508         	movff	___fpclassifyf@u+3,??___fpclassifyf+3
  9266  0057DC  0E09               	movlw	9
  9267  0057DE                     i2u461_45:
  9268  0057DE  90D8               	bcf	status,0,c
  9269  0057E0  3605               	rlcf	??___fpclassifyf^(0+1280),f,c
  9270  0057E2  3606               	rlcf	(??___fpclassifyf+1)^(0+1280),f,c
  9271  0057E4  3607               	rlcf	(??___fpclassifyf+2)^(0+1280),f,c
  9272  0057E6  3608               	rlcf	(??___fpclassifyf+3)^(0+1280),f,c
  9273  0057E8  2EE8               	decfsz	wreg,f,c
  9274  0057EA  EFEF  F02B         	goto	i2u461_45
  9275  0057EE  5005               	movf	??___fpclassifyf^(0+1280),w,c
  9276  0057F0  1006               	iorwf	(??___fpclassifyf+1)^(0+1280),w,c
  9277  0057F2  1007               	iorwf	(??___fpclassifyf+2)^(0+1280),w,c
  9278  0057F4  1008               	iorwf	(??___fpclassifyf+3)^(0+1280),w,c
  9279  0057F6  B4D8               	btfsc	status,2,c
  9280  0057F8  EF00  F02C         	goto	i2u462_41
  9281  0057FC  EF03  F02C         	goto	i2u462_40
  9282  005800                     i2u462_41:
  9283  005800  0E01               	movlw	1
  9284  005802  EF04  F02C         	goto	i2u463_40
  9285  005806                     i2u462_40:
  9286  005806  0E00               	movlw	0
  9287  005808                     i2u463_40:
  9288  005808  6E01               	movwf	?___fpclassifyf^(0+1280),c
  9289  00580A  6A02               	clrf	(?___fpclassifyf+1)^(0+1280),c
  9290  00580C  EF0C  F02C         	goto	i2l1618
  9291  005810                     i2l4565:
  9292  005810  0E00               	movlw	0
  9293  005812  6E02               	movwf	(?___fpclassifyf+1)^(0+1280),c
  9294  005814  0E04               	movlw	4
  9295  005816  6E01               	movwf	?___fpclassifyf^(0+1280),c
  9296  005818                     i2l1618:
  9297  005818  0012               	return		;funcret
  9298  00581A                     __end_of___fpclassifyf:
  9299                           	callstack 0
  9300                           
  9301 ;; *************** function ___fltol *****************
  9302 ;; Defined at:
  9303 ;;		line 43 in file "C:\Program Files\Microchip\xc8\v2.32\pic\sources\c99\common\fltol.c"
  9304 ;; Parameters:    Size  Location     Type
  9305 ;;  f1              4    0[COMRAM] int 
  9306 ;; Auto vars:     Size  Location     Type
  9307 ;;  exp1            1    9[COMRAM] unsigned char 
  9308 ;;  sign1           1    8[COMRAM] unsigned char 
  9309 ;; Return value:  Size  Location     Type
  9310 ;;                  4    0[COMRAM] long 
  9311 ;; Registers used:
  9312 ;;		wreg, status,2, status,0
  9313 ;; Tracked objects:
  9314 ;;		On entry : 0/0
  9315 ;;		On exit  : 0/0
  9316 ;;		Unchanged: 0/0
  9317 ;; Data sizes:     COMRAM   BANK5   BANK6   BANK7   BANK8   BANK9  BANK10  BANK11  BANK12  BANK13  BANK14  BANK15  BANK1
      +6  BANK17  BANK18  BANK19  BANK20  BANK21  BANK22  BANK23  BANK24  BANK25  BANK26  BANK27  BANK28  BANK29  BANK30  BANK3
      +1  BANK32  BANK33  BANK34  BANK35  BANK36  BANK37
  9318 ;;      Params:         4       0       0       0       0       0       0       0       0       0       0       0       
      +0       0       0       0       0       0       0       0       0       0       0       0       0       0       0       
      +0       0       0       0       0       0       0
  9319 ;;      Locals:         2       0       0       0       0       0       0       0       0       0       0       0       
      +0       0       0       0       0       0       0       0       0       0       0       0       0       0       0       
      +0       0       0       0       0       0       0
  9320 ;;      Temps:          4       0       0       0       0       0       0       0       0       0       0       0       
      +0       0       0       0       0       0       0       0       0       0       0       0       0       0       0       
      +0       0       0       0       0       0       0
  9321 ;;      Totals:        10       0       0       0       0       0       0       0       0       0       0       0       
      +0       0       0       0       0       0       0       0       0       0       0       0       0       0       0       
      +0       0       0       0       0       0       0
  9322 ;;Total ram usage:       10 bytes
  9323 ;; Hardware stack levels used: 1
  9324 ;; This function calls:
  9325 ;;		Nothing
  9326 ;; This function is called by:
  9327 ;;		_efgtoa
  9328 ;; This function uses a non-reentrant model
  9329 ;;
  9330                           
  9331                           	psect	text50
  9332  005512                     __ptext50:
  9333                           	callstack 0
  9334  005512                     ___fltol:
  9335                           	callstack 117
  9336  005512  3403               	rlcf	(___fltol@f1+2)^(0+1280),w,c
  9337  005514  3404               	rlcf	(___fltol@f1+3)^(0+1280),w,c
  9338  005516  6E0A               	movwf	___fltol@exp1^(0+1280),c
  9339  005518  500A               	movf	___fltol@exp1^(0+1280),w,c
  9340  00551A  A4D8               	btfss	status,2,c
  9341  00551C  EF92  F02A         	goto	i2u439_41
  9342  005520  EF94  F02A         	goto	i2u439_40
  9343  005524                     i2u439_41:
  9344  005524  EF9E  F02A         	goto	i2l4449
  9345  005528                     i2u439_40:
  9346  005528                     i2l4445:
  9347  005528  0E00               	movlw	0
  9348  00552A  6E01               	movwf	?___fltol^(0+1280),c
  9349  00552C  0E00               	movlw	0
  9350  00552E  6E02               	movwf	(?___fltol+1)^(0+1280),c
  9351  005530  0E00               	movlw	0
  9352  005532  6E03               	movwf	(?___fltol+2)^(0+1280),c
  9353  005534  0E00               	movlw	0
  9354  005536  6E04               	movwf	(?___fltol+3)^(0+1280),c
  9355  005538  EF0B  F02B         	goto	i2l958
  9356  00553C                     i2l4449:
  9357  00553C  C501  F505         	movff	___fltol@f1,??___fltol
  9358  005540  C502  F506         	movff	___fltol@f1+1,??___fltol+1
  9359  005544  C503  F507         	movff	___fltol@f1+2,??___fltol+2
  9360  005548  C504  F508         	movff	___fltol@f1+3,??___fltol+3
  9361  00554C  0E20               	movlw	32
  9362  00554E  EFAE  F02A         	goto	i2u440_40
  9363  005552                     i2u440_45:
  9364  005552  90D8               	bcf	status,0,c
  9365  005554  3208               	rrcf	(??___fltol+3)^(0+1280),f,c
  9366  005556  3207               	rrcf	(??___fltol+2)^(0+1280),f,c
  9367  005558  3206               	rrcf	(??___fltol+1)^(0+1280),f,c
  9368  00555A  3205               	rrcf	??___fltol^(0+1280),f,c
  9369  00555C                     i2u440_40:
  9370  00555C  2EE8               	decfsz	wreg,f,c
  9371  00555E  EFA9  F02A         	goto	i2u440_45
  9372  005562  5005               	movf	??___fltol^(0+1280),w,c
  9373  005564  6E09               	movwf	___fltol@sign1^(0+1280),c
  9374  005566  8E03               	bsf	(___fltol@f1+2)^(0+1280),7,c
  9375  005568  0EFF               	movlw	255
  9376  00556A  1601               	andwf	___fltol@f1^(0+1280),f,c
  9377  00556C  0EFF               	movlw	255
  9378  00556E  1602               	andwf	(___fltol@f1+1)^(0+1280),f,c
  9379  005570  0EFF               	movlw	255
  9380  005572  1603               	andwf	(___fltol@f1+2)^(0+1280),f,c
  9381  005574  0E00               	movlw	0
  9382  005576  1604               	andwf	(___fltol@f1+3)^(0+1280),f,c
  9383  005578  0E96               	movlw	150
  9384  00557A  5E0A               	subwf	___fltol@exp1^(0+1280),f,c
  9385  00557C  BE0A               	btfsc	___fltol@exp1^(0+1280),7,c
  9386  00557E  EFC5  F02A         	goto	i2u441_40
  9387  005582  EFC3  F02A         	goto	i2u441_41
  9388  005586                     i2u441_41:
  9389  005586  EFDB  F02A         	goto	i2l4469
  9390  00558A                     i2u441_40:
  9391  00558A  500A               	movf	___fltol@exp1^(0+1280),w,c
  9392  00558C  0A80               	xorlw	128
  9393  00558E  0F97               	addlw	151
  9394  005590  B0D8               	btfsc	status,0,c
  9395  005592  EFCD  F02A         	goto	i2u442_41
  9396  005596  EFCF  F02A         	goto	i2u442_40
  9397  00559A                     i2u442_41:
  9398  00559A  EFD1  F02A         	goto	i2l4465
  9399  00559E                     i2u442_40:
  9400  00559E  EF94  F02A         	goto	i2l4445
  9401  0055A2                     i2l4465:
  9402  0055A2  90D8               	bcf	status,0,c
  9403  0055A4  3204               	rrcf	(___fltol@f1+3)^(0+1280),f,c
  9404  0055A6  3203               	rrcf	(___fltol@f1+2)^(0+1280),f,c
  9405  0055A8  3202               	rrcf	(___fltol@f1+1)^(0+1280),f,c
  9406  0055AA  3201               	rrcf	___fltol@f1^(0+1280),f,c
  9407  0055AC  3E0A               	incfsz	___fltol@exp1^(0+1280),f,c
  9408  0055AE  EFD1  F02A         	goto	i2l4465
  9409  0055B2  EFF3  F02A         	goto	i2l4479
  9410  0055B6                     i2l4469:
  9411  0055B6  0E1F               	movlw	31
  9412  0055B8  640A               	cpfsgt	___fltol@exp1^(0+1280),c
  9413  0055BA  EFE1  F02A         	goto	i2u443_41
  9414  0055BE  EFE3  F02A         	goto	i2u443_40
  9415  0055C2                     i2u443_41:
  9416  0055C2  EFEB  F02A         	goto	i2l4477
  9417  0055C6                     i2u443_40:
  9418  0055C6  EF94  F02A         	goto	i2l4445
  9419  0055CA                     i2l4475:
  9420  0055CA  90D8               	bcf	status,0,c
  9421  0055CC  3601               	rlcf	___fltol@f1^(0+1280),f,c
  9422  0055CE  3602               	rlcf	(___fltol@f1+1)^(0+1280),f,c
  9423  0055D0  3603               	rlcf	(___fltol@f1+2)^(0+1280),f,c
  9424  0055D2  3604               	rlcf	(___fltol@f1+3)^(0+1280),f,c
  9425  0055D4  060A               	decf	___fltol@exp1^(0+1280),f,c
  9426  0055D6                     i2l4477:
  9427  0055D6  500A               	movf	___fltol@exp1^(0+1280),w,c
  9428  0055D8  A4D8               	btfss	status,2,c
  9429  0055DA  EFF1  F02A         	goto	i2u444_41
  9430  0055DE  EFF3  F02A         	goto	i2u444_40
  9431  0055E2                     i2u444_41:
  9432  0055E2  EFE5  F02A         	goto	i2l4475
  9433  0055E6                     i2u444_40:
  9434  0055E6                     i2l4479:
  9435  0055E6  5009               	movf	___fltol@sign1^(0+1280),w,c
  9436  0055E8  B4D8               	btfsc	status,2,c
  9437  0055EA  EFF9  F02A         	goto	i2u445_41
  9438  0055EE  EFFB  F02A         	goto	i2u445_40
  9439  0055F2                     i2u445_41:
  9440  0055F2  EF03  F02B         	goto	i2l4483
  9441  0055F6                     i2u445_40:
  9442  0055F6  1E04               	comf	(___fltol@f1+3)^(0+1280),f,c
  9443  0055F8  1E03               	comf	(___fltol@f1+2)^(0+1280),f,c
  9444  0055FA  1E02               	comf	(___fltol@f1+1)^(0+1280),f,c
  9445  0055FC  6C01               	negf	___fltol@f1^(0+1280),c
  9446  0055FE  0E00               	movlw	0
  9447  005600  2202               	addwfc	(___fltol@f1+1)^(0+1280),f,c
  9448  005602  2203               	addwfc	(___fltol@f1+2)^(0+1280),f,c
  9449  005604  2204               	addwfc	(___fltol@f1+3)^(0+1280),f,c
  9450  005606                     i2l4483:
  9451  005606  C501  F501         	movff	___fltol@f1,?___fltol
  9452  00560A  C502  F502         	movff	___fltol@f1+1,?___fltol+1
  9453  00560E  C503  F503         	movff	___fltol@f1+2,?___fltol+2
  9454  005612  C504  F504         	movff	___fltol@f1+3,?___fltol+3
  9455  005616                     i2l958:
  9456  005616  0012               	return		;funcret
  9457  005618                     __end_of___fltol:
  9458                           	callstack 0
  9459                           
  9460 ;; *************** function ___flsub *****************
  9461 ;; Defined at:
  9462 ;;		line 245 in file "C:\Program Files\Microchip\xc8\v2.32\pic\sources\c99\common\sprcadd.c"
  9463 ;; Parameters:    Size  Location     Type
  9464 ;;  b               4   55[COMRAM] long 
  9465 ;;  a               4   59[COMRAM] long 
  9466 ;; Auto vars:     Size  Location     Type
  9467 ;;		None
  9468 ;; Return value:  Size  Location     Type
  9469 ;;                  4   55[COMRAM] long 
  9470 ;; Registers used:
  9471 ;;		wreg, status,2, status,0, cstack
  9472 ;; Tracked objects:
  9473 ;;		On entry : 0/0
  9474 ;;		On exit  : 0/0
  9475 ;;		Unchanged: 0/0
  9476 ;; Data sizes:     COMRAM   BANK5   BANK6   BANK7   BANK8   BANK9  BANK10  BANK11  BANK12  BANK13  BANK14  BANK15  BANK1
      +6  BANK17  BANK18  BANK19  BANK20  BANK21  BANK22  BANK23  BANK24  BANK25  BANK26  BANK27  BANK28  BANK29  BANK30  BANK3
      +1  BANK32  BANK33  BANK34  BANK35  BANK36  BANK37
  9477 ;;      Params:         8       0       0       0       0       0       0       0       0       0       0       0       
      +0       0       0       0       0       0       0       0       0       0       0       0       0       0       0       
      +0       0       0       0       0       0       0
  9478 ;;      Locals:         0       0       0       0       0       0       0       0       0       0       0       0       
      +0       0       0       0       0       0       0       0       0       0       0       0       0       0       0       
      +0       0       0       0       0       0       0
  9479 ;;      Temps:          0       0       0       0       0       0       0       0       0       0       0       0       
      +0       0       0       0       0       0       0       0       0       0       0       0       0       0       0       
      +0       0       0       0       0       0       0
  9480 ;;      Totals:         8       0       0       0       0       0       0       0       0       0       0       0       
      +0       0       0       0       0       0       0       0       0       0       0       0       0       0       0       
      +0       0       0       0       0       0       0
  9481 ;;Total ram usage:        8 bytes
  9482 ;; Hardware stack levels used: 1
  9483 ;; Hardware stack levels required when called: 1
  9484 ;; This function calls:
  9485 ;;		___fladd
  9486 ;; This function is called by:
  9487 ;;		_efgtoa
  9488 ;; This function uses a non-reentrant model
  9489 ;;
  9490                           
  9491                           	psect	text51
  9492  006552                     __ptext51:
  9493                           	callstack 0
  9494  006552                     ___flsub:
  9495                           	callstack 116
  9496  006552  0E00               	movlw	0
  9497  006554  1A3C               	xorwf	___flsub@a^(0+1280),f,c
  9498  006556  0E00               	movlw	0
  9499  006558  1A3D               	xorwf	(___flsub@a+1)^(0+1280),f,c
  9500  00655A  0E00               	movlw	0
  9501  00655C  1A3E               	xorwf	(___flsub@a+2)^(0+1280),f,c
  9502  00655E  0E80               	movlw	128
  9503  006560  1A3F               	xorwf	(___flsub@a+3)^(0+1280),f,c
  9504  006562  C538  F528         	movff	___flsub@b,___fladd@b
  9505  006566  C539  F529         	movff	___flsub@b+1,___fladd@b+1
  9506  00656A  C53A  F52A         	movff	___flsub@b+2,___fladd@b+2
  9507  00656E  C53B  F52B         	movff	___flsub@b+3,___fladd@b+3
  9508  006572  C53C  F52C         	movff	___flsub@a,___fladd@a
  9509  006576  C53D  F52D         	movff	___flsub@a+1,___fladd@a+1
  9510  00657A  C53E  F52E         	movff	___flsub@a+2,___fladd@a+2
  9511  00657E  C53F  F52F         	movff	___flsub@a+3,___fladd@a+3
  9512  006582  EC40  F01E         	call	___fladd	;wreg free
  9513  006586  C528  F538         	movff	?___fladd,?___flsub
  9514  00658A  C529  F539         	movff	?___fladd+1,?___flsub+1
  9515  00658E  C52A  F53A         	movff	?___fladd+2,?___flsub+2
  9516  006592  C52B  F53B         	movff	?___fladd+3,?___flsub+3
  9517  006596  0012               	return		;funcret
  9518  006598                     __end_of___flsub:
  9519                           	callstack 0
  9520                           
  9521 ;; *************** function ___fladd *****************
  9522 ;; Defined at:
  9523 ;;		line 10 in file "C:\Program Files\Microchip\xc8\v2.32\pic\sources\c99\common\sprcadd.c"
  9524 ;; Parameters:    Size  Location     Type
  9525 ;;  b               4   39[COMRAM] long 
  9526 ;;  a               4   43[COMRAM] long 
  9527 ;; Auto vars:     Size  Location     Type
  9528 ;;  grs             1   54[COMRAM] unsigned char 
  9529 ;;  bexp            1   53[COMRAM] unsigned char 
  9530 ;;  aexp            1   52[COMRAM] unsigned char 
  9531 ;;  signs           1   51[COMRAM] unsigned char 
  9532 ;; Return value:  Size  Location     Type
  9533 ;;                  4   39[COMRAM] unsigned char 
  9534 ;; Registers used:
  9535 ;;		wreg, status,2, status,0
  9536 ;; Tracked objects:
  9537 ;;		On entry : 0/0
  9538 ;;		On exit  : 0/0
  9539 ;;		Unchanged: 0/0
  9540 ;; Data sizes:     COMRAM   BANK5   BANK6   BANK7   BANK8   BANK9  BANK10  BANK11  BANK12  BANK13  BANK14  BANK15  BANK1
      +6  BANK17  BANK18  BANK19  BANK20  BANK21  BANK22  BANK23  BANK24  BANK25  BANK26  BANK27  BANK28  BANK29  BANK30  BANK3
      +1  BANK32  BANK33  BANK34  BANK35  BANK36  BANK37
  9541 ;;      Params:         8       0       0       0       0       0       0       0       0       0       0       0       
      +0       0       0       0       0       0       0       0       0       0       0       0       0       0       0       
      +0       0       0       0       0       0       0
  9542 ;;      Locals:         4       0       0       0       0       0       0       0       0       0       0       0       
      +0       0       0       0       0       0       0       0       0       0       0       0       0       0       0       
      +0       0       0       0       0       0       0
  9543 ;;      Temps:          4       0       0       0       0       0       0       0       0       0       0       0       
      +0       0       0       0       0       0       0       0       0       0       0       0       0       0       0       
      +0       0       0       0       0       0       0
  9544 ;;      Totals:        16       0       0       0       0       0       0       0       0       0       0       0       
      +0       0       0       0       0       0       0       0       0       0       0       0       0       0       0       
      +0       0       0       0       0       0       0
  9545 ;;Total ram usage:       16 bytes
  9546 ;; Hardware stack levels used: 1
  9547 ;; This function calls:
  9548 ;;		Nothing
  9549 ;; This function is called by:
  9550 ;;		_sensor_interrupt
  9551 ;;		___flsub
  9552 ;;		_efgtoa
  9553 ;; This function uses a non-reentrant model
  9554 ;;
  9555                           
  9556                           	psect	text52
  9557  003C80                     __ptext52:
  9558                           	callstack 0
  9559  003C80                     ___fladd:
  9560                           	callstack 116
  9561  003C80  502B               	movf	(___fladd@b+3)^(0+1280),w,c
  9562  003C82  0B80               	andlw	128
  9563  003C84  6E34               	movwf	___fladd@signs^(0+1280),c
  9564  003C86  502B               	movf	(___fladd@b+3)^(0+1280),w,c
  9565  003C88  242B               	addwf	(___fladd@b+3)^(0+1280),w,c
  9566  003C8A  6E36               	movwf	___fladd@bexp^(0+1280),c
  9567  003C8C  AE2A               	btfss	(___fladd@b+2)^(0+1280),7,c
  9568  003C8E  EF4B  F01E         	goto	i2u331_41
  9569  003C92  EF4D  F01E         	goto	i2u331_40
  9570  003C96                     i2u331_41:
  9571  003C96  EF4E  F01E         	goto	i2l3815
  9572  003C9A                     i2u331_40:
  9573  003C9A  8036               	bsf	___fladd@bexp^(0+1280),0,c
  9574  003C9C                     i2l3815:
  9575  003C9C  5036               	movf	___fladd@bexp^(0+1280),w,c
  9576  003C9E  B4D8               	btfsc	status,2,c
  9577  003CA0  EF54  F01E         	goto	i2u332_41
  9578  003CA4  EF56  F01E         	goto	i2u332_40
  9579  003CA8                     i2u332_41:
  9580  003CA8  EF6B  F01E         	goto	i2l3825
  9581  003CAC                     i2u332_40:
  9582  003CAC  2836               	incf	___fladd@bexp^(0+1280),w,c
  9583  003CAE  A4D8               	btfss	status,2,c
  9584  003CB0  EF5C  F01E         	goto	i2u333_41
  9585  003CB4  EF5E  F01E         	goto	i2u333_40
  9586  003CB8                     i2u333_41:
  9587  003CB8  EF66  F01E         	goto	i2l3821
  9588  003CBC                     i2u333_40:
  9589  003CBC  0E00               	movlw	0
  9590  003CBE  6E28               	movwf	___fladd@b^(0+1280),c
  9591  003CC0  0E00               	movlw	0
  9592  003CC2  6E29               	movwf	(___fladd@b+1)^(0+1280),c
  9593  003CC4  0E00               	movlw	0
  9594  003CC6  6E2A               	movwf	(___fladd@b+2)^(0+1280),c
  9595  003CC8  0E00               	movlw	0
  9596  003CCA  6E2B               	movwf	(___fladd@b+3)^(0+1280),c
  9597  003CCC                     i2l3821:
  9598  003CCC  8E2A               	bsf	(___fladd@b+2)^(0+1280),7,c
  9599  003CCE  0E00               	movlw	0
  9600  003CD0  6E2B               	movwf	(___fladd@b+3)^(0+1280),c
  9601  003CD2  EF73  F01E         	goto	i2l3827
  9602  003CD6                     i2l3825:
  9603  003CD6  0E00               	movlw	0
  9604  003CD8  6E28               	movwf	___fladd@b^(0+1280),c
  9605  003CDA  0E00               	movlw	0
  9606  003CDC  6E29               	movwf	(___fladd@b+1)^(0+1280),c
  9607  003CDE  0E00               	movlw	0
  9608  003CE0  6E2A               	movwf	(___fladd@b+2)^(0+1280),c
  9609  003CE2  0E00               	movlw	0
  9610  003CE4  6E2B               	movwf	(___fladd@b+3)^(0+1280),c
  9611  003CE6                     i2l3827:
  9612  003CE6  502F               	movf	(___fladd@a+3)^(0+1280),w,c
  9613  003CE8  0B80               	andlw	128
  9614  003CEA  6E35               	movwf	___fladd@aexp^(0+1280),c
  9615  003CEC  5034               	movf	___fladd@signs^(0+1280),w,c
  9616  003CEE  1835               	xorwf	___fladd@aexp^(0+1280),w,c
  9617  003CF0  B4D8               	btfsc	status,2,c
  9618  003CF2  EF7D  F01E         	goto	i2u334_41
  9619  003CF6  EF7F  F01E         	goto	i2u334_40
  9620  003CFA                     i2u334_41:
  9621  003CFA  EF80  F01E         	goto	i2l3833
  9622  003CFE                     i2u334_40:
  9623  003CFE  8C34               	bsf	___fladd@signs^(0+1280),6,c
  9624  003D00                     i2l3833:
  9625  003D00  502F               	movf	(___fladd@a+3)^(0+1280),w,c
  9626  003D02  242F               	addwf	(___fladd@a+3)^(0+1280),w,c
  9627  003D04  6E35               	movwf	___fladd@aexp^(0+1280),c
  9628  003D06  AE2E               	btfss	(___fladd@a+2)^(0+1280),7,c
  9629  003D08  EF88  F01E         	goto	i2u335_41
  9630  003D0C  EF8A  F01E         	goto	i2u335_40
  9631  003D10                     i2u335_41:
  9632  003D10  EF8B  F01E         	goto	i2l3839
  9633  003D14                     i2u335_40:
  9634  003D14  8035               	bsf	___fladd@aexp^(0+1280),0,c
  9635  003D16                     i2l3839:
  9636  003D16  5035               	movf	___fladd@aexp^(0+1280),w,c
  9637  003D18  B4D8               	btfsc	status,2,c
  9638  003D1A  EF91  F01E         	goto	i2u336_41
  9639  003D1E  EF93  F01E         	goto	i2u336_40
  9640  003D22                     i2u336_41:
  9641  003D22  EFA8  F01E         	goto	i2l3849
  9642  003D26                     i2u336_40:
  9643  003D26  2835               	incf	___fladd@aexp^(0+1280),w,c
  9644  003D28  A4D8               	btfss	status,2,c
  9645  003D2A  EF99  F01E         	goto	i2u337_41
  9646  003D2E  EF9B  F01E         	goto	i2u337_40
  9647  003D32                     i2u337_41:
  9648  003D32  EFA3  F01E         	goto	i2l3845
  9649  003D36                     i2u337_40:
  9650  003D36  0E00               	movlw	0
  9651  003D38  6E2C               	movwf	___fladd@a^(0+1280),c
  9652  003D3A  0E00               	movlw	0
  9653  003D3C  6E2D               	movwf	(___fladd@a+1)^(0+1280),c
  9654  003D3E  0E00               	movlw	0
  9655  003D40  6E2E               	movwf	(___fladd@a+2)^(0+1280),c
  9656  003D42  0E00               	movlw	0
  9657  003D44  6E2F               	movwf	(___fladd@a+3)^(0+1280),c
  9658  003D46                     i2l3845:
  9659  003D46  8E2E               	bsf	(___fladd@a+2)^(0+1280),7,c
  9660  003D48  0E00               	movlw	0
  9661  003D4A  6E2F               	movwf	(___fladd@a+3)^(0+1280),c
  9662  003D4C  EFB0  F01E         	goto	i2l3851
  9663  003D50                     i2l3849:
  9664  003D50  0E00               	movlw	0
  9665  003D52  6E2C               	movwf	___fladd@a^(0+1280),c
  9666  003D54  0E00               	movlw	0
  9667  003D56  6E2D               	movwf	(___fladd@a+1)^(0+1280),c
  9668  003D58  0E00               	movlw	0
  9669  003D5A  6E2E               	movwf	(___fladd@a+2)^(0+1280),c
  9670  003D5C  0E00               	movlw	0
  9671  003D5E  6E2F               	movwf	(___fladd@a+3)^(0+1280),c
  9672  003D60                     i2l3851:
  9673  003D60  5036               	movf	___fladd@bexp^(0+1280),w,c
  9674  003D62  5C35               	subwf	___fladd@aexp^(0+1280),w,c
  9675  003D64  B0D8               	btfsc	status,0,c
  9676  003D66  EFB7  F01E         	goto	i2u338_41
  9677  003D6A  EFB9  F01E         	goto	i2u338_40
  9678  003D6E                     i2u338_41:
  9679  003D6E  EFE0  F01E         	goto	i2l3887
  9680  003D72                     i2u338_40:
  9681  003D72  AC34               	btfss	___fladd@signs^(0+1280),6,c
  9682  003D74  EFBE  F01E         	goto	i2u339_41
  9683  003D78  EFC0  F01E         	goto	i2u339_40
  9684  003D7C                     i2u339_41:
  9685  003D7C  EFC2  F01E         	goto	i2l3857
  9686  003D80                     i2u339_40:
  9687  003D80  0E80               	movlw	128
  9688  003D82  1A34               	xorwf	___fladd@signs^(0+1280),f,c
  9689  003D84                     i2l3857:
  9690  003D84  C536  F537         	movff	___fladd@bexp,___fladd@grs
  9691  003D88  C535  F536         	movff	___fladd@aexp,___fladd@bexp
  9692  003D8C  C537  F535         	movff	___fladd@grs,___fladd@aexp
  9693  003D90  C528  F537         	movff	___fladd@b,___fladd@grs
  9694  003D94  C52C  F528         	movff	___fladd@a,___fladd@b
  9695  003D98  C537  F52C         	movff	___fladd@grs,___fladd@a
  9696  003D9C  C529  F537         	movff	___fladd@b+1,___fladd@grs
  9697  003DA0  C52D  F529         	movff	___fladd@a+1,___fladd@b+1
  9698  003DA4  C537  F52D         	movff	___fladd@grs,___fladd@a+1
  9699  003DA8  C52A  F537         	movff	___fladd@b+2,___fladd@grs
  9700  003DAC  C52E  F52A         	movff	___fladd@a+2,___fladd@b+2
  9701  003DB0  C537  F52E         	movff	___fladd@grs,___fladd@a+2
  9702  003DB4  C52B  F537         	movff	___fladd@b+3,___fladd@grs
  9703  003DB8  C52F  F52B         	movff	___fladd@a+3,___fladd@b+3
  9704  003DBC  C537  F52F         	movff	___fladd@grs,___fladd@a+3
  9705  003DC0                     i2l3887:
  9706  003DC0  0E00               	movlw	0
  9707  003DC2  6E37               	movwf	___fladd@grs^(0+1280),c
  9708  003DC4  5036               	movf	___fladd@bexp^(0+1280),w,c
  9709  003DC6  C535  F530         	movff	___fladd@aexp,??___fladd
  9710  003DCA  6A31               	clrf	(??___fladd+1)^(0+1280),c
  9711  003DCC  5E30               	subwf	??___fladd^(0+1280),f,c
  9712  003DCE  0E00               	movlw	0
  9713  003DD0  5A31               	subwfb	(??___fladd+1)^(0+1280),f,c
  9714  003DD2  BE31               	btfsc	(??___fladd+1)^(0+1280),7,c
  9715  003DD4  EFF5  F01E         	goto	i2u340_41
  9716  003DD8  5031               	movf	(??___fladd+1)^(0+1280),w,c
  9717  003DDA  E109               	bnz	i2u340_40
  9718  003DDC  0E1A               	movlw	26
  9719  003DDE  5C30               	subwf	??___fladd^(0+1280),w,c
  9720  003DE0  A0D8               	btfss	status,0,c
  9721  003DE2  EFF5  F01E         	goto	i2u340_41
  9722  003DE6  EFF7  F01E         	goto	i2u340_40
  9723  003DEA                     i2u340_41:
  9724  003DEA  EF2E  F01F         	goto	i2l1190
  9725  003DEE                     i2u340_40:
  9726  003DEE  5028               	movf	___fladd@b^(0+1280),w,c
  9727  003DF0  1029               	iorwf	(___fladd@b+1)^(0+1280),w,c
  9728  003DF2  102A               	iorwf	(___fladd@b+2)^(0+1280),w,c
  9729  003DF4  102B               	iorwf	(___fladd@b+3)^(0+1280),w,c
  9730  003DF6  A4D8               	btfss	status,2,c
  9731  003DF8  EF00  F01F         	goto	i2u341_41
  9732  003DFC  EF03  F01F         	goto	i2u341_40
  9733  003E00                     i2u341_41:
  9734  003E00  0E01               	movlw	1
  9735  003E02  EF04  F01F         	goto	i2u342_40
  9736  003E06                     i2u341_40:
  9737  003E06  0E00               	movlw	0
  9738  003E08                     i2u342_40:
  9739  003E08  6E37               	movwf	___fladd@grs^(0+1280),c
  9740  003E0A  0E00               	movlw	0
  9741  003E0C  6E28               	movwf	___fladd@b^(0+1280),c
  9742  003E0E  0E00               	movlw	0
  9743  003E10  6E29               	movwf	(___fladd@b+1)^(0+1280),c
  9744  003E12  0E00               	movlw	0
  9745  003E14  6E2A               	movwf	(___fladd@b+2)^(0+1280),c
  9746  003E16  0E00               	movlw	0
  9747  003E18  6E2B               	movwf	(___fladd@b+3)^(0+1280),c
  9748  003E1A  C535  F536         	movff	___fladd@aexp,___fladd@bexp
  9749  003E1E  EF37  F01F         	goto	i2l1189
  9750  003E22                     i2l1191:
  9751  003E22  A037               	btfss	___fladd@grs^(0+1280),0,c
  9752  003E24  EF16  F01F         	goto	i2u343_41
  9753  003E28  EF18  F01F         	goto	i2u343_40
  9754  003E2C                     i2u343_41:
  9755  003E2C  EF1E  F01F         	goto	i2l3899
  9756  003E30                     i2u343_40:
  9757  003E30  90D8               	bcf	status,0,c
  9758  003E32  3037               	rrcf	___fladd@grs^(0+1280),w,c
  9759  003E34  0901               	iorlw	1
  9760  003E36  6E37               	movwf	___fladd@grs^(0+1280),c
  9761  003E38  EF20  F01F         	goto	i2l3901
  9762  003E3C                     i2l3899:
  9763  003E3C  90D8               	bcf	status,0,c
  9764  003E3E  3237               	rrcf	___fladd@grs^(0+1280),f,c
  9765  003E40                     i2l3901:
  9766  003E40  A028               	btfss	___fladd@b^(0+1280),0,c
  9767  003E42  EF25  F01F         	goto	i2u344_41
  9768  003E46  EF27  F01F         	goto	i2u344_40
  9769  003E4A                     i2u344_41:
  9770  003E4A  EF28  F01F         	goto	i2l3905
  9771  003E4E                     i2u344_40:
  9772  003E4E  8E37               	bsf	___fladd@grs^(0+1280),7,c
  9773  003E50                     i2l3905:
  9774  003E50  342B               	rlcf	(___fladd@b+3)^(0+1280),w,c
  9775  003E52  322B               	rrcf	(___fladd@b+3)^(0+1280),f,c
  9776  003E54  322A               	rrcf	(___fladd@b+2)^(0+1280),f,c
  9777  003E56  3229               	rrcf	(___fladd@b+1)^(0+1280),f,c
  9778  003E58  3228               	rrcf	___fladd@b^(0+1280),f,c
  9779  003E5A  2A36               	incf	___fladd@bexp^(0+1280),f,c
  9780  003E5C                     i2l1190:
  9781  003E5C  5035               	movf	___fladd@aexp^(0+1280),w,c
  9782  003E5E  5C36               	subwf	___fladd@bexp^(0+1280),w,c
  9783  003E60  A0D8               	btfss	status,0,c
  9784  003E62  EF35  F01F         	goto	i2u345_41
  9785  003E66  EF37  F01F         	goto	i2u345_40
  9786  003E6A                     i2u345_41:
  9787  003E6A  EF11  F01F         	goto	i2l1191
  9788  003E6E                     i2u345_40:
  9789  003E6E                     i2l1189:
  9790  003E6E  BC34               	btfsc	___fladd@signs^(0+1280),6,c
  9791  003E70  EF3C  F01F         	goto	i2u346_41
  9792  003E74  EF3E  F01F         	goto	i2u346_40
  9793  003E78                     i2u346_41:
  9794  003E78  EF7E  F01F         	goto	i2l3933
  9795  003E7C                     i2u346_40:
  9796  003E7C  5036               	movf	___fladd@bexp^(0+1280),w,c
  9797  003E7E  A4D8               	btfss	status,2,c
  9798  003E80  EF44  F01F         	goto	i2u347_41
  9799  003E84  EF46  F01F         	goto	i2u347_40
  9800  003E88                     i2u347_41:
  9801  003E88  EF50  F01F         	goto	i2l3915
  9802  003E8C                     i2u347_40:
  9803  003E8C  0E00               	movlw	0
  9804  003E8E  6E28               	movwf	?___fladd^(0+1280),c
  9805  003E90  0E00               	movlw	0
  9806  003E92  6E29               	movwf	(?___fladd+1)^(0+1280),c
  9807  003E94  0E00               	movlw	0
  9808  003E96  6E2A               	movwf	(?___fladd+2)^(0+1280),c
  9809  003E98  0E00               	movlw	0
  9810  003E9A  6E2B               	movwf	(?___fladd+3)^(0+1280),c
  9811  003E9C  EF9F  F020         	goto	i2l1198
  9812  003EA0                     i2l3915:
  9813  003EA0  502C               	movf	___fladd@a^(0+1280),w,c
  9814  003EA2  2628               	addwf	___fladd@b^(0+1280),f,c
  9815  003EA4  502D               	movf	(___fladd@a+1)^(0+1280),w,c
  9816  003EA6  2229               	addwfc	(___fladd@b+1)^(0+1280),f,c
  9817  003EA8  502E               	movf	(___fladd@a+2)^(0+1280),w,c
  9818  003EAA  222A               	addwfc	(___fladd@b+2)^(0+1280),f,c
  9819  003EAC  502F               	movf	(___fladd@a+3)^(0+1280),w,c
  9820  003EAE  222B               	addwfc	(___fladd@b+3)^(0+1280),f,c
  9821  003EB0  A02B               	btfss	(___fladd@b+3)^(0+1280),0,c
  9822  003EB2  EF5D  F01F         	goto	i2u348_41
  9823  003EB6  EF5F  F01F         	goto	i2u348_40
  9824  003EBA                     i2u348_41:
  9825  003EBA  EF0B  F020         	goto	i2l3969
  9826  003EBE                     i2u348_40:
  9827  003EBE  A037               	btfss	___fladd@grs^(0+1280),0,c
  9828  003EC0  EF64  F01F         	goto	i2u349_41
  9829  003EC4  EF66  F01F         	goto	i2u349_40
  9830  003EC8                     i2u349_41:
  9831  003EC8  EF6C  F01F         	goto	i2l3923
  9832  003ECC                     i2u349_40:
  9833  003ECC  90D8               	bcf	status,0,c
  9834  003ECE  3037               	rrcf	___fladd@grs^(0+1280),w,c
  9835  003ED0  0901               	iorlw	1
  9836  003ED2  6E37               	movwf	___fladd@grs^(0+1280),c
  9837  003ED4  EF6E  F01F         	goto	i2l3925
  9838  003ED8                     i2l3923:
  9839  003ED8  90D8               	bcf	status,0,c
  9840  003EDA  3237               	rrcf	___fladd@grs^(0+1280),f,c
  9841  003EDC                     i2l3925:
  9842  003EDC  A028               	btfss	___fladd@b^(0+1280),0,c
  9843  003EDE  EF73  F01F         	goto	i2u350_41
  9844  003EE2  EF75  F01F         	goto	i2u350_40
  9845  003EE6                     i2u350_41:
  9846  003EE6  EF76  F01F         	goto	i2l3929
  9847  003EEA                     i2u350_40:
  9848  003EEA  8E37               	bsf	___fladd@grs^(0+1280),7,c
  9849  003EEC                     i2l3929:
  9850  003EEC  342B               	rlcf	(___fladd@b+3)^(0+1280),w,c
  9851  003EEE  322B               	rrcf	(___fladd@b+3)^(0+1280),f,c
  9852  003EF0  322A               	rrcf	(___fladd@b+2)^(0+1280),f,c
  9853  003EF2  3229               	rrcf	(___fladd@b+1)^(0+1280),f,c
  9854  003EF4  3228               	rrcf	___fladd@b^(0+1280),f,c
  9855  003EF6  2A36               	incf	___fladd@bexp^(0+1280),f,c
  9856  003EF8  EF0B  F020         	goto	i2l3969
  9857  003EFC                     i2l3933:
  9858  003EFC  502C               	movf	___fladd@a^(0+1280),w,c
  9859  003EFE  5C28               	subwf	___fladd@b^(0+1280),w,c
  9860  003F00  502D               	movf	(___fladd@a+1)^(0+1280),w,c
  9861  003F02  5829               	subwfb	(___fladd@b+1)^(0+1280),w,c
  9862  003F04  502E               	movf	(___fladd@a+2)^(0+1280),w,c
  9863  003F06  582A               	subwfb	(___fladd@b+2)^(0+1280),w,c
  9864  003F08  502B               	movf	(___fladd@b+3)^(0+1280),w,c
  9865  003F0A  0A80               	xorlw	128
  9866  003F0C  6E30               	movwf	??___fladd^(0+1280),c
  9867  003F0E  502F               	movf	(___fladd@a+3)^(0+1280),w,c
  9868  003F10  0A80               	xorlw	128
  9869  003F12  5830               	subwfb	??___fladd^(0+1280),w,c
  9870  003F14  B0D8               	btfsc	status,0,c
  9871  003F16  EF8F  F01F         	goto	i2u351_41
  9872  003F1A  EF91  F01F         	goto	i2u351_40
  9873  003F1E                     i2u351_41:
  9874  003F1E  EFBC  F01F         	goto	i2l3943
  9875  003F22                     i2u351_40:
  9876  003F22  5028               	movf	___fladd@b^(0+1280),w,c
  9877  003F24  5C2C               	subwf	___fladd@a^(0+1280),w,c
  9878  003F26  6E30               	movwf	??___fladd^(0+1280),c
  9879  003F28  5029               	movf	(___fladd@b+1)^(0+1280),w,c
  9880  003F2A  582D               	subwfb	(___fladd@a+1)^(0+1280),w,c
  9881  003F2C  6E31               	movwf	(??___fladd+1)^(0+1280),c
  9882  003F2E  502A               	movf	(___fladd@b+2)^(0+1280),w,c
  9883  003F30  582E               	subwfb	(___fladd@a+2)^(0+1280),w,c
  9884  003F32  6E32               	movwf	(??___fladd+2)^(0+1280),c
  9885  003F34  502B               	movf	(___fladd@b+3)^(0+1280),w,c
  9886  003F36  582F               	subwfb	(___fladd@a+3)^(0+1280),w,c
  9887  003F38  6E33               	movwf	(??___fladd+3)^(0+1280),c
  9888  003F3A  0EFF               	movlw	255
  9889  003F3C  2430               	addwf	??___fladd^(0+1280),w,c
  9890  003F3E  6E28               	movwf	___fladd@b^(0+1280),c
  9891  003F40  0EFF               	movlw	255
  9892  003F42  2031               	addwfc	(??___fladd+1)^(0+1280),w,c
  9893  003F44  6E29               	movwf	(___fladd@b+1)^(0+1280),c
  9894  003F46  0EFF               	movlw	255
  9895  003F48  2032               	addwfc	(??___fladd+2)^(0+1280),w,c
  9896  003F4A  6E2A               	movwf	(___fladd@b+2)^(0+1280),c
  9897  003F4C  0EFF               	movlw	255
  9898  003F4E  2033               	addwfc	(??___fladd+3)^(0+1280),w,c
  9899  003F50  6E2B               	movwf	(___fladd@b+3)^(0+1280),c
  9900  003F52  0E80               	movlw	128
  9901  003F54  1A34               	xorwf	___fladd@signs^(0+1280),f,c
  9902  003F56  6C37               	negf	___fladd@grs^(0+1280),c
  9903  003F58  5037               	movf	___fladd@grs^(0+1280),w,c
  9904  003F5A  A4D8               	btfss	status,2,c
  9905  003F5C  EFB2  F01F         	goto	i2u352_41
  9906  003F60  EFB4  F01F         	goto	i2u352_40
  9907  003F64                     i2u352_41:
  9908  003F64  EFC4  F01F         	goto	i2l1206
  9909  003F68                     i2u352_40:
  9910  003F68  0E01               	movlw	1
  9911  003F6A  2628               	addwf	___fladd@b^(0+1280),f,c
  9912  003F6C  0E00               	movlw	0
  9913  003F6E  2229               	addwfc	(___fladd@b+1)^(0+1280),f,c
  9914  003F70  222A               	addwfc	(___fladd@b+2)^(0+1280),f,c
  9915  003F72  222B               	addwfc	(___fladd@b+3)^(0+1280),f,c
  9916  003F74  EFC4  F01F         	goto	i2l1206
  9917  003F78                     i2l3943:
  9918  003F78  502C               	movf	___fladd@a^(0+1280),w,c
  9919  003F7A  5E28               	subwf	___fladd@b^(0+1280),f,c
  9920  003F7C  502D               	movf	(___fladd@a+1)^(0+1280),w,c
  9921  003F7E  5A29               	subwfb	(___fladd@b+1)^(0+1280),f,c
  9922  003F80  502E               	movf	(___fladd@a+2)^(0+1280),w,c
  9923  003F82  5A2A               	subwfb	(___fladd@b+2)^(0+1280),f,c
  9924  003F84  502F               	movf	(___fladd@a+3)^(0+1280),w,c
  9925  003F86  5A2B               	subwfb	(___fladd@b+3)^(0+1280),f,c
  9926  003F88                     i2l1206:
  9927  003F88  5028               	movf	___fladd@b^(0+1280),w,c
  9928  003F8A  1029               	iorwf	(___fladd@b+1)^(0+1280),w,c
  9929  003F8C  102A               	iorwf	(___fladd@b+2)^(0+1280),w,c
  9930  003F8E  102B               	iorwf	(___fladd@b+3)^(0+1280),w,c
  9931  003F90  A4D8               	btfss	status,2,c
  9932  003F92  EFCD  F01F         	goto	i2u353_41
  9933  003F96  EFCF  F01F         	goto	i2u353_40
  9934  003F9A                     i2u353_41:
  9935  003F9A  EF04  F020         	goto	i2l3967
  9936  003F9E                     i2u353_40:
  9937  003F9E  5037               	movf	___fladd@grs^(0+1280),w,c
  9938  003FA0  A4D8               	btfss	status,2,c
  9939  003FA2  EFD5  F01F         	goto	i2u354_41
  9940  003FA6  EFD7  F01F         	goto	i2u354_40
  9941  003FAA                     i2u354_41:
  9942  003FAA  EF04  F020         	goto	i2l3967
  9943  003FAE                     i2u354_40:
  9944  003FAE  0E00               	movlw	0
  9945  003FB0  6E28               	movwf	?___fladd^(0+1280),c
  9946  003FB2  0E00               	movlw	0
  9947  003FB4  6E29               	movwf	(?___fladd+1)^(0+1280),c
  9948  003FB6  0E00               	movlw	0
  9949  003FB8  6E2A               	movwf	(?___fladd+2)^(0+1280),c
  9950  003FBA  0E00               	movlw	0
  9951  003FBC  6E2B               	movwf	(?___fladd+3)^(0+1280),c
  9952  003FBE  EF9F  F020         	goto	i2l1198
  9953  003FC2                     i2l3951:
  9954  003FC2  90D8               	bcf	status,0,c
  9955  003FC4  3628               	rlcf	___fladd@b^(0+1280),f,c
  9956  003FC6  3629               	rlcf	(___fladd@b+1)^(0+1280),f,c
  9957  003FC8  362A               	rlcf	(___fladd@b+2)^(0+1280),f,c
  9958  003FCA  362B               	rlcf	(___fladd@b+3)^(0+1280),f,c
  9959  003FCC  AE37               	btfss	___fladd@grs^(0+1280),7,c
  9960  003FCE  EFEB  F01F         	goto	i2u355_41
  9961  003FD2  EFED  F01F         	goto	i2u355_40
  9962  003FD6                     i2u355_41:
  9963  003FD6  EFEE  F01F         	goto	i2l3957
  9964  003FDA                     i2u355_40:
  9965  003FDA  8028               	bsf	___fladd@b^(0+1280),0,c
  9966  003FDC                     i2l3957:
  9967  003FDC  A037               	btfss	___fladd@grs^(0+1280),0,c
  9968  003FDE  EFF3  F01F         	goto	i2u356_41
  9969  003FE2  EFF5  F01F         	goto	i2u356_40
  9970  003FE6                     i2u356_41:
  9971  003FE6  EFF9  F01F         	goto	i2l3961
  9972  003FEA                     i2u356_40:
  9973  003FEA  80D8               	bsf	status,0,c
  9974  003FEC  3637               	rlcf	___fladd@grs^(0+1280),f,c
  9975  003FEE  EFFB  F01F         	goto	i2l3963
  9976  003FF2                     i2l3961:
  9977  003FF2  90D8               	bcf	status,0,c
  9978  003FF4  3637               	rlcf	___fladd@grs^(0+1280),f,c
  9979  003FF6                     i2l3963:
  9980  003FF6  5036               	movf	___fladd@bexp^(0+1280),w,c
  9981  003FF8  B4D8               	btfsc	status,2,c
  9982  003FFA  EF01  F020         	goto	i2u357_41
  9983  003FFE  EF03  F020         	goto	i2u357_40
  9984  004002                     i2u357_41:
  9985  004002  EF04  F020         	goto	i2l3967
  9986  004006                     i2u357_40:
  9987  004006  0636               	decf	___fladd@bexp^(0+1280),f,c
  9988  004008                     i2l3967:
  9989  004008  AE2A               	btfss	(___fladd@b+2)^(0+1280),7,c
  9990  00400A  EF09  F020         	goto	i2u358_41
  9991  00400E  EF0B  F020         	goto	i2u358_40
  9992  004012                     i2u358_41:
  9993  004012  EFE1  F01F         	goto	i2l3951
  9994  004016                     i2u358_40:
  9995  004016                     i2l3969:
  9996  004016  0E00               	movlw	0
  9997  004018  6E35               	movwf	___fladd@aexp^(0+1280),c
  9998  00401A  AE37               	btfss	___fladd@grs^(0+1280),7,c
  9999  00401C  EF12  F020         	goto	i2u359_41
 10000  004020  EF14  F020         	goto	i2u359_40
 10001  004024                     i2u359_41:
 10002  004024  EF2C  F020         	goto	i2l1215
 10003  004028                     i2u359_40:
 10004  004028  C537  F530         	movff	___fladd@grs,??___fladd
 10005  00402C  0E7F               	movlw	127
 10006  00402E  1630               	andwf	??___fladd^(0+1280),f,c
 10007  004030  B4D8               	btfsc	status,2,c
 10008  004032  EF1D  F020         	goto	i2u360_41
 10009  004036  EF1F  F020         	goto	i2u360_40
 10010  00403A                     i2u360_41:
 10011  00403A  EF23  F020         	goto	i2l1216
 10012  00403E                     i2u360_40:
 10013  00403E                     i2l3975:
 10014  00403E  0E01               	movlw	1
 10015  004040  6E35               	movwf	___fladd@aexp^(0+1280),c
 10016  004042  EF2C  F020         	goto	i2l1215
 10017  004046                     i2l1216:
 10018  004046  A028               	btfss	___fladd@b^(0+1280),0,c
 10019  004048  EF28  F020         	goto	i2u361_41
 10020  00404C  EF2A  F020         	goto	i2u361_40
 10021  004050                     i2u361_41:
 10022  004050  EF2C  F020         	goto	i2l1215
 10023  004054                     i2u361_40:
 10024  004054  EF1F  F020         	goto	i2l3975
 10025  004058                     i2l1215:
 10026  004058  5035               	movf	___fladd@aexp^(0+1280),w,c
 10027  00405A  B4D8               	btfsc	status,2,c
 10028  00405C  EF32  F020         	goto	i2u362_41
 10029  004060  EF34  F020         	goto	i2u362_40
 10030  004064                     i2u362_41:
 10031  004064  EF5F  F020         	goto	i2l3987
 10032  004068                     i2u362_40:
 10033  004068  0E01               	movlw	1
 10034  00406A  2628               	addwf	___fladd@b^(0+1280),f,c
 10035  00406C  0E00               	movlw	0
 10036  00406E  2229               	addwfc	(___fladd@b+1)^(0+1280),f,c
 10037  004070  222A               	addwfc	(___fladd@b+2)^(0+1280),f,c
 10038  004072  222B               	addwfc	(___fladd@b+3)^(0+1280),f,c
 10039  004074  A02B               	btfss	(___fladd@b+3)^(0+1280),0,c
 10040  004076  EF3F  F020         	goto	i2u363_41
 10041  00407A  EF41  F020         	goto	i2u363_40
 10042  00407E                     i2u363_41:
 10043  00407E  EF5F  F020         	goto	i2l3987
 10044  004082                     i2u363_40:
 10045  004082  C528  F530         	movff	___fladd@b,??___fladd
 10046  004086  C529  F531         	movff	___fladd@b+1,??___fladd+1
 10047  00408A  C52A  F532         	movff	___fladd@b+2,??___fladd+2
 10048  00408E  C52B  F533         	movff	___fladd@b+3,??___fladd+3
 10049  004092  3433               	rlcf	(??___fladd+3)^(0+1280),w,c
 10050  004094  3233               	rrcf	(??___fladd+3)^(0+1280),f,c
 10051  004096  3232               	rrcf	(??___fladd+2)^(0+1280),f,c
 10052  004098  3231               	rrcf	(??___fladd+1)^(0+1280),f,c
 10053  00409A  3230               	rrcf	??___fladd^(0+1280),f,c
 10054  00409C  C530  F528         	movff	??___fladd,___fladd@b
 10055  0040A0  C531  F529         	movff	??___fladd+1,___fladd@b+1
 10056  0040A4  C532  F52A         	movff	??___fladd+2,___fladd@b+2
 10057  0040A8  C533  F52B         	movff	??___fladd+3,___fladd@b+3
 10058  0040AC  2836               	incf	___fladd@bexp^(0+1280),w,c
 10059  0040AE  B4D8               	btfsc	status,2,c
 10060  0040B0  EF5C  F020         	goto	i2u364_41
 10061  0040B4  EF5E  F020         	goto	i2u364_40
 10062  0040B8                     i2u364_41:
 10063  0040B8  EF5F  F020         	goto	i2l3987
 10064  0040BC                     i2u364_40:
 10065  0040BC  2A36               	incf	___fladd@bexp^(0+1280),f,c
 10066  0040BE                     i2l3987:
 10067  0040BE  2836               	incf	___fladd@bexp^(0+1280),w,c
 10068  0040C0  B4D8               	btfsc	status,2,c
 10069  0040C2  EF65  F020         	goto	i2u365_41
 10070  0040C6  EF67  F020         	goto	i2u365_40
 10071  0040CA                     i2u365_41:
 10072  0040CA  EF6F  F020         	goto	i2l3991
 10073  0040CE                     i2u365_40:
 10074  0040CE  5036               	movf	___fladd@bexp^(0+1280),w,c
 10075  0040D0  A4D8               	btfss	status,2,c
 10076  0040D2  EF6D  F020         	goto	i2u366_41
 10077  0040D6  EF6F  F020         	goto	i2u366_40
 10078  0040DA                     i2u366_41:
 10079  0040DA  EF81  F020         	goto	i2l3995
 10080  0040DE                     i2u366_40:
 10081  0040DE                     i2l3991:
 10082  0040DE  0E00               	movlw	0
 10083  0040E0  6E28               	movwf	___fladd@b^(0+1280),c
 10084  0040E2  0E00               	movlw	0
 10085  0040E4  6E29               	movwf	(___fladd@b+1)^(0+1280),c
 10086  0040E6  0E00               	movlw	0
 10087  0040E8  6E2A               	movwf	(___fladd@b+2)^(0+1280),c
 10088  0040EA  0E00               	movlw	0
 10089  0040EC  6E2B               	movwf	(___fladd@b+3)^(0+1280),c
 10090  0040EE  5036               	movf	___fladd@bexp^(0+1280),w,c
 10091  0040F0  A4D8               	btfss	status,2,c
 10092  0040F2  EF7D  F020         	goto	i2u367_41
 10093  0040F6  EF7F  F020         	goto	i2u367_40
 10094  0040FA                     i2u367_41:
 10095  0040FA  EF81  F020         	goto	i2l3995
 10096  0040FE                     i2u367_40:
 10097  0040FE  0E00               	movlw	0
 10098  004100  6E34               	movwf	___fladd@signs^(0+1280),c
 10099  004102                     i2l3995:
 10100  004102  A036               	btfss	___fladd@bexp^(0+1280),0,c
 10101  004104  EF86  F020         	goto	i2u368_41
 10102  004108  EF88  F020         	goto	i2u368_40
 10103  00410C                     i2u368_41:
 10104  00410C  EF8B  F020         	goto	i2l3999
 10105  004110                     i2u368_40:
 10106  004110  8E2A               	bsf	(___fladd@b+2)^(0+1280),7,c
 10107  004112  EF8C  F020         	goto	i2l4001
 10108  004116                     i2l3999:
 10109  004116  9E2A               	bcf	(___fladd@b+2)^(0+1280),7,c
 10110  004118                     i2l4001:
 10111  004118  90D8               	bcf	status,0,c
 10112  00411A  3036               	rrcf	___fladd@bexp^(0+1280),w,c
 10113  00411C  6E2B               	movwf	(___fladd@b+3)^(0+1280),c
 10114  00411E  AE34               	btfss	___fladd@signs^(0+1280),7,c
 10115  004120  EF94  F020         	goto	i2u369_41
 10116  004124  EF96  F020         	goto	i2u369_40
 10117  004128                     i2u369_41:
 10118  004128  EF97  F020         	goto	i2l4007
 10119  00412C                     i2u369_40:
 10120  00412C  8E2B               	bsf	(___fladd@b+3)^(0+1280),7,c
 10121  00412E                     i2l4007:
 10122  00412E  C528  F528         	movff	___fladd@b,?___fladd
 10123  004132  C529  F529         	movff	___fladd@b+1,?___fladd+1
 10124  004136  C52A  F52A         	movff	___fladd@b+2,?___fladd+2
 10125  00413A  C52B  F52B         	movff	___fladd@b+3,?___fladd+3
 10126  00413E                     i2l1198:
 10127  00413E  0012               	return		;funcret
 10128  004140                     __end_of___fladd:
 10129                           	callstack 0
 10130                           
 10131 ;; *************** function ___flneg *****************
 10132 ;; Defined at:
 10133 ;;		line 15 in file "C:\Program Files\Microchip\xc8\v2.32\pic\sources\c99\common\flneg.c"
 10134 ;; Parameters:    Size  Location     Type
 10135 ;;  f1              4    0[COMRAM] unsigned char 
 10136 ;; Auto vars:     Size  Location     Type
 10137 ;;		None
 10138 ;; Return value:  Size  Location     Type
 10139 ;;                  4    0[COMRAM] unsigned char 
 10140 ;; Registers used:
 10141 ;;		wreg, status,2, status,0
 10142 ;; Tracked objects:
 10143 ;;		On entry : 0/0
 10144 ;;		On exit  : 0/0
 10145 ;;		Unchanged: 0/0
 10146 ;; Data sizes:     COMRAM   BANK5   BANK6   BANK7   BANK8   BANK9  BANK10  BANK11  BANK12  BANK13  BANK14  BANK15  BANK1
      +6  BANK17  BANK18  BANK19  BANK20  BANK21  BANK22  BANK23  BANK24  BANK25  BANK26  BANK27  BANK28  BANK29  BANK30  BANK3
      +1  BANK32  BANK33  BANK34  BANK35  BANK36  BANK37
 10147 ;;      Params:         4       0       0       0       0       0       0       0       0       0       0       0       
      +0       0       0       0       0       0       0       0       0       0       0       0       0       0       0       
      +0       0       0       0       0       0       0
 10148 ;;      Locals:         0       0       0       0       0       0       0       0       0       0       0       0       
      +0       0       0       0       0       0       0       0       0       0       0       0       0       0       0       
      +0       0       0       0       0       0       0
 10149 ;;      Temps:          0       0       0       0       0       0       0       0       0       0       0       0       
      +0       0       0       0       0       0       0       0       0       0       0       0       0       0       0       
      +0       0       0       0       0       0       0
 10150 ;;      Totals:         4       0       0       0       0       0       0       0       0       0       0       0       
      +0       0       0       0       0       0       0       0       0       0       0       0       0       0       0       
      +0       0       0       0       0       0       0
 10151 ;;Total ram usage:        4 bytes
 10152 ;; Hardware stack levels used: 1
 10153 ;; This function calls:
 10154 ;;		Nothing
 10155 ;; This function is called by:
 10156 ;;		_efgtoa
 10157 ;; This function uses a non-reentrant model
 10158 ;;
 10159                           
 10160                           	psect	text53
 10161  006704                     __ptext53:
 10162                           	callstack 0
 10163  006704                     ___flneg:
 10164                           	callstack 117
 10165  006704  5001               	movf	___flneg@f1^(0+1280),w,c
 10166  006706  1002               	iorwf	(___flneg@f1+1)^(0+1280),w,c
 10167  006708  1003               	iorwf	(___flneg@f1+2)^(0+1280),w,c
 10168  00670A  1004               	iorwf	(___flneg@f1+3)^(0+1280),w,c
 10169  00670C  B4D8               	btfsc	status,2,c
 10170  00670E  EF8B  F033         	goto	i2u438_41
 10171  006712  EF8D  F033         	goto	i2u438_40
 10172  006716                     i2u438_41:
 10173  006716  EF95  F033         	goto	i2l4439
 10174  00671A                     i2u438_40:
 10175  00671A  0E00               	movlw	0
 10176  00671C  1A01               	xorwf	___flneg@f1^(0+1280),f,c
 10177  00671E  0E00               	movlw	0
 10178  006720  1A02               	xorwf	(___flneg@f1+1)^(0+1280),f,c
 10179  006722  0E00               	movlw	0
 10180  006724  1A03               	xorwf	(___flneg@f1+2)^(0+1280),f,c
 10181  006726  0E80               	movlw	128
 10182  006728  1A04               	xorwf	(___flneg@f1+3)^(0+1280),f,c
 10183  00672A                     i2l4439:
 10184  00672A  C501  F501         	movff	___flneg@f1,?___flneg
 10185  00672E  C502  F502         	movff	___flneg@f1+1,?___flneg+1
 10186  006732  C503  F503         	movff	___flneg@f1+2,?___flneg+2
 10187  006736  C504  F504         	movff	___flneg@f1+3,?___flneg+3
 10188  00673A  0012               	return		;funcret
 10189  00673C                     __end_of___flneg:
 10190                           	callstack 0
 10191                           
 10192 ;; *************** function ___flmul *****************
 10193 ;; Defined at:
 10194 ;;		line 8 in file "C:\Program Files\Microchip\xc8\v2.32\pic\sources\c99\common\sprcmul.c"
 10195 ;; Parameters:    Size  Location     Type
 10196 ;;  b               4   14[COMRAM] unsigned char 
 10197 ;;  a               4   18[COMRAM] unsigned char 
 10198 ;; Auto vars:     Size  Location     Type
 10199 ;;  prod            4   33[COMRAM] struct .
 10200 ;;  grs             4   27[COMRAM] unsigned long 
 10201 ;;  temp            2   37[COMRAM] struct .
 10202 ;;  bexp            1   32[COMRAM] unsigned char 
 10203 ;;  aexp            1   31[COMRAM] unsigned char 
 10204 ;;  sign            1   26[COMRAM] unsigned char 
 10205 ;; Return value:  Size  Location     Type
 10206 ;;                  4   14[COMRAM] unsigned char 
 10207 ;; Registers used:
 10208 ;;		wreg, status,2, status,0, prodl, prodh
 10209 ;; Tracked objects:
 10210 ;;		On entry : 0/0
 10211 ;;		On exit  : 0/0
 10212 ;;		Unchanged: 0/0
 10213 ;; Data sizes:     COMRAM   BANK5   BANK6   BANK7   BANK8   BANK9  BANK10  BANK11  BANK12  BANK13  BANK14  BANK15  BANK1
      +6  BANK17  BANK18  BANK19  BANK20  BANK21  BANK22  BANK23  BANK24  BANK25  BANK26  BANK27  BANK28  BANK29  BANK30  BANK3
      +1  BANK32  BANK33  BANK34  BANK35  BANK36  BANK37
 10214 ;;      Params:         8       0       0       0       0       0       0       0       0       0       0       0       
      +0       0       0       0       0       0       0       0       0       0       0       0       0       0       0       
      +0       0       0       0       0       0       0
 10215 ;;      Locals:        13       0       0       0       0       0       0       0       0       0       0       0       
      +0       0       0       0       0       0       0       0       0       0       0       0       0       0       0       
      +0       0       0       0       0       0       0
 10216 ;;      Temps:          4       0       0       0       0       0       0       0       0       0       0       0       
      +0       0       0       0       0       0       0       0       0       0       0       0       0       0       0       
      +0       0       0       0       0       0       0
 10217 ;;      Totals:        25       0       0       0       0       0       0       0       0       0       0       0       
      +0       0       0       0       0       0       0       0       0       0       0       0       0       0       0       
      +0       0       0       0       0       0       0
 10218 ;;Total ram usage:       25 bytes
 10219 ;; Hardware stack levels used: 1
 10220 ;; This function calls:
 10221 ;;		Nothing
 10222 ;; This function is called by:
 10223 ;;		_sensor_interrupt
 10224 ;;		_efgtoa
 10225 ;; This function uses a non-reentrant model
 10226 ;;
 10227                           
 10228                           	psect	text54
 10229  004140                     __ptext54:
 10230                           	callstack 0
 10231  004140                     ___flmul:
 10232                           	callstack 117
 10233  004140  5012               	movf	(___flmul@b+3)^(0+1280),w,c
 10234  004142  0B80               	andlw	128
 10235  004144  6E1B               	movwf	___flmul@sign^(0+1280),c
 10236  004146  5012               	movf	(___flmul@b+3)^(0+1280),w,c
 10237  004148  2412               	addwf	(___flmul@b+3)^(0+1280),w,c
 10238  00414A  6E21               	movwf	___flmul@bexp^(0+1280),c
 10239  00414C  AE11               	btfss	(___flmul@b+2)^(0+1280),7,c
 10240  00414E  EFAB  F020         	goto	i2u399_41
 10241  004152  EFAD  F020         	goto	i2u399_40
 10242  004156                     i2u399_41:
 10243  004156  EFAE  F020         	goto	i2l4187
 10244  00415A                     i2u399_40:
 10245  00415A  8021               	bsf	___flmul@bexp^(0+1280),0,c
 10246  00415C                     i2l4187:
 10247  00415C  5021               	movf	___flmul@bexp^(0+1280),w,c
 10248  00415E  B4D8               	btfsc	status,2,c
 10249  004160  EFB4  F020         	goto	i2u400_41
 10250  004164  EFB6  F020         	goto	i2u400_40
 10251  004168                     i2u400_41:
 10252  004168  EFC9  F020         	goto	i2l4195
 10253  00416C                     i2u400_40:
 10254  00416C  2821               	incf	___flmul@bexp^(0+1280),w,c
 10255  00416E  A4D8               	btfss	status,2,c
 10256  004170  EFBC  F020         	goto	i2u401_41
 10257  004174  EFBE  F020         	goto	i2u401_40
 10258  004178                     i2u401_41:
 10259  004178  EFC6  F020         	goto	i2l4193
 10260  00417C                     i2u401_40:
 10261  00417C  0E00               	movlw	0
 10262  00417E  6E0F               	movwf	___flmul@b^(0+1280),c
 10263  004180  0E00               	movlw	0
 10264  004182  6E10               	movwf	(___flmul@b+1)^(0+1280),c
 10265  004184  0E00               	movlw	0
 10266  004186  6E11               	movwf	(___flmul@b+2)^(0+1280),c
 10267  004188  0E00               	movlw	0
 10268  00418A  6E12               	movwf	(___flmul@b+3)^(0+1280),c
 10269  00418C                     i2l4193:
 10270  00418C  8E11               	bsf	(___flmul@b+2)^(0+1280),7,c
 10271  00418E  EFD1  F020         	goto	i2l4197
 10272  004192                     i2l4195:
 10273  004192  0E00               	movlw	0
 10274  004194  6E0F               	movwf	___flmul@b^(0+1280),c
 10275  004196  0E00               	movlw	0
 10276  004198  6E10               	movwf	(___flmul@b+1)^(0+1280),c
 10277  00419A  0E00               	movlw	0
 10278  00419C  6E11               	movwf	(___flmul@b+2)^(0+1280),c
 10279  00419E  0E00               	movlw	0
 10280  0041A0  6E12               	movwf	(___flmul@b+3)^(0+1280),c
 10281  0041A2                     i2l4197:
 10282  0041A2  5016               	movf	(___flmul@a+3)^(0+1280),w,c
 10283  0041A4  0B80               	andlw	128
 10284  0041A6  1A1B               	xorwf	___flmul@sign^(0+1280),f,c
 10285  0041A8  5016               	movf	(___flmul@a+3)^(0+1280),w,c
 10286  0041AA  2416               	addwf	(___flmul@a+3)^(0+1280),w,c
 10287  0041AC  6E20               	movwf	___flmul@aexp^(0+1280),c
 10288  0041AE  AE15               	btfss	(___flmul@a+2)^(0+1280),7,c
 10289  0041B0  EFDC  F020         	goto	i2u402_41
 10290  0041B4  EFDE  F020         	goto	i2u402_40
 10291  0041B8                     i2u402_41:
 10292  0041B8  EFDF  F020         	goto	i2l4205
 10293  0041BC                     i2u402_40:
 10294  0041BC  8020               	bsf	___flmul@aexp^(0+1280),0,c
 10295  0041BE                     i2l4205:
 10296  0041BE  5020               	movf	___flmul@aexp^(0+1280),w,c
 10297  0041C0  B4D8               	btfsc	status,2,c
 10298  0041C2  EFE5  F020         	goto	i2u403_41
 10299  0041C6  EFE7  F020         	goto	i2u403_40
 10300  0041CA                     i2u403_41:
 10301  0041CA  EFFA  F020         	goto	i2l4213
 10302  0041CE                     i2u403_40:
 10303  0041CE  2820               	incf	___flmul@aexp^(0+1280),w,c
 10304  0041D0  A4D8               	btfss	status,2,c
 10305  0041D2  EFED  F020         	goto	i2u404_41
 10306  0041D6  EFEF  F020         	goto	i2u404_40
 10307  0041DA                     i2u404_41:
 10308  0041DA  EFF7  F020         	goto	i2l4211
 10309  0041DE                     i2u404_40:
 10310  0041DE  0E00               	movlw	0
 10311  0041E0  6E13               	movwf	___flmul@a^(0+1280),c
 10312  0041E2  0E00               	movlw	0
 10313  0041E4  6E14               	movwf	(___flmul@a+1)^(0+1280),c
 10314  0041E6  0E00               	movlw	0
 10315  0041E8  6E15               	movwf	(___flmul@a+2)^(0+1280),c
 10316  0041EA  0E00               	movlw	0
 10317  0041EC  6E16               	movwf	(___flmul@a+3)^(0+1280),c
 10318  0041EE                     i2l4211:
 10319  0041EE  8E15               	bsf	(___flmul@a+2)^(0+1280),7,c
 10320  0041F0  EF02  F021         	goto	i2l1275
 10321  0041F4                     i2l4213:
 10322  0041F4  0E00               	movlw	0
 10323  0041F6  6E13               	movwf	___flmul@a^(0+1280),c
 10324  0041F8  0E00               	movlw	0
 10325  0041FA  6E14               	movwf	(___flmul@a+1)^(0+1280),c
 10326  0041FC  0E00               	movlw	0
 10327  0041FE  6E15               	movwf	(___flmul@a+2)^(0+1280),c
 10328  004200  0E00               	movlw	0
 10329  004202  6E16               	movwf	(___flmul@a+3)^(0+1280),c
 10330  004204                     i2l1275:
 10331  004204  5020               	movf	___flmul@aexp^(0+1280),w,c
 10332  004206  B4D8               	btfsc	status,2,c
 10333  004208  EF08  F021         	goto	i2u405_41
 10334  00420C  EF0A  F021         	goto	i2u405_40
 10335  004210                     i2u405_41:
 10336  004210  EF12  F021         	goto	i2l4217
 10337  004214                     i2u405_40:
 10338  004214  5021               	movf	___flmul@bexp^(0+1280),w,c
 10339  004216  A4D8               	btfss	status,2,c
 10340  004218  EF10  F021         	goto	i2u406_41
 10341  00421C  EF12  F021         	goto	i2u406_40
 10342  004220                     i2u406_41:
 10343  004220  EF1C  F021         	goto	i2l4221
 10344  004224                     i2u406_40:
 10345  004224                     i2l4217:
 10346  004224  0E00               	movlw	0
 10347  004226  6E0F               	movwf	?___flmul^(0+1280),c
 10348  004228  0E00               	movlw	0
 10349  00422A  6E10               	movwf	(?___flmul+1)^(0+1280),c
 10350  00422C  0E00               	movlw	0
 10351  00422E  6E11               	movwf	(?___flmul+2)^(0+1280),c
 10352  004230  0E00               	movlw	0
 10353  004232  6E12               	movwf	(?___flmul+3)^(0+1280),c
 10354  004234  EFC6  F022         	goto	i2l1279
 10355  004238                     i2l4221:
 10356  004238  5015               	movf	(___flmul@a+2)^(0+1280),w,c
 10357  00423A  020F               	mulwf	___flmul@b^(0+1280),c
 10358  00423C  0061 F3CC  F526    	movff	prodl,___flmul@temp
 10359  004242  0061 F3D0  F527    	movff	prodh,___flmul@temp+1
 10360  004248  5026               	movf	___flmul@temp^(0+1280),w,c
 10361  00424A  6E1C               	movwf	___flmul@grs^(0+1280),c
 10362  00424C  6A1D               	clrf	(___flmul@grs+1)^(0+1280),c
 10363  00424E  6A1E               	clrf	(___flmul@grs+2)^(0+1280),c
 10364  004250  6A1F               	clrf	(___flmul@grs+3)^(0+1280),c
 10365  004252  5027               	movf	(___flmul@temp+1)^(0+1280),w,c
 10366  004254  6E22               	movwf	___flmul@prod^(0+1280),c
 10367  004256  6A23               	clrf	(___flmul@prod+1)^(0+1280),c
 10368  004258  6A24               	clrf	(___flmul@prod+2)^(0+1280),c
 10369  00425A  6A25               	clrf	(___flmul@prod+3)^(0+1280),c
 10370  00425C  5014               	movf	(___flmul@a+1)^(0+1280),w,c
 10371  00425E  0210               	mulwf	(___flmul@b+1)^(0+1280),c
 10372  004260  0061 F3CC  F526    	movff	prodl,___flmul@temp
 10373  004266  0061 F3D0  F527    	movff	prodh,___flmul@temp+1
 10374  00426C  5026               	movf	___flmul@temp^(0+1280),w,c
 10375  00426E  261C               	addwf	___flmul@grs^(0+1280),f,c
 10376  004270  0E00               	movlw	0
 10377  004272  221D               	addwfc	(___flmul@grs+1)^(0+1280),f,c
 10378  004274  221E               	addwfc	(___flmul@grs+2)^(0+1280),f,c
 10379  004276  221F               	addwfc	(___flmul@grs+3)^(0+1280),f,c
 10380  004278  5027               	movf	(___flmul@temp+1)^(0+1280),w,c
 10381  00427A  2622               	addwf	___flmul@prod^(0+1280),f,c
 10382  00427C  0E00               	movlw	0
 10383  00427E  2223               	addwfc	(___flmul@prod+1)^(0+1280),f,c
 10384  004280  2224               	addwfc	(___flmul@prod+2)^(0+1280),f,c
 10385  004282  2225               	addwfc	(___flmul@prod+3)^(0+1280),f,c
 10386  004284  5013               	movf	___flmul@a^(0+1280),w,c
 10387  004286  0211               	mulwf	(___flmul@b+2)^(0+1280),c
 10388  004288  0061 F3CC  F526    	movff	prodl,___flmul@temp
 10389  00428E  0061 F3D0  F527    	movff	prodh,___flmul@temp+1
 10390  004294  5026               	movf	___flmul@temp^(0+1280),w,c
 10391  004296  261C               	addwf	___flmul@grs^(0+1280),f,c
 10392  004298  0E00               	movlw	0
 10393  00429A  221D               	addwfc	(___flmul@grs+1)^(0+1280),f,c
 10394  00429C  221E               	addwfc	(___flmul@grs+2)^(0+1280),f,c
 10395  00429E  221F               	addwfc	(___flmul@grs+3)^(0+1280),f,c
 10396  0042A0  5027               	movf	(___flmul@temp+1)^(0+1280),w,c
 10397  0042A2  2622               	addwf	___flmul@prod^(0+1280),f,c
 10398  0042A4  0E00               	movlw	0
 10399  0042A6  2223               	addwfc	(___flmul@prod+1)^(0+1280),f,c
 10400  0042A8  2224               	addwfc	(___flmul@prod+2)^(0+1280),f,c
 10401  0042AA  2225               	addwfc	(___flmul@prod+3)^(0+1280),f,c
 10402  0042AC  C51E  F51F         	movff	___flmul@grs+2,___flmul@grs+3
 10403  0042B0  C51D  F51E         	movff	___flmul@grs+1,___flmul@grs+2
 10404  0042B4  C51C  F51D         	movff	___flmul@grs,___flmul@grs+1
 10405  0042B8  6A1C               	clrf	___flmul@grs^(0+1280),c
 10406  0042BA  5013               	movf	___flmul@a^(0+1280),w,c
 10407  0042BC  0210               	mulwf	(___flmul@b+1)^(0+1280),c
 10408  0042BE  0061 F3CC  F526    	movff	prodl,___flmul@temp
 10409  0042C4  0061 F3D0  F527    	movff	prodh,___flmul@temp+1
 10410  0042CA  5026               	movf	___flmul@temp^(0+1280),w,c
 10411  0042CC  261C               	addwf	___flmul@grs^(0+1280),f,c
 10412  0042CE  5027               	movf	(___flmul@temp+1)^(0+1280),w,c
 10413  0042D0  221D               	addwfc	(___flmul@grs+1)^(0+1280),f,c
 10414  0042D2  0E00               	movlw	0
 10415  0042D4  221E               	addwfc	(___flmul@grs+2)^(0+1280),f,c
 10416  0042D6  0E00               	movlw	0
 10417  0042D8  221F               	addwfc	(___flmul@grs+3)^(0+1280),f,c
 10418  0042DA  5014               	movf	(___flmul@a+1)^(0+1280),w,c
 10419  0042DC  020F               	mulwf	___flmul@b^(0+1280),c
 10420  0042DE  0061 F3CC  F526    	movff	prodl,___flmul@temp
 10421  0042E4  0061 F3D0  F527    	movff	prodh,___flmul@temp+1
 10422  0042EA  5026               	movf	___flmul@temp^(0+1280),w,c
 10423  0042EC  261C               	addwf	___flmul@grs^(0+1280),f,c
 10424  0042EE  5027               	movf	(___flmul@temp+1)^(0+1280),w,c
 10425  0042F0  221D               	addwfc	(___flmul@grs+1)^(0+1280),f,c
 10426  0042F2  0E00               	movlw	0
 10427  0042F4  221E               	addwfc	(___flmul@grs+2)^(0+1280),f,c
 10428  0042F6  0E00               	movlw	0
 10429  0042F8  221F               	addwfc	(___flmul@grs+3)^(0+1280),f,c
 10430  0042FA  C51E  F51F         	movff	___flmul@grs+2,___flmul@grs+3
 10431  0042FE  C51D  F51E         	movff	___flmul@grs+1,___flmul@grs+2
 10432  004302  C51C  F51D         	movff	___flmul@grs,___flmul@grs+1
 10433  004306  6A1C               	clrf	___flmul@grs^(0+1280),c
 10434  004308  5013               	movf	___flmul@a^(0+1280),w,c
 10435  00430A  020F               	mulwf	___flmul@b^(0+1280),c
 10436  00430C  0061 F3CC  F526    	movff	prodl,___flmul@temp
 10437  004312  0061 F3D0  F527    	movff	prodh,___flmul@temp+1
 10438  004318  5026               	movf	___flmul@temp^(0+1280),w,c
 10439  00431A  261C               	addwf	___flmul@grs^(0+1280),f,c
 10440  00431C  5027               	movf	(___flmul@temp+1)^(0+1280),w,c
 10441  00431E  221D               	addwfc	(___flmul@grs+1)^(0+1280),f,c
 10442  004320  0E00               	movlw	0
 10443  004322  221E               	addwfc	(___flmul@grs+2)^(0+1280),f,c
 10444  004324  0E00               	movlw	0
 10445  004326  221F               	addwfc	(___flmul@grs+3)^(0+1280),f,c
 10446  004328  5015               	movf	(___flmul@a+2)^(0+1280),w,c
 10447  00432A  0210               	mulwf	(___flmul@b+1)^(0+1280),c
 10448  00432C  0061 F3CC  F526    	movff	prodl,___flmul@temp
 10449  004332  0061 F3D0  F527    	movff	prodh,___flmul@temp+1
 10450  004338  5026               	movf	___flmul@temp^(0+1280),w,c
 10451  00433A  2622               	addwf	___flmul@prod^(0+1280),f,c
 10452  00433C  5027               	movf	(___flmul@temp+1)^(0+1280),w,c
 10453  00433E  2223               	addwfc	(___flmul@prod+1)^(0+1280),f,c
 10454  004340  0E00               	movlw	0
 10455  004342  2224               	addwfc	(___flmul@prod+2)^(0+1280),f,c
 10456  004344  0E00               	movlw	0
 10457  004346  2225               	addwfc	(___flmul@prod+3)^(0+1280),f,c
 10458  004348  5014               	movf	(___flmul@a+1)^(0+1280),w,c
 10459  00434A  0211               	mulwf	(___flmul@b+2)^(0+1280),c
 10460  00434C  0061 F3CC  F526    	movff	prodl,___flmul@temp
 10461  004352  0061 F3D0  F527    	movff	prodh,___flmul@temp+1
 10462  004358  5026               	movf	___flmul@temp^(0+1280),w,c
 10463  00435A  2622               	addwf	___flmul@prod^(0+1280),f,c
 10464  00435C  5027               	movf	(___flmul@temp+1)^(0+1280),w,c
 10465  00435E  2223               	addwfc	(___flmul@prod+1)^(0+1280),f,c
 10466  004360  0E00               	movlw	0
 10467  004362  2224               	addwfc	(___flmul@prod+2)^(0+1280),f,c
 10468  004364  0E00               	movlw	0
 10469  004366  2225               	addwfc	(___flmul@prod+3)^(0+1280),f,c
 10470  004368  5015               	movf	(___flmul@a+2)^(0+1280),w,c
 10471  00436A  0211               	mulwf	(___flmul@b+2)^(0+1280),c
 10472  00436C  0061 F3CC  F526    	movff	prodl,___flmul@temp
 10473  004372  0061 F3D0  F527    	movff	prodh,___flmul@temp+1
 10474  004378  5026               	movf	___flmul@temp^(0+1280),w,c
 10475  00437A  6E17               	movwf	??___flmul^(0+1280),c
 10476  00437C  5027               	movf	(___flmul@temp+1)^(0+1280),w,c
 10477  00437E  6E18               	movwf	(??___flmul+1)^(0+1280),c
 10478  004380  6A19               	clrf	(??___flmul+2)^(0+1280),c
 10479  004382  6A1A               	clrf	(??___flmul+3)^(0+1280),c
 10480  004384  C519  F51A         	movff	??___flmul+2,??___flmul+3
 10481  004388  C518  F519         	movff	??___flmul+1,??___flmul+2
 10482  00438C  C517  F518         	movff	??___flmul,??___flmul+1
 10483  004390  6A17               	clrf	??___flmul^(0+1280),c
 10484  004392  5017               	movf	??___flmul^(0+1280),w,c
 10485  004394  2622               	addwf	___flmul@prod^(0+1280),f,c
 10486  004396  5018               	movf	(??___flmul+1)^(0+1280),w,c
 10487  004398  2223               	addwfc	(___flmul@prod+1)^(0+1280),f,c
 10488  00439A  5019               	movf	(??___flmul+2)^(0+1280),w,c
 10489  00439C  2224               	addwfc	(___flmul@prod+2)^(0+1280),f,c
 10490  00439E  501A               	movf	(??___flmul+3)^(0+1280),w,c
 10491  0043A0  2225               	addwfc	(___flmul@prod+3)^(0+1280),f,c
 10492  0043A2  C51C  F517         	movff	___flmul@grs,??___flmul
 10493  0043A6  C51D  F518         	movff	___flmul@grs+1,??___flmul+1
 10494  0043AA  C51E  F519         	movff	___flmul@grs+2,??___flmul+2
 10495  0043AE  C51F  F51A         	movff	___flmul@grs+3,??___flmul+3
 10496  0043B2  0E19               	movlw	25
 10497  0043B4  EFE1  F021         	goto	i2u407_40
 10498  0043B8                     i2u407_45:
 10499  0043B8  90D8               	bcf	status,0,c
 10500  0043BA  321A               	rrcf	(??___flmul+3)^(0+1280),f,c
 10501  0043BC  3219               	rrcf	(??___flmul+2)^(0+1280),f,c
 10502  0043BE  3218               	rrcf	(??___flmul+1)^(0+1280),f,c
 10503  0043C0  3217               	rrcf	??___flmul^(0+1280),f,c
 10504  0043C2                     i2u407_40:
 10505  0043C2  2EE8               	decfsz	wreg,f,c
 10506  0043C4  EFDC  F021         	goto	i2u407_45
 10507  0043C8  5017               	movf	??___flmul^(0+1280),w,c
 10508  0043CA  2622               	addwf	___flmul@prod^(0+1280),f,c
 10509  0043CC  5018               	movf	(??___flmul+1)^(0+1280),w,c
 10510  0043CE  2223               	addwfc	(___flmul@prod+1)^(0+1280),f,c
 10511  0043D0  5019               	movf	(??___flmul+2)^(0+1280),w,c
 10512  0043D2  2224               	addwfc	(___flmul@prod+2)^(0+1280),f,c
 10513  0043D4  501A               	movf	(??___flmul+3)^(0+1280),w,c
 10514  0043D6  2225               	addwfc	(___flmul@prod+3)^(0+1280),f,c
 10515  0043D8  C51E  F51F         	movff	___flmul@grs+2,___flmul@grs+3
 10516  0043DC  C51D  F51E         	movff	___flmul@grs+1,___flmul@grs+2
 10517  0043E0  C51C  F51D         	movff	___flmul@grs,___flmul@grs+1
 10518  0043E4  6A1C               	clrf	___flmul@grs^(0+1280),c
 10519  0043E6  5020               	movf	___flmul@aexp^(0+1280),w,c
 10520  0043E8  C521  F517         	movff	___flmul@bexp,??___flmul
 10521  0043EC  6A18               	clrf	(??___flmul+1)^(0+1280),c
 10522  0043EE  2617               	addwf	??___flmul^(0+1280),f,c
 10523  0043F0  0E00               	movlw	0
 10524  0043F2  2218               	addwfc	(??___flmul+1)^(0+1280),f,c
 10525  0043F4  0E82               	movlw	130
 10526  0043F6  2417               	addwf	??___flmul^(0+1280),w,c
 10527  0043F8  6E26               	movwf	___flmul@temp^(0+1280),c
 10528  0043FA  0EFF               	movlw	255
 10529  0043FC  2018               	addwfc	(??___flmul+1)^(0+1280),w,c
 10530  0043FE  6E27               	movwf	(___flmul@temp+1)^(0+1280),c
 10531  004400  EF17  F022         	goto	i2l4269
 10532  004404                     i2l4263:
 10533  004404  90D8               	bcf	status,0,c
 10534  004406  3622               	rlcf	___flmul@prod^(0+1280),f,c
 10535  004408  3623               	rlcf	(___flmul@prod+1)^(0+1280),f,c
 10536  00440A  3624               	rlcf	(___flmul@prod+2)^(0+1280),f,c
 10537  00440C  3625               	rlcf	(___flmul@prod+3)^(0+1280),f,c
 10538  00440E  AE1F               	btfss	(___flmul@grs+3)^(0+1280),7,c
 10539  004410  EF0C  F022         	goto	i2u408_41
 10540  004414  EF0E  F022         	goto	i2u408_40
 10541  004418                     i2u408_41:
 10542  004418  EF0F  F022         	goto	i2l1282
 10543  00441C                     i2u408_40:
 10544  00441C  8022               	bsf	___flmul@prod^(0+1280),0,c
 10545  00441E                     i2l1282:
 10546  00441E  90D8               	bcf	status,0,c
 10547  004420  361C               	rlcf	___flmul@grs^(0+1280),f,c
 10548  004422  361D               	rlcf	(___flmul@grs+1)^(0+1280),f,c
 10549  004424  361E               	rlcf	(___flmul@grs+2)^(0+1280),f,c
 10550  004426  361F               	rlcf	(___flmul@grs+3)^(0+1280),f,c
 10551  004428  0626               	decf	___flmul@temp^(0+1280),f,c
 10552  00442A  A0D8               	btfss	status,0,c
 10553  00442C  0627               	decf	(___flmul@temp+1)^(0+1280),f,c
 10554  00442E                     i2l4269:
 10555  00442E  AE24               	btfss	(___flmul@prod+2)^(0+1280),7,c
 10556  004430  EF1C  F022         	goto	i2u409_41
 10557  004434  EF1E  F022         	goto	i2u409_40
 10558  004438                     i2u409_41:
 10559  004438  EF02  F022         	goto	i2l4263
 10560  00443C                     i2u409_40:
 10561  00443C  0E00               	movlw	0
 10562  00443E  6E20               	movwf	___flmul@aexp^(0+1280),c
 10563  004440  AE1F               	btfss	(___flmul@grs+3)^(0+1280),7,c
 10564  004442  EF25  F022         	goto	i2u410_41
 10565  004446  EF27  F022         	goto	i2u410_40
 10566  00444A                     i2u410_41:
 10567  00444A  EF4B  F022         	goto	i2l1284
 10568  00444E                     i2u410_40:
 10569  00444E  0EFF               	movlw	255
 10570  004450  141C               	andwf	___flmul@grs^(0+1280),w,c
 10571  004452  6E17               	movwf	??___flmul^(0+1280),c
 10572  004454  0EFF               	movlw	255
 10573  004456  141D               	andwf	(___flmul@grs+1)^(0+1280),w,c
 10574  004458  6E18               	movwf	(??___flmul+1)^(0+1280),c
 10575  00445A  0EFF               	movlw	255
 10576  00445C  141E               	andwf	(___flmul@grs+2)^(0+1280),w,c
 10577  00445E  6E19               	movwf	(??___flmul+2)^(0+1280),c
 10578  004460  0E7F               	movlw	127
 10579  004462  141F               	andwf	(___flmul@grs+3)^(0+1280),w,c
 10580  004464  6E1A               	movwf	(??___flmul+3)^(0+1280),c
 10581  004466  5017               	movf	??___flmul^(0+1280),w,c
 10582  004468  1018               	iorwf	(??___flmul+1)^(0+1280),w,c
 10583  00446A  1019               	iorwf	(??___flmul+2)^(0+1280),w,c
 10584  00446C  101A               	iorwf	(??___flmul+3)^(0+1280),w,c
 10585  00446E  B4D8               	btfsc	status,2,c
 10586  004470  EF3C  F022         	goto	i2u411_41
 10587  004474  EF3E  F022         	goto	i2u411_40
 10588  004478                     i2u411_41:
 10589  004478  EF42  F022         	goto	i2l1285
 10590  00447C                     i2u411_40:
 10591  00447C                     i2l4277:
 10592  00447C  0E01               	movlw	1
 10593  00447E  6E20               	movwf	___flmul@aexp^(0+1280),c
 10594  004480  EF4B  F022         	goto	i2l1284
 10595  004484                     i2l1285:
 10596  004484  A022               	btfss	___flmul@prod^(0+1280),0,c
 10597  004486  EF47  F022         	goto	i2u412_41
 10598  00448A  EF49  F022         	goto	i2u412_40
 10599  00448E                     i2u412_41:
 10600  00448E  EF4B  F022         	goto	i2l1284
 10601  004492                     i2u412_40:
 10602  004492  EF3E  F022         	goto	i2l4277
 10603  004496                     i2l1284:
 10604  004496  5020               	movf	___flmul@aexp^(0+1280),w,c
 10605  004498  B4D8               	btfsc	status,2,c
 10606  00449A  EF51  F022         	goto	i2u413_41
 10607  00449E  EF53  F022         	goto	i2u413_40
 10608  0044A2                     i2u413_41:
 10609  0044A2  EF77  F022         	goto	i2l4289
 10610  0044A6                     i2u413_40:
 10611  0044A6  0E01               	movlw	1
 10612  0044A8  2622               	addwf	___flmul@prod^(0+1280),f,c
 10613  0044AA  0E00               	movlw	0
 10614  0044AC  2223               	addwfc	(___flmul@prod+1)^(0+1280),f,c
 10615  0044AE  2224               	addwfc	(___flmul@prod+2)^(0+1280),f,c
 10616  0044B0  2225               	addwfc	(___flmul@prod+3)^(0+1280),f,c
 10617  0044B2  A025               	btfss	(___flmul@prod+3)^(0+1280),0,c
 10618  0044B4  EF5E  F022         	goto	i2u414_41
 10619  0044B8  EF60  F022         	goto	i2u414_40
 10620  0044BC                     i2u414_41:
 10621  0044BC  EF77  F022         	goto	i2l4289
 10622  0044C0                     i2u414_40:
 10623  0044C0  C522  F517         	movff	___flmul@prod,??___flmul
 10624  0044C4  C523  F518         	movff	___flmul@prod+1,??___flmul+1
 10625  0044C8  C524  F519         	movff	___flmul@prod+2,??___flmul+2
 10626  0044CC  C525  F51A         	movff	___flmul@prod+3,??___flmul+3
 10627  0044D0  341A               	rlcf	(??___flmul+3)^(0+1280),w,c
 10628  0044D2  321A               	rrcf	(??___flmul+3)^(0+1280),f,c
 10629  0044D4  3219               	rrcf	(??___flmul+2)^(0+1280),f,c
 10630  0044D6  3218               	rrcf	(??___flmul+1)^(0+1280),f,c
 10631  0044D8  3217               	rrcf	??___flmul^(0+1280),f,c
 10632  0044DA  C517  F522         	movff	??___flmul,___flmul@prod
 10633  0044DE  C518  F523         	movff	??___flmul+1,___flmul@prod+1
 10634  0044E2  C519  F524         	movff	??___flmul+2,___flmul@prod+2
 10635  0044E6  C51A  F525         	movff	??___flmul+3,___flmul@prod+3
 10636  0044EA  4A26               	infsnz	___flmul@temp^(0+1280),f,c
 10637  0044EC  2A27               	incf	(___flmul@temp+1)^(0+1280),f,c
 10638  0044EE                     i2l4289:
 10639  0044EE  BE27               	btfsc	(___flmul@temp+1)^(0+1280),7,c
 10640  0044F0  EF82  F022         	goto	i2u415_41
 10641  0044F4  5027               	movf	(___flmul@temp+1)^(0+1280),w,c
 10642  0044F6  E108               	bnz	i2u415_40
 10643  0044F8  2826               	incf	___flmul@temp^(0+1280),w,c
 10644  0044FA  A0D8               	btfss	status,0,c
 10645  0044FC  EF82  F022         	goto	i2u415_41
 10646  004500  EF84  F022         	goto	i2u415_40
 10647  004504                     i2u415_41:
 10648  004504  EF8E  F022         	goto	i2l4293
 10649  004508                     i2u415_40:
 10650  004508  0E00               	movlw	0
 10651  00450A  6E22               	movwf	___flmul@prod^(0+1280),c
 10652  00450C  0E00               	movlw	0
 10653  00450E  6E23               	movwf	(___flmul@prod+1)^(0+1280),c
 10654  004510  0E80               	movlw	128
 10655  004512  6E24               	movwf	(___flmul@prod+2)^(0+1280),c
 10656  004514  0E7F               	movlw	127
 10657  004516  6E25               	movwf	(___flmul@prod+3)^(0+1280),c
 10658  004518  EFBC  F022         	goto	i2l4305
 10659  00451C                     i2l4293:
 10660  00451C  BE27               	btfsc	(___flmul@temp+1)^(0+1280),7,c
 10661  00451E  EF9B  F022         	goto	i2u416_40
 10662  004522  5027               	movf	(___flmul@temp+1)^(0+1280),w,c
 10663  004524  E106               	bnz	i2u416_41
 10664  004526  0426               	decf	___flmul@temp^(0+1280),w,c
 10665  004528  B0D8               	btfsc	status,0,c
 10666  00452A  EF99  F022         	goto	i2u416_41
 10667  00452E  EF9B  F022         	goto	i2u416_40
 10668  004532                     i2u416_41:
 10669  004532  EFA7  F022         	goto	i2l1292
 10670  004536                     i2u416_40:
 10671  004536  0E00               	movlw	0
 10672  004538  6E22               	movwf	___flmul@prod^(0+1280),c
 10673  00453A  0E00               	movlw	0
 10674  00453C  6E23               	movwf	(___flmul@prod+1)^(0+1280),c
 10675  00453E  0E00               	movlw	0
 10676  004540  6E24               	movwf	(___flmul@prod+2)^(0+1280),c
 10677  004542  0E00               	movlw	0
 10678  004544  6E25               	movwf	(___flmul@prod+3)^(0+1280),c
 10679  004546  0E00               	movlw	0
 10680  004548  6E1B               	movwf	___flmul@sign^(0+1280),c
 10681  00454A  EFBC  F022         	goto	i2l4305
 10682  00454E                     i2l1292:
 10683  00454E  C526  F521         	movff	___flmul@temp,___flmul@bexp
 10684  004552  0EFF               	movlw	255
 10685  004554  1622               	andwf	___flmul@prod^(0+1280),f,c
 10686  004556  0EFF               	movlw	255
 10687  004558  1623               	andwf	(___flmul@prod+1)^(0+1280),f,c
 10688  00455A  0E7F               	movlw	127
 10689  00455C  1624               	andwf	(___flmul@prod+2)^(0+1280),f,c
 10690  00455E  0E00               	movlw	0
 10691  004560  1625               	andwf	(___flmul@prod+3)^(0+1280),f,c
 10692  004562  A021               	btfss	___flmul@bexp^(0+1280),0,c
 10693  004564  EFB6  F022         	goto	i2u417_41
 10694  004568  EFB8  F022         	goto	i2u417_40
 10695  00456C                     i2u417_41:
 10696  00456C  EFB9  F022         	goto	i2l4303
 10697  004570                     i2u417_40:
 10698  004570  8E24               	bsf	(___flmul@prod+2)^(0+1280),7,c
 10699  004572                     i2l4303:
 10700  004572  90D8               	bcf	status,0,c
 10701  004574  3021               	rrcf	___flmul@bexp^(0+1280),w,c
 10702  004576  6E25               	movwf	(___flmul@prod+3)^(0+1280),c
 10703  004578                     i2l4305:
 10704  004578  501B               	movf	___flmul@sign^(0+1280),w,c
 10705  00457A  1225               	iorwf	(___flmul@prod+3)^(0+1280),f,c
 10706  00457C  C522  F50F         	movff	___flmul@prod,?___flmul
 10707  004580  C523  F510         	movff	___flmul@prod+1,?___flmul+1
 10708  004584  C524  F511         	movff	___flmul@prod+2,?___flmul+2
 10709  004588  C525  F512         	movff	___flmul@prod+3,?___flmul+3
 10710  00458C                     i2l1279:
 10711  00458C  0012               	return		;funcret
 10712  00458E                     __end_of___flmul:
 10713                           	callstack 0
 10714                           
 10715 ;; *************** function ___flge *****************
 10716 ;; Defined at:
 10717 ;;		line 4 in file "C:\Program Files\Microchip\xc8\v2.32\pic\sources\c99\common\flge.c"
 10718 ;; Parameters:    Size  Location     Type
 10719 ;;  ff1             4   39[COMRAM] unsigned char 
 10720 ;;  ff2             4   43[COMRAM] unsigned char 
 10721 ;; Auto vars:     Size  Location     Type
 10722 ;;		None
 10723 ;; Return value:  Size  Location     Type
 10724 ;;		None               void
 10725 ;; Registers used:
 10726 ;;		wreg, status,2, status,0
 10727 ;; Tracked objects:
 10728 ;;		On entry : 0/0
 10729 ;;		On exit  : 0/0
 10730 ;;		Unchanged: 0/0
 10731 ;; Data sizes:     COMRAM   BANK5   BANK6   BANK7   BANK8   BANK9  BANK10  BANK11  BANK12  BANK13  BANK14  BANK15  BANK1
      +6  BANK17  BANK18  BANK19  BANK20  BANK21  BANK22  BANK23  BANK24  BANK25  BANK26  BANK27  BANK28  BANK29  BANK30  BANK3
      +1  BANK32  BANK33  BANK34  BANK35  BANK36  BANK37
 10732 ;;      Params:         8       0       0       0       0       0       0       0       0       0       0       0       
      +0       0       0       0       0       0       0       0       0       0       0       0       0       0       0       
      +0       0       0       0       0       0       0
 10733 ;;      Locals:         0       0       0       0       0       0       0       0       0       0       0       0       
      +0       0       0       0       0       0       0       0       0       0       0       0       0       0       0       
      +0       0       0       0       0       0       0
 10734 ;;      Temps:          4       0       0       0       0       0       0       0       0       0       0       0       
      +0       0       0       0       0       0       0       0       0       0       0       0       0       0       0       
      +0       0       0       0       0       0       0
 10735 ;;      Totals:        12       0       0       0       0       0       0       0       0       0       0       0       
      +0       0       0       0       0       0       0       0       0       0       0       0       0       0       0       
      +0       0       0       0       0       0       0
 10736 ;;Total ram usage:       12 bytes
 10737 ;; Hardware stack levels used: 1
 10738 ;; This function calls:
 10739 ;;		Nothing
 10740 ;; This function is called by:
 10741 ;;		_efgtoa
 10742 ;; This function uses a non-reentrant model
 10743 ;;
 10744                           
 10745                           	psect	text55
 10746  005618                     __ptext55:
 10747                           	callstack 0
 10748  005618                     ___flge:
 10749                           	callstack 117
 10750  005618  0E00               	movlw	0
 10751  00561A  1428               	andwf	___flge@ff1^(0+1280),w,c
 10752  00561C  6E30               	movwf	??___flge^(0+1280),c
 10753  00561E  0E00               	movlw	0
 10754  005620  1429               	andwf	(___flge@ff1+1)^(0+1280),w,c
 10755  005622  6E31               	movwf	(??___flge+1)^(0+1280),c
 10756  005624  0E80               	movlw	128
 10757  005626  142A               	andwf	(___flge@ff1+2)^(0+1280),w,c
 10758  005628  6E32               	movwf	(??___flge+2)^(0+1280),c
 10759  00562A  0E7F               	movlw	127
 10760  00562C  142B               	andwf	(___flge@ff1+3)^(0+1280),w,c
 10761  00562E  6E33               	movwf	(??___flge+3)^(0+1280),c
 10762  005630  5030               	movf	??___flge^(0+1280),w,c
 10763  005632  1031               	iorwf	(??___flge+1)^(0+1280),w,c
 10764  005634  1032               	iorwf	(??___flge+2)^(0+1280),w,c
 10765  005636  1033               	iorwf	(??___flge+3)^(0+1280),w,c
 10766  005638  A4D8               	btfss	status,2,c
 10767  00563A  EF21  F02B         	goto	i2u433_41
 10768  00563E  EF23  F02B         	goto	i2u433_40
 10769  005642                     i2u433_41:
 10770  005642  EF2B  F02B         	goto	i2l4417
 10771  005646                     i2u433_40:
 10772  005646  0E00               	movlw	0
 10773  005648  6E28               	movwf	___flge@ff1^(0+1280),c
 10774  00564A  0E00               	movlw	0
 10775  00564C  6E29               	movwf	(___flge@ff1+1)^(0+1280),c
 10776  00564E  0E00               	movlw	0
 10777  005650  6E2A               	movwf	(___flge@ff1+2)^(0+1280),c
 10778  005652  0E00               	movlw	0
 10779  005654  6E2B               	movwf	(___flge@ff1+3)^(0+1280),c
 10780  005656                     i2l4417:
 10781  005656  0E00               	movlw	0
 10782  005658  142C               	andwf	___flge@ff2^(0+1280),w,c
 10783  00565A  6E30               	movwf	??___flge^(0+1280),c
 10784  00565C  0E00               	movlw	0
 10785  00565E  142D               	andwf	(___flge@ff2+1)^(0+1280),w,c
 10786  005660  6E31               	movwf	(??___flge+1)^(0+1280),c
 10787  005662  0E80               	movlw	128
 10788  005664  142E               	andwf	(___flge@ff2+2)^(0+1280),w,c
 10789  005666  6E32               	movwf	(??___flge+2)^(0+1280),c
 10790  005668  0E7F               	movlw	127
 10791  00566A  142F               	andwf	(___flge@ff2+3)^(0+1280),w,c
 10792  00566C  6E33               	movwf	(??___flge+3)^(0+1280),c
 10793  00566E  5030               	movf	??___flge^(0+1280),w,c
 10794  005670  1031               	iorwf	(??___flge+1)^(0+1280),w,c
 10795  005672  1032               	iorwf	(??___flge+2)^(0+1280),w,c
 10796  005674  1033               	iorwf	(??___flge+3)^(0+1280),w,c
 10797  005676  A4D8               	btfss	status,2,c
 10798  005678  EF40  F02B         	goto	i2u434_41
 10799  00567C  EF42  F02B         	goto	i2u434_40
 10800  005680                     i2u434_41:
 10801  005680  EF4A  F02B         	goto	i2l4421
 10802  005684                     i2u434_40:
 10803  005684  0E00               	movlw	0
 10804  005686  6E2C               	movwf	___flge@ff2^(0+1280),c
 10805  005688  0E00               	movlw	0
 10806  00568A  6E2D               	movwf	(___flge@ff2+1)^(0+1280),c
 10807  00568C  0E00               	movlw	0
 10808  00568E  6E2E               	movwf	(___flge@ff2+2)^(0+1280),c
 10809  005690  0E00               	movlw	0
 10810  005692  6E2F               	movwf	(___flge@ff2+3)^(0+1280),c
 10811  005694                     i2l4421:
 10812  005694  AE2B               	btfss	(___flge@ff1+3)^(0+1280),7,c
 10813  005696  EF4F  F02B         	goto	i2u435_41
 10814  00569A  EF51  F02B         	goto	i2u435_40
 10815  00569E                     i2u435_41:
 10816  00569E  EF5A  F02B         	goto	i2l4425
 10817  0056A2                     i2u435_40:
 10818  0056A2  6C28               	negf	___flge@ff1^(0+1280),c
 10819  0056A4  1E29               	comf	(___flge@ff1+1)^(0+1280),f,c
 10820  0056A6  B0D8               	btfsc	status,0,c
 10821  0056A8  2A29               	incf	(___flge@ff1+1)^(0+1280),f,c
 10822  0056AA  1E2A               	comf	(___flge@ff1+2)^(0+1280),f,c
 10823  0056AC  B0D8               	btfsc	status,0,c
 10824  0056AE  2A2A               	incf	(___flge@ff1+2)^(0+1280),f,c
 10825  0056B0  0E80               	movlw	128
 10826  0056B2  562B               	subfwb	(___flge@ff1+3)^(0+1280),f,c
 10827  0056B4                     i2l4425:
 10828  0056B4  AE2F               	btfss	(___flge@ff2+3)^(0+1280),7,c
 10829  0056B6  EF5F  F02B         	goto	i2u436_41
 10830  0056BA  EF61  F02B         	goto	i2u436_40
 10831  0056BE                     i2u436_41:
 10832  0056BE  EF6A  F02B         	goto	i2l926
 10833  0056C2                     i2u436_40:
 10834  0056C2  6C2C               	negf	___flge@ff2^(0+1280),c
 10835  0056C4  1E2D               	comf	(___flge@ff2+1)^(0+1280),f,c
 10836  0056C6  B0D8               	btfsc	status,0,c
 10837  0056C8  2A2D               	incf	(___flge@ff2+1)^(0+1280),f,c
 10838  0056CA  1E2E               	comf	(___flge@ff2+2)^(0+1280),f,c
 10839  0056CC  B0D8               	btfsc	status,0,c
 10840  0056CE  2A2E               	incf	(___flge@ff2+2)^(0+1280),f,c
 10841  0056D0  0E80               	movlw	128
 10842  0056D2  562F               	subfwb	(___flge@ff2+3)^(0+1280),f,c
 10843  0056D4                     i2l926:
 10844  0056D4  0E00               	movlw	0
 10845  0056D6  1A28               	xorwf	___flge@ff1^(0+1280),f,c
 10846  0056D8  0E00               	movlw	0
 10847  0056DA  1A29               	xorwf	(___flge@ff1+1)^(0+1280),f,c
 10848  0056DC  0E00               	movlw	0
 10849  0056DE  1A2A               	xorwf	(___flge@ff1+2)^(0+1280),f,c
 10850  0056E0  0E80               	movlw	128
 10851  0056E2  1A2B               	xorwf	(___flge@ff1+3)^(0+1280),f,c
 10852  0056E4  0E00               	movlw	0
 10853  0056E6  1A2C               	xorwf	___flge@ff2^(0+1280),f,c
 10854  0056E8  0E00               	movlw	0
 10855  0056EA  1A2D               	xorwf	(___flge@ff2+1)^(0+1280),f,c
 10856  0056EC  0E00               	movlw	0
 10857  0056EE  1A2E               	xorwf	(___flge@ff2+2)^(0+1280),f,c
 10858  0056F0  0E80               	movlw	128
 10859  0056F2  1A2F               	xorwf	(___flge@ff2+3)^(0+1280),f,c
 10860  0056F4  502C               	movf	___flge@ff2^(0+1280),w,c
 10861  0056F6  5C28               	subwf	___flge@ff1^(0+1280),w,c
 10862  0056F8  502D               	movf	(___flge@ff2+1)^(0+1280),w,c
 10863  0056FA  5829               	subwfb	(___flge@ff1+1)^(0+1280),w,c
 10864  0056FC  502E               	movf	(___flge@ff2+2)^(0+1280),w,c
 10865  0056FE  582A               	subwfb	(___flge@ff1+2)^(0+1280),w,c
 10866  005700  502F               	movf	(___flge@ff2+3)^(0+1280),w,c
 10867  005702  582B               	subwfb	(___flge@ff1+3)^(0+1280),w,c
 10868  005704  B0D8               	btfsc	status,0,c
 10869  005706  EF87  F02B         	goto	i2u437_41
 10870  00570A  EF89  F02B         	goto	i2u437_40
 10871  00570E                     i2u437_41:
 10872  00570E  EF8C  F02B         	goto	i2l4431
 10873  005712                     i2u437_40:
 10874  005712  90D8               	bcf	status,0,c
 10875  005714  EF8D  F02B         	goto	i2l931
 10876  005718                     i2l4431:
 10877  005718  80D8               	bsf	status,0,c
 10878  00571A                     i2l931:
 10879  00571A  0012               	return		;funcret
 10880  00571C                     __end_of___flge:
 10881                           	callstack 0
 10882                           
 10883 ;; *************** function ___fleq *****************
 10884 ;; Defined at:
 10885 ;;		line 4 in file "C:\Program Files\Microchip\xc8\v2.32\pic\sources\c99\common\fleq.c"
 10886 ;; Parameters:    Size  Location     Type
 10887 ;;  ff1             4    0[COMRAM] unsigned char 
 10888 ;;  ff2             4    4[COMRAM] unsigned char 
 10889 ;; Auto vars:     Size  Location     Type
 10890 ;;		None
 10891 ;; Return value:  Size  Location     Type
 10892 ;;		None               void
 10893 ;; Registers used:
 10894 ;;		wreg, status,2, status,0
 10895 ;; Tracked objects:
 10896 ;;		On entry : 0/0
 10897 ;;		On exit  : 0/0
 10898 ;;		Unchanged: 0/0
 10899 ;; Data sizes:     COMRAM   BANK5   BANK6   BANK7   BANK8   BANK9  BANK10  BANK11  BANK12  BANK13  BANK14  BANK15  BANK1
      +6  BANK17  BANK18  BANK19  BANK20  BANK21  BANK22  BANK23  BANK24  BANK25  BANK26  BANK27  BANK28  BANK29  BANK30  BANK3
      +1  BANK32  BANK33  BANK34  BANK35  BANK36  BANK37
 10900 ;;      Params:         8       0       0       0       0       0       0       0       0       0       0       0       
      +0       0       0       0       0       0       0       0       0       0       0       0       0       0       0       
      +0       0       0       0       0       0       0
 10901 ;;      Locals:         0       0       0       0       0       0       0       0       0       0       0       0       
      +0       0       0       0       0       0       0       0       0       0       0       0       0       0       0       
      +0       0       0       0       0       0       0
 10902 ;;      Temps:          4       0       0       0       0       0       0       0       0       0       0       0       
      +0       0       0       0       0       0       0       0       0       0       0       0       0       0       0       
      +0       0       0       0       0       0       0
 10903 ;;      Totals:        12       0       0       0       0       0       0       0       0       0       0       0       
      +0       0       0       0       0       0       0       0       0       0       0       0       0       0       0       
      +0       0       0       0       0       0       0
 10904 ;;Total ram usage:       12 bytes
 10905 ;; Hardware stack levels used: 1
 10906 ;; This function calls:
 10907 ;;		Nothing
 10908 ;; This function is called by:
 10909 ;;		_efgtoa
 10910 ;; This function uses a non-reentrant model
 10911 ;;
 10912                           
 10913                           	psect	text56
 10914  005F90                     __ptext56:
 10915                           	callstack 0
 10916  005F90                     ___fleq:
 10917                           	callstack 117
 10918  005F90  0E00               	movlw	0
 10919  005F92  1401               	andwf	___fleq@ff1^(0+1280),w,c
 10920  005F94  6E09               	movwf	??___fleq^(0+1280),c
 10921  005F96  0E00               	movlw	0
 10922  005F98  1402               	andwf	(___fleq@ff1+1)^(0+1280),w,c
 10923  005F9A  6E0A               	movwf	(??___fleq+1)^(0+1280),c
 10924  005F9C  0E80               	movlw	128
 10925  005F9E  1403               	andwf	(___fleq@ff1+2)^(0+1280),w,c
 10926  005FA0  6E0B               	movwf	(??___fleq+2)^(0+1280),c
 10927  005FA2  0E7F               	movlw	127
 10928  005FA4  1404               	andwf	(___fleq@ff1+3)^(0+1280),w,c
 10929  005FA6  6E0C               	movwf	(??___fleq+3)^(0+1280),c
 10930  005FA8  5009               	movf	??___fleq^(0+1280),w,c
 10931  005FAA  100A               	iorwf	(??___fleq+1)^(0+1280),w,c
 10932  005FAC  100B               	iorwf	(??___fleq+2)^(0+1280),w,c
 10933  005FAE  100C               	iorwf	(??___fleq+3)^(0+1280),w,c
 10934  005FB0  A4D8               	btfss	status,2,c
 10935  005FB2  EFDD  F02F         	goto	i2u430_41
 10936  005FB6  EFDF  F02F         	goto	i2u430_40
 10937  005FBA                     i2u430_41:
 10938  005FBA  EFE7  F02F         	goto	i2l4401
 10939  005FBE                     i2u430_40:
 10940  005FBE  0E00               	movlw	0
 10941  005FC0  6E01               	movwf	___fleq@ff1^(0+1280),c
 10942  005FC2  0E00               	movlw	0
 10943  005FC4  6E02               	movwf	(___fleq@ff1+1)^(0+1280),c
 10944  005FC6  0E00               	movlw	0
 10945  005FC8  6E03               	movwf	(___fleq@ff1+2)^(0+1280),c
 10946  005FCA  0E00               	movlw	0
 10947  005FCC  6E04               	movwf	(___fleq@ff1+3)^(0+1280),c
 10948  005FCE                     i2l4401:
 10949  005FCE  0E00               	movlw	0
 10950  005FD0  1405               	andwf	___fleq@ff2^(0+1280),w,c
 10951  005FD2  6E09               	movwf	??___fleq^(0+1280),c
 10952  005FD4  0E00               	movlw	0
 10953  005FD6  1406               	andwf	(___fleq@ff2+1)^(0+1280),w,c
 10954  005FD8  6E0A               	movwf	(??___fleq+1)^(0+1280),c
 10955  005FDA  0E80               	movlw	128
 10956  005FDC  1407               	andwf	(___fleq@ff2+2)^(0+1280),w,c
 10957  005FDE  6E0B               	movwf	(??___fleq+2)^(0+1280),c
 10958  005FE0  0E7F               	movlw	127
 10959  005FE2  1408               	andwf	(___fleq@ff2+3)^(0+1280),w,c
 10960  005FE4  6E0C               	movwf	(??___fleq+3)^(0+1280),c
 10961  005FE6  5009               	movf	??___fleq^(0+1280),w,c
 10962  005FE8  100A               	iorwf	(??___fleq+1)^(0+1280),w,c
 10963  005FEA  100B               	iorwf	(??___fleq+2)^(0+1280),w,c
 10964  005FEC  100C               	iorwf	(??___fleq+3)^(0+1280),w,c
 10965  005FEE  A4D8               	btfss	status,2,c
 10966  005FF0  EFFC  F02F         	goto	i2u431_41
 10967  005FF4  EFFE  F02F         	goto	i2u431_40
 10968  005FF8                     i2u431_41:
 10969  005FF8  EF06  F030         	goto	i2l4405
 10970  005FFC                     i2u431_40:
 10971  005FFC  0E00               	movlw	0
 10972  005FFE  6E05               	movwf	___fleq@ff2^(0+1280),c
 10973  006000  0E00               	movlw	0
 10974  006002  6E06               	movwf	(___fleq@ff2+1)^(0+1280),c
 10975  006004  0E00               	movlw	0
 10976  006006  6E07               	movwf	(___fleq@ff2+2)^(0+1280),c
 10977  006008  0E00               	movlw	0
 10978  00600A  6E08               	movwf	(___fleq@ff2+3)^(0+1280),c
 10979  00600C                     i2l4405:
 10980  00600C  5005               	movf	___fleq@ff2^(0+1280),w,c
 10981  00600E  1801               	xorwf	___fleq@ff1^(0+1280),w,c
 10982  006010  E10F               	bnz	i2u432_40
 10983  006012  5006               	movf	(___fleq@ff2+1)^(0+1280),w,c
 10984  006014  1802               	xorwf	(___fleq@ff1+1)^(0+1280),w,c
 10985  006016  E10C               	bnz	i2u432_40
 10986  006018  5007               	movf	(___fleq@ff2+2)^(0+1280),w,c
 10987  00601A  1803               	xorwf	(___fleq@ff1+2)^(0+1280),w,c
 10988  00601C  E109               	bnz	i2u432_40
 10989  00601E  5008               	movf	(___fleq@ff2+3)^(0+1280),w,c
 10990  006020  1804               	xorwf	(___fleq@ff1+3)^(0+1280),w,c
 10991  006022  B4D8               	btfsc	status,2,c
 10992  006024  EF16  F030         	goto	i2u432_41
 10993  006028  EF18  F030         	goto	i2u432_40
 10994  00602C                     i2u432_41:
 10995  00602C  EF1B  F030         	goto	i2l4409
 10996  006030                     i2u432_40:
 10997  006030  90D8               	bcf	status,0,c
 10998  006032  EF1C  F030         	goto	i2l920
 10999  006036                     i2l4409:
 11000  006036  80D8               	bsf	status,0,c
 11001  006038                     i2l920:
 11002  006038  0012               	return		;funcret
 11003  00603A                     __end_of___fleq:
 11004                           	callstack 0
 11005                           
 11006 ;; *************** function ___fldiv *****************
 11007 ;; Defined at:
 11008 ;;		line 11 in file "C:\Program Files\Microchip\xc8\v2.32\pic\sources\c99\common\sprcdiv.c"
 11009 ;; Parameters:    Size  Location     Type
 11010 ;;  b               4    0[COMRAM] unsigned char 
 11011 ;;  a               4    4[COMRAM] unsigned char 
 11012 ;; Auto vars:     Size  Location     Type
 11013 ;;  grs             4   19[COMRAM] unsigned long 
 11014 ;;  rem             4   12[COMRAM] unsigned long 
 11015 ;;  new_exp         2   17[COMRAM] short 
 11016 ;;  aexp            1   24[COMRAM] unsigned char 
 11017 ;;  bexp            1   23[COMRAM] unsigned char 
 11018 ;;  sign            1   16[COMRAM] unsigned char 
 11019 ;; Return value:  Size  Location     Type
 11020 ;;                  4    0[COMRAM] unsigned char 
 11021 ;; Registers used:
 11022 ;;		wreg, status,2, status,0
 11023 ;; Tracked objects:
 11024 ;;		On entry : 0/0
 11025 ;;		On exit  : 0/0
 11026 ;;		Unchanged: 0/0
 11027 ;; Data sizes:     COMRAM   BANK5   BANK6   BANK7   BANK8   BANK9  BANK10  BANK11  BANK12  BANK13  BANK14  BANK15  BANK1
      +6  BANK17  BANK18  BANK19  BANK20  BANK21  BANK22  BANK23  BANK24  BANK25  BANK26  BANK27  BANK28  BANK29  BANK30  BANK3
      +1  BANK32  BANK33  BANK34  BANK35  BANK36  BANK37
 11028 ;;      Params:         8       0       0       0       0       0       0       0       0       0       0       0       
      +0       0       0       0       0       0       0       0       0       0       0       0       0       0       0       
      +0       0       0       0       0       0       0
 11029 ;;      Locals:        13       0       0       0       0       0       0       0       0       0       0       0       
      +0       0       0       0       0       0       0       0       0       0       0       0       0       0       0       
      +0       0       0       0       0       0       0
 11030 ;;      Temps:          4       0       0       0       0       0       0       0       0       0       0       0       
      +0       0       0       0       0       0       0       0       0       0       0       0       0       0       0       
      +0       0       0       0       0       0       0
 11031 ;;      Totals:        25       0       0       0       0       0       0       0       0       0       0       0       
      +0       0       0       0       0       0       0       0       0       0       0       0       0       0       0       
      +0       0       0       0       0       0       0
 11032 ;;Total ram usage:       25 bytes
 11033 ;; Hardware stack levels used: 1
 11034 ;; This function calls:
 11035 ;;		Nothing
 11036 ;; This function is called by:
 11037 ;;		_efgtoa
 11038 ;; This function uses a non-reentrant model
 11039 ;;
 11040                           
 11041                           	psect	text57
 11042  00458E                     __ptext57:
 11043                           	callstack 0
 11044  00458E                     ___fldiv:
 11045                           	callstack 117
 11046  00458E  5004               	movf	(___fldiv@b+3)^(0+1280),w,c
 11047  004590  0B80               	andlw	128
 11048  004592  6E11               	movwf	___fldiv@sign^(0+1280),c
 11049  004594  5004               	movf	(___fldiv@b+3)^(0+1280),w,c
 11050  004596  2404               	addwf	(___fldiv@b+3)^(0+1280),w,c
 11051  004598  6E18               	movwf	___fldiv@bexp^(0+1280),c
 11052  00459A  AE03               	btfss	(___fldiv@b+2)^(0+1280),7,c
 11053  00459C  EFD2  F022         	goto	i2u376_41
 11054  0045A0  EFD4  F022         	goto	i2u376_40
 11055  0045A4                     i2u376_41:
 11056  0045A4  EFD5  F022         	goto	i2l4049
 11057  0045A8                     i2u376_40:
 11058  0045A8  8018               	bsf	___fldiv@bexp^(0+1280),0,c
 11059  0045AA                     i2l4049:
 11060  0045AA  5018               	movf	___fldiv@bexp^(0+1280),w,c
 11061  0045AC  B4D8               	btfsc	status,2,c
 11062  0045AE  EFDB  F022         	goto	i2u377_41
 11063  0045B2  EFDD  F022         	goto	i2u377_40
 11064  0045B6                     i2u377_41:
 11065  0045B6  EFF2  F022         	goto	i2l4059
 11066  0045BA                     i2u377_40:
 11067  0045BA  2818               	incf	___fldiv@bexp^(0+1280),w,c
 11068  0045BC  A4D8               	btfss	status,2,c
 11069  0045BE  EFE3  F022         	goto	i2u378_41
 11070  0045C2  EFE5  F022         	goto	i2u378_40
 11071  0045C6                     i2u378_41:
 11072  0045C6  EFED  F022         	goto	i2l4055
 11073  0045CA                     i2u378_40:
 11074  0045CA  0E00               	movlw	0
 11075  0045CC  6E01               	movwf	___fldiv@b^(0+1280),c
 11076  0045CE  0E00               	movlw	0
 11077  0045D0  6E02               	movwf	(___fldiv@b+1)^(0+1280),c
 11078  0045D2  0E00               	movlw	0
 11079  0045D4  6E03               	movwf	(___fldiv@b+2)^(0+1280),c
 11080  0045D6  0E00               	movlw	0
 11081  0045D8  6E04               	movwf	(___fldiv@b+3)^(0+1280),c
 11082  0045DA                     i2l4055:
 11083  0045DA  8E03               	bsf	(___fldiv@b+2)^(0+1280),7,c
 11084  0045DC  0E00               	movlw	0
 11085  0045DE  6E04               	movwf	(___fldiv@b+3)^(0+1280),c
 11086  0045E0  EFFA  F022         	goto	i2l4061
 11087  0045E4                     i2l4059:
 11088  0045E4  0E00               	movlw	0
 11089  0045E6  6E01               	movwf	___fldiv@b^(0+1280),c
 11090  0045E8  0E00               	movlw	0
 11091  0045EA  6E02               	movwf	(___fldiv@b+1)^(0+1280),c
 11092  0045EC  0E00               	movlw	0
 11093  0045EE  6E03               	movwf	(___fldiv@b+2)^(0+1280),c
 11094  0045F0  0E00               	movlw	0
 11095  0045F2  6E04               	movwf	(___fldiv@b+3)^(0+1280),c
 11096  0045F4                     i2l4061:
 11097  0045F4  5008               	movf	(___fldiv@a+3)^(0+1280),w,c
 11098  0045F6  0B80               	andlw	128
 11099  0045F8  1A11               	xorwf	___fldiv@sign^(0+1280),f,c
 11100  0045FA  5008               	movf	(___fldiv@a+3)^(0+1280),w,c
 11101  0045FC  2408               	addwf	(___fldiv@a+3)^(0+1280),w,c
 11102  0045FE  6E19               	movwf	___fldiv@aexp^(0+1280),c
 11103  004600  AE07               	btfss	(___fldiv@a+2)^(0+1280),7,c
 11104  004602  EF05  F023         	goto	i2u379_41
 11105  004606  EF07  F023         	goto	i2u379_40
 11106  00460A                     i2u379_41:
 11107  00460A  EF08  F023         	goto	i2l4069
 11108  00460E                     i2u379_40:
 11109  00460E  8019               	bsf	___fldiv@aexp^(0+1280),0,c
 11110  004610                     i2l4069:
 11111  004610  5019               	movf	___fldiv@aexp^(0+1280),w,c
 11112  004612  B4D8               	btfsc	status,2,c
 11113  004614  EF0E  F023         	goto	i2u380_41
 11114  004618  EF10  F023         	goto	i2u380_40
 11115  00461C                     i2u380_41:
 11116  00461C  EF25  F023         	goto	i2l4079
 11117  004620                     i2u380_40:
 11118  004620  2819               	incf	___fldiv@aexp^(0+1280),w,c
 11119  004622  A4D8               	btfss	status,2,c
 11120  004624  EF16  F023         	goto	i2u381_41
 11121  004628  EF18  F023         	goto	i2u381_40
 11122  00462C                     i2u381_41:
 11123  00462C  EF20  F023         	goto	i2l4075
 11124  004630                     i2u381_40:
 11125  004630  0E00               	movlw	0
 11126  004632  6E05               	movwf	___fldiv@a^(0+1280),c
 11127  004634  0E00               	movlw	0
 11128  004636  6E06               	movwf	(___fldiv@a+1)^(0+1280),c
 11129  004638  0E00               	movlw	0
 11130  00463A  6E07               	movwf	(___fldiv@a+2)^(0+1280),c
 11131  00463C  0E00               	movlw	0
 11132  00463E  6E08               	movwf	(___fldiv@a+3)^(0+1280),c
 11133  004640                     i2l4075:
 11134  004640  8E07               	bsf	(___fldiv@a+2)^(0+1280),7,c
 11135  004642  0E00               	movlw	0
 11136  004644  6E08               	movwf	(___fldiv@a+3)^(0+1280),c
 11137  004646  EF2D  F023         	goto	i2l4081
 11138  00464A                     i2l4079:
 11139  00464A  0E00               	movlw	0
 11140  00464C  6E05               	movwf	___fldiv@a^(0+1280),c
 11141  00464E  0E00               	movlw	0
 11142  004650  6E06               	movwf	(___fldiv@a+1)^(0+1280),c
 11143  004652  0E00               	movlw	0
 11144  004654  6E07               	movwf	(___fldiv@a+2)^(0+1280),c
 11145  004656  0E00               	movlw	0
 11146  004658  6E08               	movwf	(___fldiv@a+3)^(0+1280),c
 11147  00465A                     i2l4081:
 11148  00465A  5005               	movf	___fldiv@a^(0+1280),w,c
 11149  00465C  1006               	iorwf	(___fldiv@a+1)^(0+1280),w,c
 11150  00465E  1007               	iorwf	(___fldiv@a+2)^(0+1280),w,c
 11151  004660  1008               	iorwf	(___fldiv@a+3)^(0+1280),w,c
 11152  004662  A4D8               	btfss	status,2,c
 11153  004664  EF36  F023         	goto	i2u382_41
 11154  004668  EF38  F023         	goto	i2u382_40
 11155  00466C                     i2u382_41:
 11156  00466C  EF50  F023         	goto	i2l4093
 11157  004670                     i2u382_40:
 11158  004670  0E00               	movlw	0
 11159  004672  6E01               	movwf	___fldiv@b^(0+1280),c
 11160  004674  0E00               	movlw	0
 11161  004676  6E02               	movwf	(___fldiv@b+1)^(0+1280),c
 11162  004678  0E00               	movlw	0
 11163  00467A  6E03               	movwf	(___fldiv@b+2)^(0+1280),c
 11164  00467C  0E00               	movlw	0
 11165  00467E  6E04               	movwf	(___fldiv@b+3)^(0+1280),c
 11166  004680  0E80               	movlw	128
 11167  004682  1203               	iorwf	(___fldiv@b+2)^(0+1280),f,c
 11168  004684  0E7F               	movlw	127
 11169  004686  1204               	iorwf	(___fldiv@b+3)^(0+1280),f,c
 11170  004688                     i2l4087:
 11171  004688  5011               	movf	___fldiv@sign^(0+1280),w,c
 11172  00468A  1204               	iorwf	(___fldiv@b+3)^(0+1280),f,c
 11173  00468C  C501  F501         	movff	___fldiv@b,?___fldiv
 11174  004690  C502  F502         	movff	___fldiv@b+1,?___fldiv+1
 11175  004694  C503  F503         	movff	___fldiv@b+2,?___fldiv+2
 11176  004698  C504  F504         	movff	___fldiv@b+3,?___fldiv+3
 11177  00469C  EF93  F024         	goto	i2l1243
 11178  0046A0                     i2l4093:
 11179  0046A0  5018               	movf	___fldiv@bexp^(0+1280),w,c
 11180  0046A2  A4D8               	btfss	status,2,c
 11181  0046A4  EF56  F023         	goto	i2u383_41
 11182  0046A8  EF58  F023         	goto	i2u383_40
 11183  0046AC                     i2u383_41:
 11184  0046AC  EF62  F023         	goto	i2l4101
 11185  0046B0                     i2u383_40:
 11186  0046B0  0E00               	movlw	0
 11187  0046B2  6E01               	movwf	?___fldiv^(0+1280),c
 11188  0046B4  0E00               	movlw	0
 11189  0046B6  6E02               	movwf	(?___fldiv+1)^(0+1280),c
 11190  0046B8  0E00               	movlw	0
 11191  0046BA  6E03               	movwf	(?___fldiv+2)^(0+1280),c
 11192  0046BC  0E00               	movlw	0
 11193  0046BE  6E04               	movwf	(?___fldiv+3)^(0+1280),c
 11194  0046C0  EF93  F024         	goto	i2l1243
 11195  0046C4                     i2l4101:
 11196  0046C4  5019               	movf	___fldiv@aexp^(0+1280),w,c
 11197  0046C6  C518  F509         	movff	___fldiv@bexp,??___fldiv
 11198  0046CA  6A0A               	clrf	(??___fldiv+1)^(0+1280),c
 11199  0046CC  5E09               	subwf	??___fldiv^(0+1280),f,c
 11200  0046CE  0E00               	movlw	0
 11201  0046D0  5A0A               	subwfb	(??___fldiv+1)^(0+1280),f,c
 11202  0046D2  0E7F               	movlw	127
 11203  0046D4  2409               	addwf	??___fldiv^(0+1280),w,c
 11204  0046D6  6E12               	movwf	___fldiv@new_exp^(0+1280),c
 11205  0046D8  0E00               	movlw	0
 11206  0046DA  200A               	addwfc	(??___fldiv+1)^(0+1280),w,c
 11207  0046DC  6E13               	movwf	(___fldiv@new_exp+1)^(0+1280),c
 11208  0046DE  C501  F50D         	movff	___fldiv@b,___fldiv@rem
 11209  0046E2  C502  F50E         	movff	___fldiv@b+1,___fldiv@rem+1
 11210  0046E6  C503  F50F         	movff	___fldiv@b+2,___fldiv@rem+2
 11211  0046EA  C504  F510         	movff	___fldiv@b+3,___fldiv@rem+3
 11212  0046EE  0E00               	movlw	0
 11213  0046F0  6E01               	movwf	___fldiv@b^(0+1280),c
 11214  0046F2  0E00               	movlw	0
 11215  0046F4  6E02               	movwf	(___fldiv@b+1)^(0+1280),c
 11216  0046F6  0E00               	movlw	0
 11217  0046F8  6E03               	movwf	(___fldiv@b+2)^(0+1280),c
 11218  0046FA  0E00               	movlw	0
 11219  0046FC  6E04               	movwf	(___fldiv@b+3)^(0+1280),c
 11220  0046FE  0E00               	movlw	0
 11221  004700  6E14               	movwf	___fldiv@grs^(0+1280),c
 11222  004702  0E00               	movlw	0
 11223  004704  6E15               	movwf	(___fldiv@grs+1)^(0+1280),c
 11224  004706  0E00               	movlw	0
 11225  004708  6E16               	movwf	(___fldiv@grs+2)^(0+1280),c
 11226  00470A  0E00               	movlw	0
 11227  00470C  6E17               	movwf	(___fldiv@grs+3)^(0+1280),c
 11228  00470E  0E00               	movlw	0
 11229  004710  6E19               	movwf	___fldiv@aexp^(0+1280),c
 11230  004712  EFC3  F023         	goto	i2l1245
 11231  004716                     i2l4111:
 11232  004716  5019               	movf	___fldiv@aexp^(0+1280),w,c
 11233  004718  B4D8               	btfsc	status,2,c
 11234  00471A  EF91  F023         	goto	i2u384_41
 11235  00471E  EF93  F023         	goto	i2u384_40
 11236  004722                     i2u384_41:
 11237  004722  EFAA  F023         	goto	i2l4119
 11238  004726                     i2u384_40:
 11239  004726  90D8               	bcf	status,0,c
 11240  004728  360D               	rlcf	___fldiv@rem^(0+1280),f,c
 11241  00472A  360E               	rlcf	(___fldiv@rem+1)^(0+1280),f,c
 11242  00472C  360F               	rlcf	(___fldiv@rem+2)^(0+1280),f,c
 11243  00472E  3610               	rlcf	(___fldiv@rem+3)^(0+1280),f,c
 11244  004730  90D8               	bcf	status,0,c
 11245  004732  3601               	rlcf	___fldiv@b^(0+1280),f,c
 11246  004734  3602               	rlcf	(___fldiv@b+1)^(0+1280),f,c
 11247  004736  3603               	rlcf	(___fldiv@b+2)^(0+1280),f,c
 11248  004738  3604               	rlcf	(___fldiv@b+3)^(0+1280),f,c
 11249  00473A  AE17               	btfss	(___fldiv@grs+3)^(0+1280),7,c
 11250  00473C  EFA2  F023         	goto	i2u385_41
 11251  004740  EFA4  F023         	goto	i2u385_40
 11252  004744                     i2u385_41:
 11253  004744  EFA5  F023         	goto	i2l1248
 11254  004748                     i2u385_40:
 11255  004748  8001               	bsf	___fldiv@b^(0+1280),0,c
 11256  00474A                     i2l1248:
 11257  00474A  90D8               	bcf	status,0,c
 11258  00474C  3614               	rlcf	___fldiv@grs^(0+1280),f,c
 11259  00474E  3615               	rlcf	(___fldiv@grs+1)^(0+1280),f,c
 11260  004750  3616               	rlcf	(___fldiv@grs+2)^(0+1280),f,c
 11261  004752  3617               	rlcf	(___fldiv@grs+3)^(0+1280),f,c
 11262  004754                     i2l4119:
 11263  004754  5005               	movf	___fldiv@a^(0+1280),w,c
 11264  004756  5C0D               	subwf	___fldiv@rem^(0+1280),w,c
 11265  004758  5006               	movf	(___fldiv@a+1)^(0+1280),w,c
 11266  00475A  580E               	subwfb	(___fldiv@rem+1)^(0+1280),w,c
 11267  00475C  5007               	movf	(___fldiv@a+2)^(0+1280),w,c
 11268  00475E  580F               	subwfb	(___fldiv@rem+2)^(0+1280),w,c
 11269  004760  5008               	movf	(___fldiv@a+3)^(0+1280),w,c
 11270  004762  5810               	subwfb	(___fldiv@rem+3)^(0+1280),w,c
 11271  004764  A0D8               	btfss	status,0,c
 11272  004766  EFB7  F023         	goto	i2u386_41
 11273  00476A  EFB9  F023         	goto	i2u386_40
 11274  00476E                     i2u386_41:
 11275  00476E  EFC2  F023         	goto	i2l4125
 11276  004772                     i2u386_40:
 11277  004772  8C17               	bsf	(___fldiv@grs+3)^(0+1280),6,c
 11278  004774  5005               	movf	___fldiv@a^(0+1280),w,c
 11279  004776  5E0D               	subwf	___fldiv@rem^(0+1280),f,c
 11280  004778  5006               	movf	(___fldiv@a+1)^(0+1280),w,c
 11281  00477A  5A0E               	subwfb	(___fldiv@rem+1)^(0+1280),f,c
 11282  00477C  5007               	movf	(___fldiv@a+2)^(0+1280),w,c
 11283  00477E  5A0F               	subwfb	(___fldiv@rem+2)^(0+1280),f,c
 11284  004780  5008               	movf	(___fldiv@a+3)^(0+1280),w,c
 11285  004782  5A10               	subwfb	(___fldiv@rem+3)^(0+1280),f,c
 11286  004784                     i2l4125:
 11287  004784  2A19               	incf	___fldiv@aexp^(0+1280),f,c
 11288  004786                     i2l1245:
 11289  004786  0E19               	movlw	25
 11290  004788  6419               	cpfsgt	___fldiv@aexp^(0+1280),c
 11291  00478A  EFC9  F023         	goto	i2u387_41
 11292  00478E  EFCB  F023         	goto	i2u387_40
 11293  004792                     i2u387_41:
 11294  004792  EF8B  F023         	goto	i2l4111
 11295  004796                     i2u387_40:
 11296  004796  500D               	movf	___fldiv@rem^(0+1280),w,c
 11297  004798  100E               	iorwf	(___fldiv@rem+1)^(0+1280),w,c
 11298  00479A  100F               	iorwf	(___fldiv@rem+2)^(0+1280),w,c
 11299  00479C  1010               	iorwf	(___fldiv@rem+3)^(0+1280),w,c
 11300  00479E  B4D8               	btfsc	status,2,c
 11301  0047A0  EFD4  F023         	goto	i2u388_41
 11302  0047A4  EFD6  F023         	goto	i2u388_40
 11303  0047A8                     i2u388_41:
 11304  0047A8  EFEE  F023         	goto	i2l4137
 11305  0047AC                     i2u388_40:
 11306  0047AC  8014               	bsf	___fldiv@grs^(0+1280),0,c
 11307  0047AE  EFEE  F023         	goto	i2l4137
 11308  0047B2                     i2l4131:
 11309  0047B2  90D8               	bcf	status,0,c
 11310  0047B4  3601               	rlcf	___fldiv@b^(0+1280),f,c
 11311  0047B6  3602               	rlcf	(___fldiv@b+1)^(0+1280),f,c
 11312  0047B8  3603               	rlcf	(___fldiv@b+2)^(0+1280),f,c
 11313  0047BA  3604               	rlcf	(___fldiv@b+3)^(0+1280),f,c
 11314  0047BC  AE17               	btfss	(___fldiv@grs+3)^(0+1280),7,c
 11315  0047BE  EFE3  F023         	goto	i2u389_41
 11316  0047C2  EFE5  F023         	goto	i2u389_40
 11317  0047C6                     i2u389_41:
 11318  0047C6  EFE6  F023         	goto	i2l1254
 11319  0047CA                     i2u389_40:
 11320  0047CA  8001               	bsf	___fldiv@b^(0+1280),0,c
 11321  0047CC                     i2l1254:
 11322  0047CC  90D8               	bcf	status,0,c
 11323  0047CE  3614               	rlcf	___fldiv@grs^(0+1280),f,c
 11324  0047D0  3615               	rlcf	(___fldiv@grs+1)^(0+1280),f,c
 11325  0047D2  3616               	rlcf	(___fldiv@grs+2)^(0+1280),f,c
 11326  0047D4  3617               	rlcf	(___fldiv@grs+3)^(0+1280),f,c
 11327  0047D6  0612               	decf	___fldiv@new_exp^(0+1280),f,c
 11328  0047D8  A0D8               	btfss	status,0,c
 11329  0047DA  0613               	decf	(___fldiv@new_exp+1)^(0+1280),f,c
 11330  0047DC                     i2l4137:
 11331  0047DC  AE03               	btfss	(___fldiv@b+2)^(0+1280),7,c
 11332  0047DE  EFF3  F023         	goto	i2u390_41
 11333  0047E2  EFF5  F023         	goto	i2u390_40
 11334  0047E6                     i2u390_41:
 11335  0047E6  EFD9  F023         	goto	i2l4131
 11336  0047EA                     i2u390_40:
 11337  0047EA  0E00               	movlw	0
 11338  0047EC  6E19               	movwf	___fldiv@aexp^(0+1280),c
 11339  0047EE  AE17               	btfss	(___fldiv@grs+3)^(0+1280),7,c
 11340  0047F0  EFFC  F023         	goto	i2u391_41
 11341  0047F4  EFFE  F023         	goto	i2u391_40
 11342  0047F8                     i2u391_41:
 11343  0047F8  EF22  F024         	goto	i2l1256
 11344  0047FC                     i2u391_40:
 11345  0047FC  0EFF               	movlw	255
 11346  0047FE  1414               	andwf	___fldiv@grs^(0+1280),w,c
 11347  004800  6E09               	movwf	??___fldiv^(0+1280),c
 11348  004802  0EFF               	movlw	255
 11349  004804  1415               	andwf	(___fldiv@grs+1)^(0+1280),w,c
 11350  004806  6E0A               	movwf	(??___fldiv+1)^(0+1280),c
 11351  004808  0EFF               	movlw	255
 11352  00480A  1416               	andwf	(___fldiv@grs+2)^(0+1280),w,c
 11353  00480C  6E0B               	movwf	(??___fldiv+2)^(0+1280),c
 11354  00480E  0E7F               	movlw	127
 11355  004810  1417               	andwf	(___fldiv@grs+3)^(0+1280),w,c
 11356  004812  6E0C               	movwf	(??___fldiv+3)^(0+1280),c
 11357  004814  5009               	movf	??___fldiv^(0+1280),w,c
 11358  004816  100A               	iorwf	(??___fldiv+1)^(0+1280),w,c
 11359  004818  100B               	iorwf	(??___fldiv+2)^(0+1280),w,c
 11360  00481A  100C               	iorwf	(??___fldiv+3)^(0+1280),w,c
 11361  00481C  B4D8               	btfsc	status,2,c
 11362  00481E  EF13  F024         	goto	i2u392_41
 11363  004822  EF15  F024         	goto	i2u392_40
 11364  004826                     i2u392_41:
 11365  004826  EF19  F024         	goto	i2l1257
 11366  00482A                     i2u392_40:
 11367  00482A                     i2l4145:
 11368  00482A  0E01               	movlw	1
 11369  00482C  6E19               	movwf	___fldiv@aexp^(0+1280),c
 11370  00482E  EF22  F024         	goto	i2l1256
 11371  004832                     i2l1257:
 11372  004832  A001               	btfss	___fldiv@b^(0+1280),0,c
 11373  004834  EF1E  F024         	goto	i2u393_41
 11374  004838  EF20  F024         	goto	i2u393_40
 11375  00483C                     i2u393_41:
 11376  00483C  EF22  F024         	goto	i2l1256
 11377  004840                     i2u393_40:
 11378  004840  EF15  F024         	goto	i2l4145
 11379  004844                     i2l1256:
 11380  004844  5019               	movf	___fldiv@aexp^(0+1280),w,c
 11381  004846  B4D8               	btfsc	status,2,c
 11382  004848  EF28  F024         	goto	i2u394_41
 11383  00484C  EF2A  F024         	goto	i2u394_40
 11384  004850                     i2u394_41:
 11385  004850  EF4E  F024         	goto	i2l4157
 11386  004854                     i2u394_40:
 11387  004854  0E01               	movlw	1
 11388  004856  2601               	addwf	___fldiv@b^(0+1280),f,c
 11389  004858  0E00               	movlw	0
 11390  00485A  2202               	addwfc	(___fldiv@b+1)^(0+1280),f,c
 11391  00485C  2203               	addwfc	(___fldiv@b+2)^(0+1280),f,c
 11392  00485E  2204               	addwfc	(___fldiv@b+3)^(0+1280),f,c
 11393  004860  A004               	btfss	(___fldiv@b+3)^(0+1280),0,c
 11394  004862  EF35  F024         	goto	i2u395_41
 11395  004866  EF37  F024         	goto	i2u395_40
 11396  00486A                     i2u395_41:
 11397  00486A  EF4E  F024         	goto	i2l4157
 11398  00486E                     i2u395_40:
 11399  00486E  C501  F509         	movff	___fldiv@b,??___fldiv
 11400  004872  C502  F50A         	movff	___fldiv@b+1,??___fldiv+1
 11401  004876  C503  F50B         	movff	___fldiv@b+2,??___fldiv+2
 11402  00487A  C504  F50C         	movff	___fldiv@b+3,??___fldiv+3
 11403  00487E  340C               	rlcf	(??___fldiv+3)^(0+1280),w,c
 11404  004880  320C               	rrcf	(??___fldiv+3)^(0+1280),f,c
 11405  004882  320B               	rrcf	(??___fldiv+2)^(0+1280),f,c
 11406  004884  320A               	rrcf	(??___fldiv+1)^(0+1280),f,c
 11407  004886  3209               	rrcf	??___fldiv^(0+1280),f,c
 11408  004888  C509  F501         	movff	??___fldiv,___fldiv@b
 11409  00488C  C50A  F502         	movff	??___fldiv+1,___fldiv@b+1
 11410  004890  C50B  F503         	movff	??___fldiv+2,___fldiv@b+2
 11411  004894  C50C  F504         	movff	??___fldiv+3,___fldiv@b+3
 11412  004898  4A12               	infsnz	___fldiv@new_exp^(0+1280),f,c
 11413  00489A  2A13               	incf	(___fldiv@new_exp+1)^(0+1280),f,c
 11414  00489C                     i2l4157:
 11415  00489C  BE13               	btfsc	(___fldiv@new_exp+1)^(0+1280),7,c
 11416  00489E  EF59  F024         	goto	i2u396_41
 11417  0048A2  5013               	movf	(___fldiv@new_exp+1)^(0+1280),w,c
 11418  0048A4  E108               	bnz	i2u396_40
 11419  0048A6  2812               	incf	___fldiv@new_exp^(0+1280),w,c
 11420  0048A8  A0D8               	btfss	status,0,c
 11421  0048AA  EF59  F024         	goto	i2u396_41
 11422  0048AE  EF5B  F024         	goto	i2u396_40
 11423  0048B2                     i2u396_41:
 11424  0048B2  EF66  F024         	goto	i2l4161
 11425  0048B6                     i2u396_40:
 11426  0048B6  0E00               	movlw	0
 11427  0048B8  6E13               	movwf	(___fldiv@new_exp+1)^(0+1280),c
 11428  0048BA  6812               	setf	___fldiv@new_exp^(0+1280),c
 11429  0048BC  0E00               	movlw	0
 11430  0048BE  6E01               	movwf	___fldiv@b^(0+1280),c
 11431  0048C0  0E00               	movlw	0
 11432  0048C2  6E02               	movwf	(___fldiv@b+1)^(0+1280),c
 11433  0048C4  0E00               	movlw	0
 11434  0048C6  6E03               	movwf	(___fldiv@b+2)^(0+1280),c
 11435  0048C8  0E00               	movlw	0
 11436  0048CA  6E04               	movwf	(___fldiv@b+3)^(0+1280),c
 11437  0048CC                     i2l4161:
 11438  0048CC  BE13               	btfsc	(___fldiv@new_exp+1)^(0+1280),7,c
 11439  0048CE  EF73  F024         	goto	i2u397_40
 11440  0048D2  5013               	movf	(___fldiv@new_exp+1)^(0+1280),w,c
 11441  0048D4  E106               	bnz	i2u397_41
 11442  0048D6  0412               	decf	___fldiv@new_exp^(0+1280),w,c
 11443  0048D8  B0D8               	btfsc	status,0,c
 11444  0048DA  EF71  F024         	goto	i2u397_41
 11445  0048DE  EF73  F024         	goto	i2u397_40
 11446  0048E2                     i2u397_41:
 11447  0048E2  EF81  F024         	goto	i2l4165
 11448  0048E6                     i2u397_40:
 11449  0048E6  0E00               	movlw	0
 11450  0048E8  6E13               	movwf	(___fldiv@new_exp+1)^(0+1280),c
 11451  0048EA  0E00               	movlw	0
 11452  0048EC  6E12               	movwf	___fldiv@new_exp^(0+1280),c
 11453  0048EE  0E00               	movlw	0
 11454  0048F0  6E01               	movwf	___fldiv@b^(0+1280),c
 11455  0048F2  0E00               	movlw	0
 11456  0048F4  6E02               	movwf	(___fldiv@b+1)^(0+1280),c
 11457  0048F6  0E00               	movlw	0
 11458  0048F8  6E03               	movwf	(___fldiv@b+2)^(0+1280),c
 11459  0048FA  0E00               	movlw	0
 11460  0048FC  6E04               	movwf	(___fldiv@b+3)^(0+1280),c
 11461  0048FE  0E00               	movlw	0
 11462  004900  6E11               	movwf	___fldiv@sign^(0+1280),c
 11463  004902                     i2l4165:
 11464  004902  C512  F518         	movff	___fldiv@new_exp,___fldiv@bexp
 11465  004906  A018               	btfss	___fldiv@bexp^(0+1280),0,c
 11466  004908  EF88  F024         	goto	i2u398_41
 11467  00490C  EF8A  F024         	goto	i2u398_40
 11468  004910                     i2u398_41:
 11469  004910  EF8D  F024         	goto	i2l4171
 11470  004914                     i2u398_40:
 11471  004914  8E03               	bsf	(___fldiv@b+2)^(0+1280),7,c
 11472  004916  EF8E  F024         	goto	i2l4173
 11473  00491A                     i2l4171:
 11474  00491A  9E03               	bcf	(___fldiv@b+2)^(0+1280),7,c
 11475  00491C                     i2l4173:
 11476  00491C  90D8               	bcf	status,0,c
 11477  00491E  3018               	rrcf	___fldiv@bexp^(0+1280),w,c
 11478  004920  6E04               	movwf	(___fldiv@b+3)^(0+1280),c
 11479  004922  EF44  F023         	goto	i2l4087
 11480  004926                     i2l1243:
 11481  004926  0012               	return		;funcret
 11482  004928                     __end_of___fldiv:
 11483                           	callstack 0
 11484                           
 11485 ;; *************** function ___awmod *****************
 11486 ;; Defined at:
 11487 ;;		line 7 in file "C:\Program Files\Microchip\xc8\v2.32\pic\sources\c99\common\awmod.c"
 11488 ;; Parameters:    Size  Location     Type
 11489 ;;  dividend        2    0[COMRAM] int 
 11490 ;;  divisor         2    2[COMRAM] int 
 11491 ;; Auto vars:     Size  Location     Type
 11492 ;;  sign            1    5[COMRAM] unsigned char 
 11493 ;;  counter         1    4[COMRAM] unsigned char 
 11494 ;; Return value:  Size  Location     Type
 11495 ;;                  2    0[COMRAM] int 
 11496 ;; Registers used:
 11497 ;;		wreg, status,2, status,0
 11498 ;; Tracked objects:
 11499 ;;		On entry : 0/0
 11500 ;;		On exit  : 0/0
 11501 ;;		Unchanged: 0/0
 11502 ;; Data sizes:     COMRAM   BANK5   BANK6   BANK7   BANK8   BANK9  BANK10  BANK11  BANK12  BANK13  BANK14  BANK15  BANK1
      +6  BANK17  BANK18  BANK19  BANK20  BANK21  BANK22  BANK23  BANK24  BANK25  BANK26  BANK27  BANK28  BANK29  BANK30  BANK3
      +1  BANK32  BANK33  BANK34  BANK35  BANK36  BANK37
 11503 ;;      Params:         4       0       0       0       0       0       0       0       0       0       0       0       
      +0       0       0       0       0       0       0       0       0       0       0       0       0       0       0       
      +0       0       0       0       0       0       0
 11504 ;;      Locals:         2       0       0       0       0       0       0       0       0       0       0       0       
      +0       0       0       0       0       0       0       0       0       0       0       0       0       0       0       
      +0       0       0       0       0       0       0
 11505 ;;      Temps:          0       0       0       0       0       0       0       0       0       0       0       0       
      +0       0       0       0       0       0       0       0       0       0       0       0       0       0       0       
      +0       0       0       0       0       0       0
 11506 ;;      Totals:         6       0       0       0       0       0       0       0       0       0       0       0       
      +0       0       0       0       0       0       0       0       0       0       0       0       0       0       0       
      +0       0       0       0       0       0       0
 11507 ;;Total ram usage:        6 bytes
 11508 ;; Hardware stack levels used: 1
 11509 ;; This function calls:
 11510 ;;		Nothing
 11511 ;; This function is called by:
 11512 ;;		_efgtoa
 11513 ;; This function uses a non-reentrant model
 11514 ;;
 11515                           
 11516                           	psect	text58
 11517  005EE0                     __ptext58:
 11518                           	callstack 0
 11519  005EE0                     ___awmod:
 11520                           	callstack 117
 11521  005EE0  0E00               	movlw	0
 11522  005EE2  6E06               	movwf	___awmod@sign^(0+1280),c
 11523  005EE4  BE02               	btfsc	(___awmod@dividend+1)^(0+1280),7,c
 11524  005EE6  EF79  F02F         	goto	i2u424_40
 11525  005EEA  EF77  F02F         	goto	i2u424_41
 11526  005EEE                     i2u424_41:
 11527  005EEE  EF7F  F02F         	goto	i2l4369
 11528  005EF2                     i2u424_40:
 11529  005EF2  6C01               	negf	___awmod@dividend^(0+1280),c
 11530  005EF4  1E02               	comf	(___awmod@dividend+1)^(0+1280),f,c
 11531  005EF6  B0D8               	btfsc	status,0,c
 11532  005EF8  2A02               	incf	(___awmod@dividend+1)^(0+1280),f,c
 11533  005EFA  0E01               	movlw	1
 11534  005EFC  6E06               	movwf	___awmod@sign^(0+1280),c
 11535  005EFE                     i2l4369:
 11536  005EFE  BE04               	btfsc	(___awmod@divisor+1)^(0+1280),7,c
 11537  005F00  EF86  F02F         	goto	i2u425_40
 11538  005F04  EF84  F02F         	goto	i2u425_41
 11539  005F08                     i2u425_41:
 11540  005F08  EF8A  F02F         	goto	i2l4373
 11541  005F0C                     i2u425_40:
 11542  005F0C  6C03               	negf	___awmod@divisor^(0+1280),c
 11543  005F0E  1E04               	comf	(___awmod@divisor+1)^(0+1280),f,c
 11544  005F10  B0D8               	btfsc	status,0,c
 11545  005F12  2A04               	incf	(___awmod@divisor+1)^(0+1280),f,c
 11546  005F14                     i2l4373:
 11547  005F14  5003               	movf	___awmod@divisor^(0+1280),w,c
 11548  005F16  1004               	iorwf	(___awmod@divisor+1)^(0+1280),w,c
 11549  005F18  B4D8               	btfsc	status,2,c
 11550  005F1A  EF91  F02F         	goto	i2u426_41
 11551  005F1E  EF93  F02F         	goto	i2u426_40
 11552  005F22                     i2u426_41:
 11553  005F22  EFB7  F02F         	goto	i2l4389
 11554  005F26                     i2u426_40:
 11555  005F26  0E01               	movlw	1
 11556  005F28  6E05               	movwf	___awmod@counter^(0+1280),c
 11557  005F2A  EF9B  F02F         	goto	i2l4379
 11558  005F2E                     i2l4377:
 11559  005F2E  90D8               	bcf	status,0,c
 11560  005F30  3603               	rlcf	___awmod@divisor^(0+1280),f,c
 11561  005F32  3604               	rlcf	(___awmod@divisor+1)^(0+1280),f,c
 11562  005F34  2A05               	incf	___awmod@counter^(0+1280),f,c
 11563  005F36                     i2l4379:
 11564  005F36  AE04               	btfss	(___awmod@divisor+1)^(0+1280),7,c
 11565  005F38  EFA0  F02F         	goto	i2u427_41
 11566  005F3C  EFA2  F02F         	goto	i2u427_40
 11567  005F40                     i2u427_41:
 11568  005F40  EF97  F02F         	goto	i2l4377
 11569  005F44                     i2u427_40:
 11570  005F44                     i2l4381:
 11571  005F44  5003               	movf	___awmod@divisor^(0+1280),w,c
 11572  005F46  5C01               	subwf	___awmod@dividend^(0+1280),w,c
 11573  005F48  5004               	movf	(___awmod@divisor+1)^(0+1280),w,c
 11574  005F4A  5802               	subwfb	(___awmod@dividend+1)^(0+1280),w,c
 11575  005F4C  A0D8               	btfss	status,0,c
 11576  005F4E  EFAB  F02F         	goto	i2u428_41
 11577  005F52  EFAD  F02F         	goto	i2u428_40
 11578  005F56                     i2u428_41:
 11579  005F56  EFB1  F02F         	goto	i2l4385
 11580  005F5A                     i2u428_40:
 11581  005F5A  5003               	movf	___awmod@divisor^(0+1280),w,c
 11582  005F5C  5E01               	subwf	___awmod@dividend^(0+1280),f,c
 11583  005F5E  5004               	movf	(___awmod@divisor+1)^(0+1280),w,c
 11584  005F60  5A02               	subwfb	(___awmod@dividend+1)^(0+1280),f,c
 11585  005F62                     i2l4385:
 11586  005F62  90D8               	bcf	status,0,c
 11587  005F64  3204               	rrcf	(___awmod@divisor+1)^(0+1280),f,c
 11588  005F66  3203               	rrcf	___awmod@divisor^(0+1280),f,c
 11589  005F68  2E05               	decfsz	___awmod@counter^(0+1280),f,c
 11590  005F6A  EFA2  F02F         	goto	i2l4381
 11591  005F6E                     i2l4389:
 11592  005F6E  5006               	movf	___awmod@sign^(0+1280),w,c
 11593  005F70  B4D8               	btfsc	status,2,c
 11594  005F72  EFBD  F02F         	goto	i2u429_41
 11595  005F76  EFBF  F02F         	goto	i2u429_40
 11596  005F7A                     i2u429_41:
 11597  005F7A  EFC3  F02F         	goto	i2l4393
 11598  005F7E                     i2u429_40:
 11599  005F7E  6C01               	negf	___awmod@dividend^(0+1280),c
 11600  005F80  1E02               	comf	(___awmod@dividend+1)^(0+1280),f,c
 11601  005F82  B0D8               	btfsc	status,0,c
 11602  005F84  2A02               	incf	(___awmod@dividend+1)^(0+1280),f,c
 11603  005F86                     i2l4393:
 11604  005F86  C501  F501         	movff	___awmod@dividend,?___awmod
 11605  005F8A  C502  F502         	movff	___awmod@dividend+1,?___awmod+1
 11606  005F8E  0012               	return		;funcret
 11607  005F90                     __end_of___awmod:
 11608                           	callstack 0
 11609                           
 11610 ;; *************** function ___awdiv *****************
 11611 ;; Defined at:
 11612 ;;		line 7 in file "C:\Program Files\Microchip\xc8\v2.32\pic\sources\c99\common\awdiv.c"
 11613 ;; Parameters:    Size  Location     Type
 11614 ;;  dividend        2    0[COMRAM] int 
 11615 ;;  divisor         2    2[COMRAM] int 
 11616 ;; Auto vars:     Size  Location     Type
 11617 ;;  quotient        2    6[COMRAM] int 
 11618 ;;  sign            1    5[COMRAM] unsigned char 
 11619 ;;  counter         1    4[COMRAM] unsigned char 
 11620 ;; Return value:  Size  Location     Type
 11621 ;;                  2    0[COMRAM] int 
 11622 ;; Registers used:
 11623 ;;		wreg, status,2, status,0
 11624 ;; Tracked objects:
 11625 ;;		On entry : 0/0
 11626 ;;		On exit  : 0/0
 11627 ;;		Unchanged: 0/0
 11628 ;; Data sizes:     COMRAM   BANK5   BANK6   BANK7   BANK8   BANK9  BANK10  BANK11  BANK12  BANK13  BANK14  BANK15  BANK1
      +6  BANK17  BANK18  BANK19  BANK20  BANK21  BANK22  BANK23  BANK24  BANK25  BANK26  BANK27  BANK28  BANK29  BANK30  BANK3
      +1  BANK32  BANK33  BANK34  BANK35  BANK36  BANK37
 11629 ;;      Params:         4       0       0       0       0       0       0       0       0       0       0       0       
      +0       0       0       0       0       0       0       0       0       0       0       0       0       0       0       
      +0       0       0       0       0       0       0
 11630 ;;      Locals:         4       0       0       0       0       0       0       0       0       0       0       0       
      +0       0       0       0       0       0       0       0       0       0       0       0       0       0       0       
      +0       0       0       0       0       0       0
 11631 ;;      Temps:          0       0       0       0       0       0       0       0       0       0       0       0       
      +0       0       0       0       0       0       0       0       0       0       0       0       0       0       0       
      +0       0       0       0       0       0       0
 11632 ;;      Totals:         8       0       0       0       0       0       0       0       0       0       0       0       
      +0       0       0       0       0       0       0       0       0       0       0       0       0       0       0       
      +0       0       0       0       0       0       0
 11633 ;;Total ram usage:        8 bytes
 11634 ;; Hardware stack levels used: 1
 11635 ;; This function calls:
 11636 ;;		Nothing
 11637 ;; This function is called by:
 11638 ;;		_efgtoa
 11639 ;; This function uses a non-reentrant model
 11640 ;;
 11641                           
 11642                           	psect	text59
 11643  005D64                     __ptext59:
 11644                           	callstack 0
 11645  005D64                     ___awdiv:
 11646                           	callstack 117
 11647  005D64  0E00               	movlw	0
 11648  005D66  6E06               	movwf	___awdiv@sign^(0+1280),c
 11649  005D68  BE04               	btfsc	(___awdiv@divisor+1)^(0+1280),7,c
 11650  005D6A  EFBB  F02E         	goto	i2u418_40
 11651  005D6E  EFB9  F02E         	goto	i2u418_41
 11652  005D72                     i2u418_41:
 11653  005D72  EFC1  F02E         	goto	i2l4325
 11654  005D76                     i2u418_40:
 11655  005D76  6C03               	negf	___awdiv@divisor^(0+1280),c
 11656  005D78  1E04               	comf	(___awdiv@divisor+1)^(0+1280),f,c
 11657  005D7A  B0D8               	btfsc	status,0,c
 11658  005D7C  2A04               	incf	(___awdiv@divisor+1)^(0+1280),f,c
 11659  005D7E  0E01               	movlw	1
 11660  005D80  6E06               	movwf	___awdiv@sign^(0+1280),c
 11661  005D82                     i2l4325:
 11662  005D82  BE02               	btfsc	(___awdiv@dividend+1)^(0+1280),7,c
 11663  005D84  EFC8  F02E         	goto	i2u419_40
 11664  005D88  EFC6  F02E         	goto	i2u419_41
 11665  005D8C                     i2u419_41:
 11666  005D8C  EFCE  F02E         	goto	i2l4331
 11667  005D90                     i2u419_40:
 11668  005D90  6C01               	negf	___awdiv@dividend^(0+1280),c
 11669  005D92  1E02               	comf	(___awdiv@dividend+1)^(0+1280),f,c
 11670  005D94  B0D8               	btfsc	status,0,c
 11671  005D96  2A02               	incf	(___awdiv@dividend+1)^(0+1280),f,c
 11672  005D98  0E01               	movlw	1
 11673  005D9A  1A06               	xorwf	___awdiv@sign^(0+1280),f,c
 11674  005D9C                     i2l4331:
 11675  005D9C  0E00               	movlw	0
 11676  005D9E  6E08               	movwf	(___awdiv@quotient+1)^(0+1280),c
 11677  005DA0  0E00               	movlw	0
 11678  005DA2  6E07               	movwf	___awdiv@quotient^(0+1280),c
 11679  005DA4  5003               	movf	___awdiv@divisor^(0+1280),w,c
 11680  005DA6  1004               	iorwf	(___awdiv@divisor+1)^(0+1280),w,c
 11681  005DA8  B4D8               	btfsc	status,2,c
 11682  005DAA  EFD9  F02E         	goto	i2u420_41
 11683  005DAE  EFDB  F02E         	goto	i2u420_40
 11684  005DB2                     i2u420_41:
 11685  005DB2  EF03  F02F         	goto	i2l4353
 11686  005DB6                     i2u420_40:
 11687  005DB6  0E01               	movlw	1
 11688  005DB8  6E05               	movwf	___awdiv@counter^(0+1280),c
 11689  005DBA  EFE3  F02E         	goto	i2l4339
 11690  005DBE                     i2l4337:
 11691  005DBE  90D8               	bcf	status,0,c
 11692  005DC0  3603               	rlcf	___awdiv@divisor^(0+1280),f,c
 11693  005DC2  3604               	rlcf	(___awdiv@divisor+1)^(0+1280),f,c
 11694  005DC4  2A05               	incf	___awdiv@counter^(0+1280),f,c
 11695  005DC6                     i2l4339:
 11696  005DC6  AE04               	btfss	(___awdiv@divisor+1)^(0+1280),7,c
 11697  005DC8  EFE8  F02E         	goto	i2u421_41
 11698  005DCC  EFEA  F02E         	goto	i2u421_40
 11699  005DD0                     i2u421_41:
 11700  005DD0  EFDF  F02E         	goto	i2l4337
 11701  005DD4                     i2u421_40:
 11702  005DD4                     i2l4341:
 11703  005DD4  90D8               	bcf	status,0,c
 11704  005DD6  3607               	rlcf	___awdiv@quotient^(0+1280),f,c
 11705  005DD8  3608               	rlcf	(___awdiv@quotient+1)^(0+1280),f,c
 11706  005DDA  5003               	movf	___awdiv@divisor^(0+1280),w,c
 11707  005DDC  5C01               	subwf	___awdiv@dividend^(0+1280),w,c
 11708  005DDE  5004               	movf	(___awdiv@divisor+1)^(0+1280),w,c
 11709  005DE0  5802               	subwfb	(___awdiv@dividend+1)^(0+1280),w,c
 11710  005DE2  A0D8               	btfss	status,0,c
 11711  005DE4  EFF6  F02E         	goto	i2u422_41
 11712  005DE8  EFF8  F02E         	goto	i2u422_40
 11713  005DEC                     i2u422_41:
 11714  005DEC  EFFD  F02E         	goto	i2l4349
 11715  005DF0                     i2u422_40:
 11716  005DF0  5003               	movf	___awdiv@divisor^(0+1280),w,c
 11717  005DF2  5E01               	subwf	___awdiv@dividend^(0+1280),f,c
 11718  005DF4  5004               	movf	(___awdiv@divisor+1)^(0+1280),w,c
 11719  005DF6  5A02               	subwfb	(___awdiv@dividend+1)^(0+1280),f,c
 11720  005DF8  8007               	bsf	___awdiv@quotient^(0+1280),0,c
 11721  005DFA                     i2l4349:
 11722  005DFA  90D8               	bcf	status,0,c
 11723  005DFC  3204               	rrcf	(___awdiv@divisor+1)^(0+1280),f,c
 11724  005DFE  3203               	rrcf	___awdiv@divisor^(0+1280),f,c
 11725  005E00  2E05               	decfsz	___awdiv@counter^(0+1280),f,c
 11726  005E02  EFEA  F02E         	goto	i2l4341
 11727  005E06                     i2l4353:
 11728  005E06  5006               	movf	___awdiv@sign^(0+1280),w,c
 11729  005E08  B4D8               	btfsc	status,2,c
 11730  005E0A  EF09  F02F         	goto	i2u423_41
 11731  005E0E  EF0B  F02F         	goto	i2u423_40
 11732  005E12                     i2u423_41:
 11733  005E12  EF0F  F02F         	goto	i2l4357
 11734  005E16                     i2u423_40:
 11735  005E16  6C07               	negf	___awdiv@quotient^(0+1280),c
 11736  005E18  1E08               	comf	(___awdiv@quotient+1)^(0+1280),f,c
 11737  005E1A  B0D8               	btfsc	status,0,c
 11738  005E1C  2A08               	incf	(___awdiv@quotient+1)^(0+1280),f,c
 11739  005E1E                     i2l4357:
 11740  005E1E  C507  F501         	movff	___awdiv@quotient,?___awdiv
 11741  005E22  C508  F502         	movff	___awdiv@quotient+1,?___awdiv+1
 11742  005E26  0012               	return		;funcret
 11743  005E28                     __end_of___awdiv:
 11744                           	callstack 0
 11745                           
 11746 ;; *************** function _atoi *****************
 11747 ;; Defined at:
 11748 ;;		line 4 in file "C:\Program Files\Microchip\xc8\v2.32\pic\sources\c99\common\atoi.c"
 11749 ;; Parameters:    Size  Location     Type
 11750 ;;  s               2    7[COMRAM] PTR const unsigned char 
 11751 ;;		 -> STR_4(21), STR_3(15), STR_2(5), STR_1(15), 
 11752 ;; Auto vars:     Size  Location     Type
 11753 ;;  n               2   20[COMRAM] int 
 11754 ;;  neg             2   13[COMRAM] int 
 11755 ;; Return value:  Size  Location     Type
 11756 ;;                  2    7[COMRAM] int 
 11757 ;; Registers used:
 11758 ;;		wreg, status,2, status,0, tblptrl, tblptrh, tblptru, prodl, prodh, cstack
 11759 ;; Tracked objects:
 11760 ;;		On entry : 0/0
 11761 ;;		On exit  : 0/0
 11762 ;;		Unchanged: 0/0
 11763 ;; Data sizes:     COMRAM   BANK5   BANK6   BANK7   BANK8   BANK9  BANK10  BANK11  BANK12  BANK13  BANK14  BANK15  BANK1
      +6  BANK17  BANK18  BANK19  BANK20  BANK21  BANK22  BANK23  BANK24  BANK25  BANK26  BANK27  BANK28  BANK29  BANK30  BANK3
      +1  BANK32  BANK33  BANK34  BANK35  BANK36  BANK37
 11764 ;;      Params:         2       0       0       0       0       0       0       0       0       0       0       0       
      +0       0       0       0       0       0       0       0       0       0       0       0       0       0       0       
      +0       0       0       0       0       0       0
 11765 ;;      Locals:         9       0       0       0       0       0       0       0       0       0       0       0       
      +0       0       0       0       0       0       0       0       0       0       0       0       0       0       0       
      +0       0       0       0       0       0       0
 11766 ;;      Temps:          4       0       0       0       0       0       0       0       0       0       0       0       
      +0       0       0       0       0       0       0       0       0       0       0       0       0       0       0       
      +0       0       0       0       0       0       0
 11767 ;;      Totals:        15       0       0       0       0       0       0       0       0       0       0       0       
      +0       0       0       0       0       0       0       0       0       0       0       0       0       0       0       
      +0       0       0       0       0       0       0
 11768 ;;Total ram usage:       15 bytes
 11769 ;; Hardware stack levels used: 1
 11770 ;; Hardware stack levels required when called: 1
 11771 ;; This function calls:
 11772 ;;		___wmul
 11773 ;;		_isdigit
 11774 ;;		_isspace
 11775 ;; This function is called by:
 11776 ;;		_vfpfcnvrt
 11777 ;; This function uses a non-reentrant model
 11778 ;;
 11779                           
 11780                           	psect	text60
 11781  00501C                     __ptext60:
 11782                           	callstack 0
 11783  00501C                     _atoi:
 11784                           	callstack 117
 11785  00501C  0E00               	movlw	0
 11786  00501E  6E16               	movwf	(atoi@n+1)^(0+1280),c
 11787  005020  0E00               	movlw	0
 11788  005022  6E15               	movwf	atoi@n^(0+1280),c
 11789  005024  0E00               	movlw	0
 11790  005026  6E0F               	movwf	(atoi@neg+1)^(0+1280),c
 11791  005028  0E00               	movlw	0
 11792  00502A  6E0E               	movwf	atoi@neg^(0+1280),c
 11793  00502C  EF1A  F028         	goto	i2l5097
 11794  005030                     i2l5095:
 11795  005030  4A08               	infsnz	atoi@s^(0+1280),f,c
 11796  005032  2A09               	incf	(atoi@s+1)^(0+1280),f,c
 11797  005034                     i2l5097:
 11798  005034  0E01               	movlw	1
 11799  005036  6E14               	movwf	_atoi$1939^(0+1280),c
 11800  005038  0061  F420  F4F6   	movff	atoi@s,tblptrl
 11801  00503E  0061  F424  F4F7   	movff	atoi@s+1,tblptrh
 11802  005044                     	if	0	;tblptru may be non-zero
 11803  005044                     	endif
 11804  005044                     	if	1	;Program memory is > 0xFFFF, there are 3 active tblptr bytes
 11805  005044  0E00               	movlw	low (__mediumconst shr (0+16))
 11806  005046  6EF8               	movwf	tblptru,c
 11807  005048                     	endif
 11808  005048  0008               	tblrd		*
 11809  00504A  50F5               	movf	tablat,w,c
 11810  00504C  0A20               	xorlw	32
 11811  00504E  B4D8               	btfsc	status,2,c
 11812  005050  EF2C  F028         	goto	i2u575_41
 11813  005054  EF2E  F028         	goto	i2u575_40
 11814  005058                     i2u575_41:
 11815  005058  EF4F  F028         	goto	i2l5105
 11816  00505C                     i2u575_40:
 11817  00505C  0EF7               	movlw	247
 11818  00505E  6E0A               	movwf	??_atoi^(0+1280),c
 11819  005060  0EFF               	movlw	255
 11820  005062  6E0B               	movwf	(??_atoi+1)^(0+1280),c
 11821  005064  0061  F420  F4F6   	movff	atoi@s,tblptrl
 11822  00506A  0061  F424  F4F7   	movff	atoi@s+1,tblptrh
 11823  005070                     	if	0	;tblptru may be non-zero
 11824  005070                     	endif
 11825  005070                     	if	1	;Program memory is > 0xFFFF, there are 3 active tblptr bytes
 11826  005070  0E00               	movlw	low (__mediumconst shr (0+16))
 11827  005072  6EF8               	movwf	tblptru,c
 11828  005074                     	endif
 11829  005074  0008               	tblrd		*
 11830  005076  50F5               	movf	tablat,w,c
 11831  005078  6E0C               	movwf	(??_atoi+2)^(0+1280),c
 11832  00507A  6A0D               	clrf	(??_atoi+3)^(0+1280),c
 11833  00507C  500A               	movf	??_atoi^(0+1280),w,c
 11834  00507E  260C               	addwf	(??_atoi+2)^(0+1280),f,c
 11835  005080  500B               	movf	(??_atoi+1)^(0+1280),w,c
 11836  005082  220D               	addwfc	(??_atoi+3)^(0+1280),f,c
 11837  005084  500D               	movf	(??_atoi+3)^(0+1280),w,c
 11838  005086  E109               	bnz	i2u576_40
 11839  005088  0E05               	movlw	5
 11840  00508A  5C0C               	subwf	(??_atoi+2)^(0+1280),w,c
 11841  00508C  A0D8               	btfss	status,0,c
 11842  00508E  EF4B  F028         	goto	i2u576_41
 11843  005092  EF4D  F028         	goto	i2u576_40
 11844  005096                     i2u576_41:
 11845  005096  EF4F  F028         	goto	i2l5105
 11846  00509A                     i2u576_40:
 11847  00509A  0E00               	movlw	0
 11848  00509C  6E14               	movwf	_atoi$1939^(0+1280),c
 11849  00509E                     i2l5105:
 11850  00509E  C514  F510         	movff	_atoi$1939,_atoi$1938
 11851  0050A2  6A11               	clrf	(_atoi$1938+1)^(0+1280),c
 11852  0050A4  5010               	movf	_atoi$1938^(0+1280),w,c
 11853  0050A6  1011               	iorwf	(_atoi$1938+1)^(0+1280),w,c
 11854  0050A8  A4D8               	btfss	status,2,c
 11855  0050AA  EF59  F028         	goto	i2u577_41
 11856  0050AE  EF5B  F028         	goto	i2u577_40
 11857  0050B2                     i2u577_41:
 11858  0050B2  EF18  F028         	goto	i2l5095
 11859  0050B6                     i2u577_40:
 11860  0050B6  EF65  F028         	goto	i2l5115
 11861  0050BA                     i2l5111:
 11862  0050BA  0E00               	movlw	0
 11863  0050BC  6E0F               	movwf	(atoi@neg+1)^(0+1280),c
 11864  0050BE  0E01               	movlw	1
 11865  0050C0  6E0E               	movwf	atoi@neg^(0+1280),c
 11866  0050C2                     i2l5113:
 11867  0050C2  4A08               	infsnz	atoi@s^(0+1280),f,c
 11868  0050C4  2A09               	incf	(atoi@s+1)^(0+1280),f,c
 11869  0050C6  EFA2  F028         	goto	i2l5121
 11870  0050CA                     i2l5115:
 11871  0050CA  0061  F420  F4F6   	movff	atoi@s,tblptrl
 11872  0050D0  0061  F424  F4F7   	movff	atoi@s+1,tblptrh
 11873  0050D6                     	if	0	;tblptru may be non-zero
 11874  0050D6                     	endif
 11875  0050D6                     	if	1	;Program memory is > 0xFFFF, there are 3 active tblptr bytes
 11876  0050D6  0E00               	movlw	low (__mediumconst shr (0+16))
 11877  0050D8  6EF8               	movwf	tblptru,c
 11878  0050DA                     	endif
 11879  0050DA  0008               	tblrd		*
 11880  0050DC  50F5               	movf	tablat,w,c
 11881  0050DE  6E0A               	movwf	??_atoi^(0+1280),c
 11882  0050E0  6A0B               	clrf	(??_atoi+1)^(0+1280),c
 11883                           
 11884                           ; Switch on 2 bytes has been partitioned into a top level switch of size 1, and 1 sub-sw
      +                          itches
 11885                           ; Switch size 1, requested type "simple"
 11886                           ; Number of cases is 1, Range of values is 0 to 0
 11887                           ; switch strategies available:
 11888                           ; Name         Instructions Cycles
 11889                           ; simple_byte            4     3 (average)
 11890                           ;	Chosen strategy is simple_byte
 11891  0050E2  500B               	movf	(??_atoi+1)^(0+1280),w,c
 11892  0050E4  0A00               	xorlw	0	; case 0
 11893  0050E6  B4D8               	btfsc	status,2,c
 11894  0050E8  EF78  F028         	goto	i2l5695
 11895  0050EC  EFA2  F028         	goto	i2l5121
 11896  0050F0                     i2l5695:
 11897                           
 11898                           ; Switch size 1, requested type "simple"
 11899                           ; Number of cases is 2, Range of values is 43 to 45
 11900                           ; switch strategies available:
 11901                           ; Name         Instructions Cycles
 11902                           ; simple_byte            7     4 (average)
 11903                           ;	Chosen strategy is simple_byte
 11904  0050F0  500A               	movf	??_atoi^(0+1280),w,c
 11905  0050F2  0A2B               	xorlw	43	; case 43
 11906  0050F4  B4D8               	btfsc	status,2,c
 11907  0050F6  EF61  F028         	goto	i2l5113
 11908  0050FA  0A06               	xorlw	6	; case 45
 11909  0050FC  B4D8               	btfsc	status,2,c
 11910  0050FE  EF5D  F028         	goto	i2l5111
 11911  005102  EFA2  F028         	goto	i2l5121
 11912  005106                     i2l5117:
 11913  005106  C515  F501         	movff	atoi@n,___wmul@multiplier
 11914  00510A  C516  F502         	movff	atoi@n+1,___wmul@multiplier+1
 11915  00510E  0E00               	movlw	0
 11916  005110  6E04               	movwf	(___wmul@multiplicand+1)^(0+1280),c
 11917  005112  0E0A               	movlw	10
 11918  005114  6E03               	movwf	___wmul@multiplicand^(0+1280),c
 11919  005116  EC03  F034         	call	___wmul	;wreg free
 11920  00511A  0061  F420  F4F6   	movff	atoi@s,tblptrl
 11921  005120  0061  F424  F4F7   	movff	atoi@s+1,tblptrh
 11922  005126                     	if	0	;tblptru may be non-zero
 11923  005126                     	endif
 11924  005126                     	if	1	;Program memory is > 0xFFFF, there are 3 active tblptr bytes
 11925  005126  0E00               	movlw	low (__mediumconst shr (0+16))
 11926  005128  6EF8               	movwf	tblptru,c
 11927  00512A                     	endif
 11928  00512A  0008               	tblrd		*
 11929  00512C  50F5               	movf	tablat,w,c
 11930  00512E  5E01               	subwf	?___wmul^(0+1280),f,c
 11931  005130  0E00               	movlw	0
 11932  005132  5A02               	subwfb	(?___wmul+1)^(0+1280),f,c
 11933  005134  0E30               	movlw	48
 11934  005136  2401               	addwf	?___wmul^(0+1280),w,c
 11935  005138  6E15               	movwf	atoi@n^(0+1280),c
 11936  00513A  0E00               	movlw	0
 11937  00513C  2002               	addwfc	(?___wmul+1)^(0+1280),w,c
 11938  00513E  6E16               	movwf	(atoi@n+1)^(0+1280),c
 11939  005140  EF61  F028         	goto	i2l5113
 11940  005144                     i2l5121:
 11941  005144  0ED0               	movlw	208
 11942  005146  6E0A               	movwf	??_atoi^(0+1280),c
 11943  005148  0EFF               	movlw	255
 11944  00514A  6E0B               	movwf	(??_atoi+1)^(0+1280),c
 11945  00514C  0061  F420  F4F6   	movff	atoi@s,tblptrl
 11946  005152  0061  F424  F4F7   	movff	atoi@s+1,tblptrh
 11947  005158                     	if	0	;tblptru may be non-zero
 11948  005158                     	endif
 11949  005158                     	if	1	;Program memory is > 0xFFFF, there are 3 active tblptr bytes
 11950  005158  0E00               	movlw	low (__mediumconst shr (0+16))
 11951  00515A  6EF8               	movwf	tblptru,c
 11952  00515C                     	endif
 11953  00515C  0008               	tblrd		*
 11954  00515E  50F5               	movf	tablat,w,c
 11955  005160  6E0C               	movwf	(??_atoi+2)^(0+1280),c
 11956  005162  6A0D               	clrf	(??_atoi+3)^(0+1280),c
 11957  005164  500A               	movf	??_atoi^(0+1280),w,c
 11958  005166  260C               	addwf	(??_atoi+2)^(0+1280),f,c
 11959  005168  500B               	movf	(??_atoi+1)^(0+1280),w,c
 11960  00516A  220D               	addwfc	(??_atoi+3)^(0+1280),f,c
 11961  00516C  500D               	movf	(??_atoi+3)^(0+1280),w,c
 11962  00516E  E10A               	bnz	i2u578_40
 11963  005170  0E0A               	movlw	10
 11964  005172  5C0C               	subwf	(??_atoi+2)^(0+1280),w,c
 11965  005174  A0D8               	btfss	status,0,c
 11966  005176  EFBF  F028         	goto	i2u578_41
 11967  00517A  EFC2  F028         	goto	i2u578_40
 11968  00517E                     i2u578_41:
 11969  00517E  0E01               	movlw	1
 11970  005180  EFC3  F028         	goto	i2u579_40
 11971  005184                     i2u578_40:
 11972  005184  0E00               	movlw	0
 11973  005186                     i2u579_40:
 11974  005186  6E12               	movwf	_atoi$1940^(0+1280),c
 11975  005188  6A13               	clrf	(_atoi$1940+1)^(0+1280),c
 11976  00518A  5012               	movf	_atoi$1940^(0+1280),w,c
 11977  00518C  1013               	iorwf	(_atoi$1940+1)^(0+1280),w,c
 11978  00518E  A4D8               	btfss	status,2,c
 11979  005190  EFCC  F028         	goto	i2u580_41
 11980  005194  EFCE  F028         	goto	i2u580_40
 11981  005198                     i2u580_41:
 11982  005198  EF83  F028         	goto	i2l5117
 11983  00519C                     i2u580_40:
 11984  00519C  500E               	movf	atoi@neg^(0+1280),w,c
 11985  00519E  100F               	iorwf	(atoi@neg+1)^(0+1280),w,c
 11986  0051A0  A4D8               	btfss	status,2,c
 11987  0051A2  EFD5  F028         	goto	i2u581_41
 11988  0051A6  EFD7  F028         	goto	i2u581_40
 11989  0051AA                     i2u581_41:
 11990  0051AA  EFE5  F028         	goto	i2l1647
 11991  0051AE                     i2u581_40:
 11992  0051AE  C515  F50A         	movff	atoi@n,??_atoi
 11993  0051B2  C516  F50B         	movff	atoi@n+1,??_atoi+1
 11994  0051B6  1E0A               	comf	??_atoi^(0+1280),f,c
 11995  0051B8  1E0B               	comf	(??_atoi+1)^(0+1280),f,c
 11996  0051BA  4A0A               	infsnz	??_atoi^(0+1280),f,c
 11997  0051BC  2A0B               	incf	(??_atoi+1)^(0+1280),f,c
 11998  0051BE  C50A  F508         	movff	??_atoi,?_atoi
 11999  0051C2  C50B  F509         	movff	??_atoi+1,?_atoi+1
 12000  0051C6  EFE9  F028         	goto	i2l1650
 12001  0051CA                     i2l1647:
 12002  0051CA  C515  F508         	movff	atoi@n,?_atoi
 12003  0051CE  C516  F509         	movff	atoi@n+1,?_atoi+1
 12004  0051D2                     i2l1650:
 12005  0051D2  0012               	return		;funcret
 12006  0051D4                     __end_of_atoi:
 12007                           	callstack 0
 12008                           
 12009 ;; *************** function _isspace *****************
 12010 ;; Defined at:
 12011 ;;		line 5 in file "C:\Program Files\Microchip\xc8\v2.32\pic\sources\c99\common\isspace.c"
 12012 ;; Parameters:    Size  Location     Type
 12013 ;;  c               2    0[COMRAM] int 
 12014 ;; Auto vars:     Size  Location     Type
 12015 ;;		None
 12016 ;; Return value:  Size  Location     Type
 12017 ;;                  2    0[COMRAM] int 
 12018 ;; Registers used:
 12019 ;;		wreg, status,2, status,0
 12020 ;; Tracked objects:
 12021 ;;		On entry : 0/0
 12022 ;;		On exit  : 0/0
 12023 ;;		Unchanged: 0/0
 12024 ;; Data sizes:     COMRAM   BANK5   BANK6   BANK7   BANK8   BANK9  BANK10  BANK11  BANK12  BANK13  BANK14  BANK15  BANK1
      +6  BANK17  BANK18  BANK19  BANK20  BANK21  BANK22  BANK23  BANK24  BANK25  BANK26  BANK27  BANK28  BANK29  BANK30  BANK3
      +1  BANK32  BANK33  BANK34  BANK35  BANK36  BANK37
 12025 ;;      Params:         2       0       0       0       0       0       0       0       0       0       0       0       
      +0       0       0       0       0       0       0       0       0       0       0       0       0       0       0       
      +0       0       0       0       0       0       0
 12026 ;;      Locals:         1       0       0       0       0       0       0       0       0       0       0       0       
      +0       0       0       0       0       0       0       0       0       0       0       0       0       0       0       
      +0       0       0       0       0       0       0
 12027 ;;      Temps:          4       0       0       0       0       0       0       0       0       0       0       0       
      +0       0       0       0       0       0       0       0       0       0       0       0       0       0       0       
      +0       0       0       0       0       0       0
 12028 ;;      Totals:         7       0       0       0       0       0       0       0       0       0       0       0       
      +0       0       0       0       0       0       0       0       0       0       0       0       0       0       0       
      +0       0       0       0       0       0       0
 12029 ;;Total ram usage:        7 bytes
 12030 ;; Hardware stack levels used: 1
 12031 ;; This function calls:
 12032 ;;		Nothing
 12033 ;; This function is called by:
 12034 ;;		_atoi
 12035 ;; This function uses a non-reentrant model
 12036 ;;
 12037                           
 12038                           	psect	text61
 12039  0064B4                     __ptext61:
 12040                           	callstack 0
 12041  0064B4                     _isspace:
 12042                           	callstack 117
 12043  0064B4  0E01               	movlw	1
 12044  0064B6  6E07               	movwf	_isspace$1978^(0+1280),c
 12045  0064B8  0E20               	movlw	32
 12046  0064BA  1801               	xorwf	isspace@c^(0+1280),w,c
 12047  0064BC  1002               	iorwf	(isspace@c+1)^(0+1280),w,c
 12048  0064BE  B4D8               	btfsc	status,2,c
 12049  0064C0  EF64  F032         	goto	i2u486_41
 12050  0064C4  EF66  F032         	goto	i2u486_40
 12051  0064C8                     i2u486_41:
 12052  0064C8  EF7F  F032         	goto	i2l4637
 12053  0064CC                     i2u486_40:
 12054  0064CC  0EF7               	movlw	247
 12055  0064CE  6E03               	movwf	??_isspace^(0+1280),c
 12056  0064D0  0EFF               	movlw	255
 12057  0064D2  6E04               	movwf	(??_isspace+1)^(0+1280),c
 12058  0064D4  C501  F505         	movff	isspace@c,??_isspace+2
 12059  0064D8  C502  F506         	movff	isspace@c+1,??_isspace+3
 12060  0064DC  5003               	movf	??_isspace^(0+1280),w,c
 12061  0064DE  2605               	addwf	(??_isspace+2)^(0+1280),f,c
 12062  0064E0  5004               	movf	(??_isspace+1)^(0+1280),w,c
 12063  0064E2  2206               	addwfc	(??_isspace+3)^(0+1280),f,c
 12064  0064E4  5006               	movf	(??_isspace+3)^(0+1280),w,c
 12065  0064E6  E109               	bnz	i2u487_40
 12066  0064E8  0E05               	movlw	5
 12067  0064EA  5C05               	subwf	(??_isspace+2)^(0+1280),w,c
 12068  0064EC  A0D8               	btfss	status,0,c
 12069  0064EE  EF7B  F032         	goto	i2u487_41
 12070  0064F2  EF7D  F032         	goto	i2u487_40
 12071  0064F6                     i2u487_41:
 12072  0064F6  EF7F  F032         	goto	i2l4637
 12073  0064FA                     i2u487_40:
 12074  0064FA  0E00               	movlw	0
 12075  0064FC  6E07               	movwf	_isspace$1978^(0+1280),c
 12076  0064FE                     i2l4637:
 12077  0064FE  C507  F501         	movff	_isspace$1978,?_isspace
 12078  006502  6A02               	clrf	(?_isspace+1)^(0+1280),c
 12079  006504  0012               	return		;funcret
 12080  006506                     __end_of_isspace:
 12081                           	callstack 0
 12082                           
 12083 ;; *************** function _isdigit *****************
 12084 ;; Defined at:
 12085 ;;		line 5 in file "C:\Program Files\Microchip\xc8\v2.32\pic\sources\c99\common\isdigit.c"
 12086 ;; Parameters:    Size  Location     Type
 12087 ;;  c               2    0[COMRAM] int 
 12088 ;; Auto vars:     Size  Location     Type
 12089 ;;		None
 12090 ;; Return value:  Size  Location     Type
 12091 ;;                  2    0[COMRAM] int 
 12092 ;; Registers used:
 12093 ;;		wreg, status,2, status,0
 12094 ;; Tracked objects:
 12095 ;;		On entry : 0/0
 12096 ;;		On exit  : 0/0
 12097 ;;		Unchanged: 0/0
 12098 ;; Data sizes:     COMRAM   BANK5   BANK6   BANK7   BANK8   BANK9  BANK10  BANK11  BANK12  BANK13  BANK14  BANK15  BANK1
      +6  BANK17  BANK18  BANK19  BANK20  BANK21  BANK22  BANK23  BANK24  BANK25  BANK26  BANK27  BANK28  BANK29  BANK30  BANK3
      +1  BANK32  BANK33  BANK34  BANK35  BANK36  BANK37
 12099 ;;      Params:         2       0       0       0       0       0       0       0       0       0       0       0       
      +0       0       0       0       0       0       0       0       0       0       0       0       0       0       0       
      +0       0       0       0       0       0       0
 12100 ;;      Locals:         0       0       0       0       0       0       0       0       0       0       0       0       
      +0       0       0       0       0       0       0       0       0       0       0       0       0       0       0       
      +0       0       0       0       0       0       0
 12101 ;;      Temps:          4       0       0       0       0       0       0       0       0       0       0       0       
      +0       0       0       0       0       0       0       0       0       0       0       0       0       0       0       
      +0       0       0       0       0       0       0
 12102 ;;      Totals:         6       0       0       0       0       0       0       0       0       0       0       0       
      +0       0       0       0       0       0       0       0       0       0       0       0       0       0       0       
      +0       0       0       0       0       0       0
 12103 ;;Total ram usage:        6 bytes
 12104 ;; Hardware stack levels used: 1
 12105 ;; This function calls:
 12106 ;;		Nothing
 12107 ;; This function is called by:
 12108 ;;		_vfpfcnvrt
 12109 ;;		_atoi
 12110 ;; This function uses a non-reentrant model
 12111 ;;
 12112                           
 12113                           	psect	text62
 12114  00673C                     __ptext62:
 12115                           	callstack 0
 12116  00673C                     _isdigit:
 12117                           	callstack 118
 12118  00673C  0ED0               	movlw	208
 12119  00673E  6E03               	movwf	??_isdigit^(0+1280),c
 12120  006740  0EFF               	movlw	255
 12121  006742  6E04               	movwf	(??_isdigit+1)^(0+1280),c
 12122  006744  C501  F505         	movff	isdigit@c,??_isdigit+2
 12123  006748  C502  F506         	movff	isdigit@c+1,??_isdigit+3
 12124  00674C  5003               	movf	??_isdigit^(0+1280),w,c
 12125  00674E  2605               	addwf	(??_isdigit+2)^(0+1280),f,c
 12126  006750  5004               	movf	(??_isdigit+1)^(0+1280),w,c
 12127  006752  2206               	addwfc	(??_isdigit+3)^(0+1280),f,c
 12128  006754  5006               	movf	(??_isdigit+3)^(0+1280),w,c
 12129  006756  E10A               	bnz	i2u484_40
 12130  006758  0E0A               	movlw	10
 12131  00675A  5C05               	subwf	(??_isdigit+2)^(0+1280),w,c
 12132  00675C  A0D8               	btfss	status,0,c
 12133  00675E  EFB3  F033         	goto	i2u484_41
 12134  006762  EFB6  F033         	goto	i2u484_40
 12135  006766                     i2u484_41:
 12136  006766  0E01               	movlw	1
 12137  006768  EFB7  F033         	goto	i2u485_40
 12138  00676C                     i2u484_40:
 12139  00676C  0E00               	movlw	0
 12140  00676E                     i2u485_40:
 12141  00676E  6E01               	movwf	?_isdigit^(0+1280),c
 12142  006770  6A02               	clrf	(?_isdigit+1)^(0+1280),c
 12143  006772  0012               	return		;funcret
 12144  006774                     __end_of_isdigit:
 12145                           	callstack 0
 12146                           
 12147 ;; *************** function ___wmul *****************
 12148 ;; Defined at:
 12149 ;;		line 15 in file "C:\Program Files\Microchip\xc8\v2.32\pic\sources\c99\common\Umul16.c"
 12150 ;; Parameters:    Size  Location     Type
 12151 ;;  multiplier      2    0[COMRAM] unsigned int 
 12152 ;;  multiplicand    2    2[COMRAM] unsigned int 
 12153 ;; Auto vars:     Size  Location     Type
 12154 ;;  product         2    4[COMRAM] unsigned int 
 12155 ;; Return value:  Size  Location     Type
 12156 ;;                  2    0[COMRAM] unsigned int 
 12157 ;; Registers used:
 12158 ;;		wreg, status,2, status,0, prodl, prodh
 12159 ;; Tracked objects:
 12160 ;;		On entry : 0/0
 12161 ;;		On exit  : 0/0
 12162 ;;		Unchanged: 0/0
 12163 ;; Data sizes:     COMRAM   BANK5   BANK6   BANK7   BANK8   BANK9  BANK10  BANK11  BANK12  BANK13  BANK14  BANK15  BANK1
      +6  BANK17  BANK18  BANK19  BANK20  BANK21  BANK22  BANK23  BANK24  BANK25  BANK26  BANK27  BANK28  BANK29  BANK30  BANK3
      +1  BANK32  BANK33  BANK34  BANK35  BANK36  BANK37
 12164 ;;      Params:         4       0       0       0       0       0       0       0       0       0       0       0       
      +0       0       0       0       0       0       0       0       0       0       0       0       0       0       0       
      +0       0       0       0       0       0       0
 12165 ;;      Locals:         2       0       0       0       0       0       0       0       0       0       0       0       
      +0       0       0       0       0       0       0       0       0       0       0       0       0       0       0       
      +0       0       0       0       0       0       0
 12166 ;;      Temps:          0       0       0       0       0       0       0       0       0       0       0       0       
      +0       0       0       0       0       0       0       0       0       0       0       0       0       0       0       
      +0       0       0       0       0       0       0
 12167 ;;      Totals:         6       0       0       0       0       0       0       0       0       0       0       0       
      +0       0       0       0       0       0       0       0       0       0       0       0       0       0       0       
      +0       0       0       0       0       0       0
 12168 ;;Total ram usage:        6 bytes
 12169 ;; Hardware stack levels used: 1
 12170 ;; This function calls:
 12171 ;;		Nothing
 12172 ;; This function is called by:
 12173 ;;		_atoi
 12174 ;; This function uses a non-reentrant model
 12175 ;;
 12176                           
 12177                           	psect	text63
 12178  006806                     __ptext63:
 12179                           	callstack 0
 12180  006806                     ___wmul:
 12181                           	callstack 117
 12182  006806  5001               	movf	___wmul@multiplier^(0+1280),w,c
 12183  006808  0203               	mulwf	___wmul@multiplicand^(0+1280),c
 12184  00680A  0061 F3CC  F505    	movff	prodl,___wmul@product
 12185  006810  0061 F3D0  F506    	movff	prodh,___wmul@product+1
 12186  006816  5001               	movf	___wmul@multiplier^(0+1280),w,c
 12187  006818  0204               	mulwf	(___wmul@multiplicand+1)^(0+1280),c
 12188  00681A  50F3               	movf	243,w,c
 12189  00681C  2606               	addwf	(___wmul@product+1)^(0+1280),f,c
 12190  00681E  5002               	movf	(___wmul@multiplier+1)^(0+1280),w,c
 12191  006820  0203               	mulwf	___wmul@multiplicand^(0+1280),c
 12192  006822  50F3               	movf	243,w,c
 12193  006824  2606               	addwf	(___wmul@product+1)^(0+1280),f,c
 12194  006826  C505  F501         	movff	___wmul@product,?___wmul
 12195  00682A  C506  F502         	movff	___wmul@product+1,?___wmul+1
 12196  00682E  0012               	return		;funcret
 12197  006830                     __end_of___wmul:
 12198                           	callstack 0
 12199                           
 12200 ;; *************** function ___xxtofl *****************
 12201 ;; Defined at:
 12202 ;;		line 10 in file "C:\Program Files\Microchip\xc8\v2.32\pic\sources\c99\common\xxtofl.c"
 12203 ;; Parameters:    Size  Location     Type
 12204 ;;  sign            1    wreg     unsigned char 
 12205 ;;  val             4    0[COMRAM] long 
 12206 ;; Auto vars:     Size  Location     Type
 12207 ;;  sign            1    8[COMRAM] unsigned char 
 12208 ;;  arg             4   10[COMRAM] unsigned long 
 12209 ;;  exp             1    9[COMRAM] unsigned char 
 12210 ;; Return value:  Size  Location     Type
 12211 ;;                  4    0[COMRAM] unsigned char 
 12212 ;; Registers used:
 12213 ;;		wreg, status,2, status,0
 12214 ;; Tracked objects:
 12215 ;;		On entry : 0/0
 12216 ;;		On exit  : 0/0
 12217 ;;		Unchanged: 0/0
 12218 ;; Data sizes:     COMRAM   BANK5   BANK6   BANK7   BANK8   BANK9  BANK10  BANK11  BANK12  BANK13  BANK14  BANK15  BANK1
      +6  BANK17  BANK18  BANK19  BANK20  BANK21  BANK22  BANK23  BANK24  BANK25  BANK26  BANK27  BANK28  BANK29  BANK30  BANK3
      +1  BANK32  BANK33  BANK34  BANK35  BANK36  BANK37
 12219 ;;      Params:         4       0       0       0       0       0       0       0       0       0       0       0       
      +0       0       0       0       0       0       0       0       0       0       0       0       0       0       0       
      +0       0       0       0       0       0       0
 12220 ;;      Locals:         6       0       0       0       0       0       0       0       0       0       0       0       
      +0       0       0       0       0       0       0       0       0       0       0       0       0       0       0       
      +0       0       0       0       0       0       0
 12221 ;;      Temps:          4       0       0       0       0       0       0       0       0       0       0       0       
      +0       0       0       0       0       0       0       0       0       0       0       0       0       0       0       
      +0       0       0       0       0       0       0
 12222 ;;      Totals:        14       0       0       0       0       0       0       0       0       0       0       0       
      +0       0       0       0       0       0       0       0       0       0       0       0       0       0       0       
      +0       0       0       0       0       0       0
 12223 ;;Total ram usage:       14 bytes
 12224 ;; Hardware stack levels used: 1
 12225 ;; This function calls:
 12226 ;;		Nothing
 12227 ;; This function is called by:
 12228 ;;		_sensor_interrupt
 12229 ;; This function uses a non-reentrant model
 12230 ;;
 12231                           
 12232                           	psect	text64
 12233  0051D4                     __ptext64:
 12234                           	callstack 0
 12235  0051D4                     ___xxtofl:
 12236                           	callstack 121
 12237                           
 12238                           ;incstack = 0
 12239                           ;___xxtofl@sign stored from wreg
 12240  0051D4  6E09               	movwf	___xxtofl@sign^(0+1280),c
 12241  0051D6  5009               	movf	___xxtofl@sign^(0+1280),w,c
 12242  0051D8  B4D8               	btfsc	status,2,c
 12243  0051DA  EFF1  F028         	goto	i2u621_41
 12244  0051DE  EFF3  F028         	goto	i2u621_40
 12245  0051E2                     i2u621_41:
 12246  0051E2  EF15  F029         	goto	i2l1316
 12247  0051E6                     i2u621_40:
 12248  0051E6  BE04               	btfsc	(___xxtofl@val+3)^(0+1280),7,c
 12249  0051E8  EFFA  F028         	goto	i2u622_40
 12250  0051EC  EFF8  F028         	goto	i2u622_41
 12251  0051F0                     i2u622_41:
 12252  0051F0  EF15  F029         	goto	i2l1316
 12253  0051F4                     i2u622_40:
 12254  0051F4  C501  F505         	movff	___xxtofl@val,??___xxtofl
 12255  0051F8  C502  F506         	movff	___xxtofl@val+1,??___xxtofl+1
 12256  0051FC  C503  F507         	movff	___xxtofl@val+2,??___xxtofl+2
 12257  005200  C504  F508         	movff	___xxtofl@val+3,??___xxtofl+3
 12258  005204  1E05               	comf	??___xxtofl^(0+1280),f,c
 12259  005206  1E06               	comf	(??___xxtofl+1)^(0+1280),f,c
 12260  005208  1E07               	comf	(??___xxtofl+2)^(0+1280),f,c
 12261  00520A  1E08               	comf	(??___xxtofl+3)^(0+1280),f,c
 12262  00520C  2A05               	incf	??___xxtofl^(0+1280),f,c
 12263  00520E  0E00               	movlw	0
 12264  005210  2206               	addwfc	(??___xxtofl+1)^(0+1280),f,c
 12265  005212  2207               	addwfc	(??___xxtofl+2)^(0+1280),f,c
 12266  005214  2208               	addwfc	(??___xxtofl+3)^(0+1280),f,c
 12267  005216  C505  F50B         	movff	??___xxtofl,___xxtofl@arg
 12268  00521A  C506  F50C         	movff	??___xxtofl+1,___xxtofl@arg+1
 12269  00521E  C507  F50D         	movff	??___xxtofl+2,___xxtofl@arg+2
 12270  005222  C508  F50E         	movff	??___xxtofl+3,___xxtofl@arg+3
 12271  005226  EF1D  F029         	goto	i2l5427
 12272  00522A                     i2l1316:
 12273  00522A  C501  F50B         	movff	___xxtofl@val,___xxtofl@arg
 12274  00522E  C502  F50C         	movff	___xxtofl@val+1,___xxtofl@arg+1
 12275  005232  C503  F50D         	movff	___xxtofl@val+2,___xxtofl@arg+2
 12276  005236  C504  F50E         	movff	___xxtofl@val+3,___xxtofl@arg+3
 12277  00523A                     i2l5427:
 12278  00523A  5001               	movf	___xxtofl@val^(0+1280),w,c
 12279  00523C  1002               	iorwf	(___xxtofl@val+1)^(0+1280),w,c
 12280  00523E  1003               	iorwf	(___xxtofl@val+2)^(0+1280),w,c
 12281  005240  1004               	iorwf	(___xxtofl@val+3)^(0+1280),w,c
 12282  005242  A4D8               	btfss	status,2,c
 12283  005244  EF26  F029         	goto	i2u623_41
 12284  005248  EF28  F029         	goto	i2u623_40
 12285  00524C                     i2u623_41:
 12286  00524C  EF32  F029         	goto	i2l5433
 12287  005250                     i2u623_40:
 12288  005250  0E00               	movlw	0
 12289  005252  6E01               	movwf	?___xxtofl^(0+1280),c
 12290  005254  0E00               	movlw	0
 12291  005256  6E02               	movwf	(?___xxtofl+1)^(0+1280),c
 12292  005258  0E00               	movlw	0
 12293  00525A  6E03               	movwf	(?___xxtofl+2)^(0+1280),c
 12294  00525C  0E00               	movlw	0
 12295  00525E  6E04               	movwf	(?___xxtofl+3)^(0+1280),c
 12296  005260  EFC3  F029         	goto	i2l1319
 12297  005264                     i2l5433:
 12298  005264  0E96               	movlw	150
 12299  005266  6E0A               	movwf	___xxtofl@exp^(0+1280),c
 12300  005268  EF3C  F029         	goto	i2l5437
 12301  00526C                     i2l5435:
 12302  00526C  2A0A               	incf	___xxtofl@exp^(0+1280),f,c
 12303  00526E  90D8               	bcf	status,0,c
 12304  005270  320E               	rrcf	(___xxtofl@arg+3)^(0+1280),f,c
 12305  005272  320D               	rrcf	(___xxtofl@arg+2)^(0+1280),f,c
 12306  005274  320C               	rrcf	(___xxtofl@arg+1)^(0+1280),f,c
 12307  005276  320B               	rrcf	___xxtofl@arg^(0+1280),f,c
 12308  005278                     i2l5437:
 12309  005278  0E00               	movlw	0
 12310  00527A  140B               	andwf	___xxtofl@arg^(0+1280),w,c
 12311  00527C  6E05               	movwf	??___xxtofl^(0+1280),c
 12312  00527E  0E00               	movlw	0
 12313  005280  140C               	andwf	(___xxtofl@arg+1)^(0+1280),w,c
 12314  005282  6E06               	movwf	(??___xxtofl+1)^(0+1280),c
 12315  005284  0E00               	movlw	0
 12316  005286  140D               	andwf	(___xxtofl@arg+2)^(0+1280),w,c
 12317  005288  6E07               	movwf	(??___xxtofl+2)^(0+1280),c
 12318  00528A  0EFE               	movlw	254
 12319  00528C  140E               	andwf	(___xxtofl@arg+3)^(0+1280),w,c
 12320  00528E  6E08               	movwf	(??___xxtofl+3)^(0+1280),c
 12321  005290  5005               	movf	??___xxtofl^(0+1280),w,c
 12322  005292  1006               	iorwf	(??___xxtofl+1)^(0+1280),w,c
 12323  005294  1007               	iorwf	(??___xxtofl+2)^(0+1280),w,c
 12324  005296  1008               	iorwf	(??___xxtofl+3)^(0+1280),w,c
 12325  005298  A4D8               	btfss	status,2,c
 12326  00529A  EF51  F029         	goto	i2u624_41
 12327  00529E  EF53  F029         	goto	i2u624_40
 12328  0052A2                     i2u624_41:
 12329  0052A2  EF36  F029         	goto	i2l5435
 12330  0052A6                     i2u624_40:
 12331  0052A6  EF61  F029         	goto	i2l1323
 12332  0052AA                     i2l5439:
 12333  0052AA  2A0A               	incf	___xxtofl@exp^(0+1280),f,c
 12334  0052AC  0E01               	movlw	1
 12335  0052AE  260B               	addwf	___xxtofl@arg^(0+1280),f,c
 12336  0052B0  0E00               	movlw	0
 12337  0052B2  220C               	addwfc	(___xxtofl@arg+1)^(0+1280),f,c
 12338  0052B4  220D               	addwfc	(___xxtofl@arg+2)^(0+1280),f,c
 12339  0052B6  220E               	addwfc	(___xxtofl@arg+3)^(0+1280),f,c
 12340  0052B8  90D8               	bcf	status,0,c
 12341  0052BA  320E               	rrcf	(___xxtofl@arg+3)^(0+1280),f,c
 12342  0052BC  320D               	rrcf	(___xxtofl@arg+2)^(0+1280),f,c
 12343  0052BE  320C               	rrcf	(___xxtofl@arg+1)^(0+1280),f,c
 12344  0052C0  320B               	rrcf	___xxtofl@arg^(0+1280),f,c
 12345  0052C2                     i2l1323:
 12346  0052C2  0E00               	movlw	0
 12347  0052C4  140B               	andwf	___xxtofl@arg^(0+1280),w,c
 12348  0052C6  6E05               	movwf	??___xxtofl^(0+1280),c
 12349  0052C8  0E00               	movlw	0
 12350  0052CA  140C               	andwf	(___xxtofl@arg+1)^(0+1280),w,c
 12351  0052CC  6E06               	movwf	(??___xxtofl+1)^(0+1280),c
 12352  0052CE  0E00               	movlw	0
 12353  0052D0  140D               	andwf	(___xxtofl@arg+2)^(0+1280),w,c
 12354  0052D2  6E07               	movwf	(??___xxtofl+2)^(0+1280),c
 12355  0052D4  0EFF               	movlw	255
 12356  0052D6  140E               	andwf	(___xxtofl@arg+3)^(0+1280),w,c
 12357  0052D8  6E08               	movwf	(??___xxtofl+3)^(0+1280),c
 12358  0052DA  5005               	movf	??___xxtofl^(0+1280),w,c
 12359  0052DC  1006               	iorwf	(??___xxtofl+1)^(0+1280),w,c
 12360  0052DE  1007               	iorwf	(??___xxtofl+2)^(0+1280),w,c
 12361  0052E0  1008               	iorwf	(??___xxtofl+3)^(0+1280),w,c
 12362  0052E2  A4D8               	btfss	status,2,c
 12363  0052E4  EF76  F029         	goto	i2u625_41
 12364  0052E8  EF78  F029         	goto	i2u625_40
 12365  0052EC                     i2u625_41:
 12366  0052EC  EF55  F029         	goto	i2l5439
 12367  0052F0                     i2u625_40:
 12368  0052F0  EF80  F029         	goto	i2l5447
 12369  0052F4                     i2l5445:
 12370  0052F4  060A               	decf	___xxtofl@exp^(0+1280),f,c
 12371  0052F6  90D8               	bcf	status,0,c
 12372  0052F8  360B               	rlcf	___xxtofl@arg^(0+1280),f,c
 12373  0052FA  360C               	rlcf	(___xxtofl@arg+1)^(0+1280),f,c
 12374  0052FC  360D               	rlcf	(___xxtofl@arg+2)^(0+1280),f,c
 12375  0052FE  360E               	rlcf	(___xxtofl@arg+3)^(0+1280),f,c
 12376  005300                     i2l5447:
 12377  005300  BE0D               	btfsc	(___xxtofl@arg+2)^(0+1280),7,c
 12378  005302  EF85  F029         	goto	i2u626_41
 12379  005306  EF87  F029         	goto	i2u626_40
 12380  00530A                     i2u626_41:
 12381  00530A  EF8F  F029         	goto	i2l1330
 12382  00530E                     i2u626_40:
 12383  00530E  0E02               	movlw	2
 12384  005310  600A               	cpfslt	___xxtofl@exp^(0+1280),c
 12385  005312  EF8D  F029         	goto	i2u627_41
 12386  005316  EF8F  F029         	goto	i2u627_40
 12387  00531A                     i2u627_41:
 12388  00531A  EF7A  F029         	goto	i2l5445
 12389  00531E                     i2u627_40:
 12390  00531E                     i2l1330:
 12391  00531E  B00A               	btfsc	___xxtofl@exp^(0+1280),0,c
 12392  005320  EF94  F029         	goto	i2u628_41
 12393  005324  EF96  F029         	goto	i2u628_40
 12394  005328                     i2u628_41:
 12395  005328  EF97  F029         	goto	i2l5453
 12396  00532C                     i2u628_40:
 12397  00532C  9E0D               	bcf	(___xxtofl@arg+2)^(0+1280),7,c
 12398  00532E                     i2l5453:
 12399  00532E  90D8               	bcf	status,0,c
 12400  005330  320A               	rrcf	___xxtofl@exp^(0+1280),f,c
 12401  005332  C50A  F505         	movff	___xxtofl@exp,??___xxtofl
 12402  005336  6A06               	clrf	(??___xxtofl+1)^(0+1280),c
 12403  005338  6A07               	clrf	(??___xxtofl+2)^(0+1280),c
 12404  00533A  6A08               	clrf	(??___xxtofl+3)^(0+1280),c
 12405  00533C  C505  F508         	movff	??___xxtofl,??___xxtofl+3
 12406  005340  6A07               	clrf	(??___xxtofl+2)^(0+1280),c
 12407  005342  6A06               	clrf	(??___xxtofl+1)^(0+1280),c
 12408  005344  6A05               	clrf	??___xxtofl^(0+1280),c
 12409  005346  5005               	movf	??___xxtofl^(0+1280),w,c
 12410  005348  120B               	iorwf	___xxtofl@arg^(0+1280),f,c
 12411  00534A  5006               	movf	(??___xxtofl+1)^(0+1280),w,c
 12412  00534C  120C               	iorwf	(___xxtofl@arg+1)^(0+1280),f,c
 12413  00534E  5007               	movf	(??___xxtofl+2)^(0+1280),w,c
 12414  005350  120D               	iorwf	(___xxtofl@arg+2)^(0+1280),f,c
 12415  005352  5008               	movf	(??___xxtofl+3)^(0+1280),w,c
 12416  005354  120E               	iorwf	(___xxtofl@arg+3)^(0+1280),f,c
 12417  005356  5009               	movf	___xxtofl@sign^(0+1280),w,c
 12418  005358  B4D8               	btfsc	status,2,c
 12419  00535A  EFB1  F029         	goto	i2u629_41
 12420  00535E  EFB3  F029         	goto	i2u629_40
 12421  005362                     i2u629_41:
 12422  005362  EFBB  F029         	goto	i2l5463
 12423  005366                     i2u629_40:
 12424  005366  BE04               	btfsc	(___xxtofl@val+3)^(0+1280),7,c
 12425  005368  EFBA  F029         	goto	i2u630_40
 12426  00536C  EFB8  F029         	goto	i2u630_41
 12427  005370                     i2u630_41:
 12428  005370  EFBB  F029         	goto	i2l5463
 12429  005374                     i2u630_40:
 12430  005374  8E0E               	bsf	(___xxtofl@arg+3)^(0+1280),7,c
 12431  005376                     i2l5463:
 12432  005376  C50B  F501         	movff	___xxtofl@arg,?___xxtofl
 12433  00537A  C50C  F502         	movff	___xxtofl@arg+1,?___xxtofl+1
 12434  00537E  C50D  F503         	movff	___xxtofl@arg+2,?___xxtofl+2
 12435  005382  C50E  F504         	movff	___xxtofl@arg+3,?___xxtofl+3
 12436  005386                     i2l1319:
 12437  005386  0012               	return		;funcret
 12438  005388                     __end_of___xxtofl:
 12439                           	callstack 0
 12440                           
 12441 ;; *************** function _ADCC_GetSingleConversion *****************
 12442 ;; Defined at:
 12443 ;;		line 137 in file "mcc_generated_files/adcc.c"
 12444 ;; Parameters:    Size  Location     Type
 12445 ;;  channel         1    wreg     enum E16618
 12446 ;; Auto vars:     Size  Location     Type
 12447 ;;  channel         1    4[COMRAM] enum E16618
 12448 ;; Return value:  Size  Location     Type
 12449 ;;                  2    0[COMRAM] unsigned short 
 12450 ;; Registers used:
 12451 ;;		wreg, status,2, status,0
 12452 ;; Tracked objects:
 12453 ;;		On entry : 0/0
 12454 ;;		On exit  : 0/0
 12455 ;;		Unchanged: 0/0
 12456 ;; Data sizes:     COMRAM   BANK5   BANK6   BANK7   BANK8   BANK9  BANK10  BANK11  BANK12  BANK13  BANK14  BANK15  BANK1
      +6  BANK17  BANK18  BANK19  BANK20  BANK21  BANK22  BANK23  BANK24  BANK25  BANK26  BANK27  BANK28  BANK29  BANK30  BANK3
      +1  BANK32  BANK33  BANK34  BANK35  BANK36  BANK37
 12457 ;;      Params:         2       0       0       0       0       0       0       0       0       0       0       0       
      +0       0       0       0       0       0       0       0       0       0       0       0       0       0       0       
      +0       0       0       0       0       0       0
 12458 ;;      Locals:         1       0       0       0       0       0       0       0       0       0       0       0       
      +0       0       0       0       0       0       0       0       0       0       0       0       0       0       0       
      +0       0       0       0       0       0       0
 12459 ;;      Temps:          2       0       0       0       0       0       0       0       0       0       0       0       
      +0       0       0       0       0       0       0       0       0       0       0       0       0       0       0       
      +0       0       0       0       0       0       0
 12460 ;;      Totals:         5       0       0       0       0       0       0       0       0       0       0       0       
      +0       0       0       0       0       0       0       0       0       0       0       0       0       0       0       
      +0       0       0       0       0       0       0
 12461 ;;Total ram usage:        5 bytes
 12462 ;; Hardware stack levels used: 1
 12463 ;; This function calls:
 12464 ;;		Nothing
 12465 ;; This function is called by:
 12466 ;;		_sensor_interrupt
 12467 ;; This function uses a non-reentrant model
 12468 ;;
 12469                           
 12470                           	psect	text65
 12471  0067AA                     __ptext65:
 12472                           	callstack 0
 12473  0067AA                     _ADCC_GetSingleConversion:
 12474                           	callstack 121
 12475                           
 12476                           ;incstack = 0
 12477                           ;ADCC_GetSingleConversion@channel stored from wreg
 12478  0067AA  6E05               	movwf	ADCC_GetSingleConversion@channel^(0+1280),c
 12479  0067AC                     
 12480                           ;mcc_generated_files/adcc.c: 137: adc_result_t ADCC_GetSingleConversion(adcc_channel_t c
      +                          hannel);mcc_generated_files/adcc.c: 138: {;mcc_generated_files/adcc.c: 140:     ADPCH = 
      +                          channel;
 12481  0067AC  0061  F414  F3EC   	movff	ADCC_GetSingleConversion@channel,1004	;volatile
 12482  0067B2                     
 12483                           ;mcc_generated_files/adcc.c: 143:     ADCON0bits.ADON = 1;
 12484  0067B2  0103               	movlb	3	; () banked
 12485  0067B4  8FF3               	bsf	243,7,b	;volatile
 12486  0067B6                     
 12487                           ; BSR set to: 3
 12488                           ;mcc_generated_files/adcc.c: 146:     ADCON0bits.ADCONT = 0;
 12489  0067B6  9DF3               	bcf	243,6,b	;volatile
 12490  0067B8                     
 12491                           ; BSR set to: 3
 12492                           ;mcc_generated_files/adcc.c: 149:     ADCON0bits.ADGO = 1;
 12493  0067B8  81F3               	bsf	243,0,b	;volatile
 12494  0067BA                     i2l360:
 12495                           
 12496                           ; BSR set to: 3
 12497                           ;mcc_generated_files/adcc.c: 153:     while (ADCON0bits.ADGO)
 12498  0067BA  B1F3               	btfsc	243,0,b	;volatile
 12499  0067BC  EFE2  F033         	goto	i2u620_41
 12500  0067C0  EFE4  F033         	goto	i2u620_40
 12501  0067C4                     i2u620_41:
 12502  0067C4  EFDD  F033         	goto	i2l360
 12503  0067C8                     i2u620_40:
 12504  0067C8                     
 12505                           ; BSR set to: 3
 12506                           ;mcc_generated_files/adcc.c: 159:     return ((adc_result_t)((ADRESH << 8) + ADRESL));
 12507  0067C8  51EB               	movf	235,w,b	;volatile
 12508  0067CA  6E04               	movwf	(??_ADCC_GetSingleConversion+1)^(0+1280),c
 12509  0067CC  6A03               	clrf	??_ADCC_GetSingleConversion^(0+1280),c
 12510  0067CE  51EA               	movf	234,w,b	;volatile
 12511  0067D0  2403               	addwf	??_ADCC_GetSingleConversion^(0+1280),w,c
 12512  0067D2  6E01               	movwf	?_ADCC_GetSingleConversion^(0+1280),c
 12513  0067D4  0E00               	movlw	0
 12514  0067D6  2004               	addwfc	(??_ADCC_GetSingleConversion+1)^(0+1280),w,c
 12515  0067D8  6E02               	movwf	(?_ADCC_GetSingleConversion+1)^(0+1280),c
 12516  0067DA                     
 12517                           ; BSR set to: 3
 12518  0067DA  0012               	return		;funcret
 12519  0067DC                     __end_of_ADCC_GetSingleConversion:
 12520                           	callstack 0
 12521                           
 12522                           ;
 12523                           ; Interrupt Vector Table @ 0x8
 12524                           ;
 12525                           
 12526                           	psect	ivt0x8
 12527  000008                     __pivt0x8:
 12528                           	callstack 0
 12529  000008                     ivt0x8_base:
 12530                           	callstack 0
 12531                           
 12532                           ; high-priority vector
 12533  000008  EF08  F032         	goto	_INTERRUPT_InterruptManager
 12534  000018                     	org	16
 12535                           
 12536                           ; low-priority vector
 12537  000018  00FF               	reset	
 12538                           
 12539                           	psect	text66
 12540  000000                     __ptext66:
 12541                           	callstack 0
 12542  000000                     
 12543                           	psect	rparam
 12544  0000                     
 12545                           	psect	idloc
 12546                           
 12547                           ;Config register IDLOC0 @ 0x200000
 12548                           ;	unspecified, using default values
 12549  200000                     	org	2097152
 12550  200000  0FFF               	dw	4095
 12551                           
 12552                           ;Config register IDLOC1 @ 0x200002
 12553                           ;	unspecified, using default values
 12554  200002                     	org	2097154
 12555  200002  0FFF               	dw	4095
 12556                           
 12557                           ;Config register IDLOC2 @ 0x200004
 12558                           ;	unspecified, using default values
 12559  200004                     	org	2097156
 12560  200004  0FFF               	dw	4095
 12561                           
 12562                           ;Config register IDLOC3 @ 0x200006
 12563                           ;	unspecified, using default values
 12564  200006                     	org	2097158
 12565  200006  0FFF               	dw	4095
 12566                           
 12567                           ;Config register IDLOC4 @ 0x200008
 12568                           ;	unspecified, using default values
 12569  200008                     	org	2097160
 12570  200008  0FFF               	dw	4095
 12571                           
 12572                           ;Config register IDLOC5 @ 0x20000A
 12573                           ;	unspecified, using default values
 12574  20000A                     	org	2097162
 12575  20000A  0FFF               	dw	4095
 12576                           
 12577                           ;Config register IDLOC6 @ 0x20000C
 12578                           ;	unspecified, using default values
 12579  20000C                     	org	2097164
 12580  20000C  0FFF               	dw	4095
 12581                           
 12582                           ;Config register IDLOC7 @ 0x20000E
 12583                           ;	unspecified, using default values
 12584  20000E                     	org	2097166
 12585  20000E  0FFF               	dw	4095
 12586                           
 12587                           ;Config register IDLOC8 @ 0x200010
 12588                           ;	unspecified, using default values
 12589  200010                     	org	2097168
 12590  200010  0FFF               	dw	4095
 12591                           
 12592                           ;Config register IDLOC9 @ 0x200012
 12593                           ;	unspecified, using default values
 12594  200012                     	org	2097170
 12595  200012  0FFF               	dw	4095
 12596                           
 12597                           ;Config register IDLOC10 @ 0x200014
 12598                           ;	unspecified, using default values
 12599  200014                     	org	2097172
 12600  200014  0FFF               	dw	4095
 12601                           
 12602                           ;Config register IDLOC11 @ 0x200016
 12603                           ;	unspecified, using default values
 12604  200016                     	org	2097174
 12605  200016  0FFF               	dw	4095
 12606                           
 12607                           ;Config register IDLOC12 @ 0x200018
 12608                           ;	unspecified, using default values
 12609  200018                     	org	2097176
 12610  200018  0FFF               	dw	4095
 12611                           
 12612                           ;Config register IDLOC13 @ 0x20001A
 12613                           ;	unspecified, using default values
 12614  20001A                     	org	2097178
 12615  20001A  0FFF               	dw	4095
 12616                           
 12617                           ;Config register IDLOC14 @ 0x20001C
 12618                           ;	unspecified, using default values
 12619  20001C                     	org	2097180
 12620  20001C  0FFF               	dw	4095
 12621                           
 12622                           ;Config register IDLOC15 @ 0x20001E
 12623                           ;	unspecified, using default values
 12624  20001E                     	org	2097182
 12625  20001E  0FFF               	dw	4095
 12626                           
 12627                           	psect	config
 12628                           
 12629                           ;Config register CONFIG1 @ 0x300000
 12630                           ;	External Oscillator Selection
 12631                           ;	FEXTOSC = OFF, Oscillator not enabled
 12632                           ;	Reset Oscillator Selection
 12633                           ;	RSTOSC = HFINTOSC_1MHZ, HFINTOSC with HFFRQ = 4 MHz and CDIV = 4:1
 12634  300000                     	org	3145728
 12635  300000  EC                 	db	236
 12636                           
 12637                           ;Config register CONFIG2 @ 0x300001
 12638                           ;	Clock out Enable bit
 12639                           ;	CLKOUTEN = OFF, CLKOUT function is disabled
 12640                           ;	PRLOCKED One-Way Set Enable bit
 12641                           ;	PR1WAY = ON, PRLOCKED bit can be cleared and set only once
 12642                           ;	Clock Switch Enable bit
 12643                           ;	CSWEN = ON, Writing to NOSC and NDIV is allowed
 12644                           ;	Fail-Safe Clock Monitor Enable bit
 12645                           ;	FCMEN = ON, Fail-Safe Clock Monitor enabled
 12646  300001                     	org	3145729
 12647  300001  FF                 	db	255
 12648                           
 12649                           ;Config register CONFIG3 @ 0x300002
 12650                           ;	MCLR Enable bit
 12651                           ;	MCLRE = EXTMCLR, If LVP = 0, MCLR pin is MCLR; If LVP = 1, RE3 pin function is MCLR
 12652                           ;	Power-up timer selection bits
 12653                           ;	PWRTS = PWRT_OFF, PWRT is disabled
 12654                           ;	Multi-vector enable bit
 12655                           ;	MVECEN = OFF, Interrupt contoller does not use vector table to prioritze interrupts
 12656                           ;	IVTLOCK bit One-way set enable bit
 12657                           ;	IVT1WAY = ON, IVTLOCKED bit can be cleared and set only once
 12658                           ;	Low Power BOR Enable bit
 12659                           ;	LPBOREN = OFF, Low-Power BOR disabled
 12660                           ;	Brown-out Reset Enable bits
 12661                           ;	BOREN = SBORDIS, Brown-out Reset enabled , SBOREN bit is ignored
 12662  300002                     	org	3145730
 12663  300002  F7                 	db	247
 12664                           
 12665                           ;Config register CONFIG4 @ 0x300003
 12666                           ;	Brown-out Reset Voltage Selection bits
 12667                           ;	BORV = VBOR_1P9, Brown-out Reset Voltage (VBOR) set to 1.9V
 12668                           ;	ZCD Disable bit
 12669                           ;	ZCD = OFF, ZCD module is disabled. ZCD can be enabled by setting the ZCDSEN bit of ZCD
      +                          CON
 12670                           ;	PPSLOCK bit One-Way Set Enable bit
 12671                           ;	PPS1WAY = ON, PPSLOCKED bit can be cleared and set only once; PPS registers remain loc
      +                          ked after one clear/set cycle
 12672                           ;	Stack Full/Underflow Reset Enable bit
 12673                           ;	STVREN = ON, Stack full/underflow will cause Reset
 12674                           ;	Low Voltage Programming Enable bit
 12675                           ;	LVP = ON, Low voltage programming enabled. MCLR/VPP pin function is MCLR. MCLRE config
      +                          uration bit is ignored
 12676                           ;	Extended Instruction Set Enable bit
 12677                           ;	XINST = OFF, Extended Instruction Set and Indexed Addressing Mode disabled
 12678  300003                     	org	3145731
 12679  300003  FF                 	db	255
 12680                           
 12681                           ;Config register CONFIG5 @ 0x300004
 12682                           ;	WDT Period selection bits
 12683                           ;	WDTCPS = WDTCPS_31, Divider ratio 1:65536; software control of WDTPS
 12684                           ;	WDT operating mode
 12685                           ;	WDTE = OFF, WDT Disabled; SWDTEN is ignored
 12686  300004                     	org	3145732
 12687  300004  9F                 	db	159
 12688                           
 12689                           ;Config register CONFIG6 @ 0x300005
 12690                           ;	WDT Window Select bits
 12691                           ;	WDTCWS = WDTCWS_7, window always open (100%); software control; keyed access not requi
      +                          red
 12692                           ;	WDT input clock selector
 12693                           ;	WDTCCS = SC, Software Control
 12694  300005                     	org	3145733
 12695  300005  FF                 	db	255
 12696                           
 12697                           ;Config register CONFIG7 @ 0x300006
 12698                           ;	Boot Block Size selection bits
 12699                           ;	BBSIZE = BBSIZE_512, Boot Block size is 512 words
 12700                           ;	Boot Block enable bit
 12701                           ;	BBEN = OFF, Boot block disabled
 12702                           ;	Storage Area Flash enable bit
 12703                           ;	SAFEN = OFF, SAF disabled
 12704                           ;	Background Debugger
 12705                           ;	DEBUG = OFF, Background Debugger disabled
 12706  300006                     	org	3145734
 12707  300006  FF                 	db	255
 12708                           
 12709                           ;Config register CONFIG8 @ 0x300007
 12710                           ;	Boot Block Write Protection bit
 12711                           ;	WRTB = OFF, Boot Block not Write protected
 12712                           ;	Configuration Register Write Protection bit
 12713                           ;	WRTC = OFF, Configuration registers not Write protected
 12714                           ;	Data EEPROM Write Protection bit
 12715                           ;	WRTD = OFF, Data EEPROM not Write protected
 12716                           ;	SAF Write protection bit
 12717                           ;	WRTSAF = OFF, SAF not Write Protected
 12718                           ;	Application Block write protection bit
 12719                           ;	WRTAPP = OFF, Application Block not write protected
 12720  300007                     	org	3145735
 12721  300007  FF                 	db	255
 12722                           
 12723                           ; Padding undefined space
 12724  300008                     	org	3145736
 12725  300008  FF                 	db	255
 12726                           
 12727                           ;Config register CONFIG10 @ 0x300009
 12728                           ;	PFM and Data EEPROM Code Protection bit
 12729                           ;	CP = OFF, PFM and Data EEPROM code protection disabled
 12730  300009                     	org	3145737
 12731  300009  FF                 	db	255
 12732                           tosu	equ	0x4FF
 12733                           tosh	equ	0x4FE
 12734                           tosl	equ	0x4FD
 12735                           stkptr	equ	0x4FC
 12736                           pclatu	equ	0x4FB
 12737                           pclath	equ	0x4FA
 12738                           pcl	equ	0x4F9
 12739                           tblptru	equ	0x4F8
 12740                           tblptrh	equ	0x4F7
 12741                           tblptrl	equ	0x4F6
 12742                           tablat	equ	0x4F5
 12743                           prodh	equ	0x4F4
 12744                           prodl	equ	0x4F3
 12745                           indf0	equ	0x4EF
 12746                           postinc0	equ	0x4EE
 12747                           postdec0	equ	0x4ED
 12748                           preinc0	equ	0x4EC
 12749                           plusw0	equ	0x4EB
 12750                           fsr0h	equ	0x4EA
 12751                           fsr0l	equ	0x4E9
 12752                           wreg	equ	0x4E8
 12753                           indf1	equ	0x4E7
 12754                           postinc1	equ	0x4E6
 12755                           postdec1	equ	0x4E5
 12756                           preinc1	equ	0x4E4
 12757                           plusw1	equ	0x4E3
 12758                           fsr1h	equ	0x4E2
 12759                           fsr1l	equ	0x4E1
 12760                           bsr	equ	0x4E0
 12761                           indf2	equ	0x4DF
 12762                           postinc2	equ	0x4DE
 12763                           postdec2	equ	0x4DD
 12764                           preinc2	equ	0x4DC
 12765                           plusw2	equ	0x4DB
 12766                           fsr2h	equ	0x4DA
 12767                           fsr2l	equ	0x4D9
 12768                           status	equ	0x4D8

Data Sizes:
    Strings     97
    Constant    0
    Data        7
    BSS         98
    Persistent  23
    Stack       0

Auto Spaces:
    Space          Size  Autos    Used
    COMRAM           95     95      95
    BANK5           160    108     136
    BANK6           256      3     103
    BANK7           256      0       0
    BANK8           256      0       0
    BANK9           256      0       0
    BANK10          256      0       0
    BANK11          256      0       0
    BANK12          256      0       0
    BANK13          256      0       0
    BANK14          256      0       0
    BANK15          256      0       0
    BANK16          256      0       0
    BANK17          256      0       0
    BANK18          256      0       0
    BANK19          256      0       0
    BANK20          256      0       0
    BANK21          256      0       0
    BANK22          256      0       0
    BANK23          256      0       0
    BANK24          256      0       0
    BANK25          256      0       0
    BANK26          256      0       0
    BANK27          256      0       0
    BANK28          256      0       0
    BANK29          256      0       0
    BANK30          256      0       0
    BANK31          256      0       0
    BANK32          256      0       0
    BANK33          256      0       0
    BANK34          256      0       0
    BANK35          256      0       0
    BANK36          256      0       0
    BANK37          256      0       0

Pointer List with Targets:

    strncmp@_r	PTR const unsigned char  size(2) Largest target is 3
		 -> STR_19(CODE[3]), 

    strncmp@r	PTR const unsigned char  size(2) Largest target is 3
		 -> STR_19(CODE[3]), 

    strncmp@_l	PTR const unsigned char  size(2) Largest target is 3
		 -> vfpfcnvrt@ct(BANK5[3]), 

    strncmp@l	PTR const unsigned char  size(2) Largest target is 3
		 -> vfpfcnvrt@ct(BANK5[3]), 

    strlen@s	PTR const unsigned char  size(2) Largest target is 80
		 -> ?_printf(BANK5[2]), stoa@nuls(COMRAM[7]), dbuf(BANK6[80]), ?_sprintf(BANK5[2]), 
		 -> sensor_interrupt@value_hex(BANK5[4]), sensor_interrupt@value(BANK5[2]), 

    strlen@a	PTR const unsigned char  size(2) Largest target is 80
		 -> ?_printf(BANK5[2]), stoa@nuls(COMRAM[7]), dbuf(BANK6[80]), ?_sprintf(BANK5[2]), 
		 -> sensor_interrupt@value_hex(BANK5[4]), sensor_interrupt@value(BANK5[2]), 

    strcpy@dest	PTR unsigned char  size(2) Largest target is 80
		 -> dbuf(BANK6[80]), 

    strcpy@d	PTR unsigned char  size(2) Largest target is 80
		 -> dbuf(BANK6[80]), 

    strcpy@src	PTR const unsigned char  size(2) Largest target is 80
		 -> STR_14(CODE[4]), STR_13(CODE[4]), STR_10(CODE[4]), STR_9(CODE[4]), 
		 -> dbuf(BANK6[80]), 

    strcpy@s	PTR const unsigned char  size(2) Largest target is 80
		 -> STR_14(CODE[4]), STR_13(CODE[4]), STR_10(CODE[4]), STR_9(CODE[4]), 
		 -> dbuf(BANK6[80]), 

    printf@fmt	PTR const unsigned char  size(2) Largest target is 21
		 -> STR_4(CODE[21]), STR_3(CODE[15]), STR_1(CODE[15]), 

    printf@ap	PTR void [1] size(2) Largest target is 2
		 -> ?_printf(BANK5[2]), ?_sprintf(BANK5[2]), 

    fputs@s	PTR const unsigned char  size(2) Largest target is 80
		 -> dbuf(BANK6[80]), 

    fputs@fp	PTR struct _IO_FILE size(2) Largest target is 7
		 -> NULL(NULL[0]), sprintf@f(COMRAM[6]), 

    fputc@fp.buffer	PTR unsigned char  size(2) Largest target is 4
		 -> sensor_interrupt@value_hex(BANK5[4]), 

    fputc@fp	PTR struct _IO_FILE size(2) Largest target is 7
		 -> NULL(NULL[0]), sprintf@f(COMRAM[6]), 

    atoi@s	PTR const unsigned char  size(2) Largest target is 21
		 -> STR_4(CODE[21]), STR_3(CODE[15]), STR_2(CODE[5]), STR_1(CODE[15]), 

    vfprintf@ap	PTR PTR void  size(2) Largest target is 2
		 -> printf@ap(COMRAM[2]), sprintf@ap(COMRAM[2]), 

    vfprintf@fp	PTR struct _IO_FILE size(2) Largest target is 7
		 -> NULL(NULL[0]), sprintf@f(COMRAM[6]), 

    vfprintf@fmt	PTR const unsigned char  size(2) Largest target is 21
		 -> STR_4(CODE[21]), STR_3(CODE[15]), STR_2(CODE[5]), STR_1(CODE[15]), 

    vfprintf@cfmt	PTR unsigned char  size(2) Largest target is 21
		 -> STR_4(CODE[21]), STR_3(CODE[15]), STR_2(CODE[5]), STR_1(CODE[15]), 

    vfpfcnvrt@cp	PTR unsigned char  size(2) Largest target is 2
		 -> ?_printf(BANK5[2]), ?_sprintf(BANK5[2]), sensor_interrupt@value_hex(BANK5[4]), sensor_interrupt@value(BANK5[2]), 

    vfpfcnvrt@fp	PTR struct _IO_FILE size(2) Largest target is 7
		 -> NULL(NULL[0]), sprintf@f(COMRAM[6]), 

    vfpfcnvrt@ap	PTR PTR void  size(2) Largest target is 2
		 -> printf@ap(COMRAM[2]), sprintf@ap(COMRAM[2]), 

    vfpfcnvrt@fmt	PTR PTR unsigned char  size(2) Largest target is 2
		 -> vfprintf@cfmt(COMRAM[2]), 

    xtoa@fp	PTR struct _IO_FILE size(2) Largest target is 7
		 -> NULL(NULL[0]), sprintf@f(COMRAM[6]), 

    utoa@fp	PTR struct _IO_FILE size(2) Largest target is 7
		 -> NULL(NULL[0]), sprintf@f(COMRAM[6]), 

    stoa@fp	PTR struct _IO_FILE size(2) Largest target is 7
		 -> NULL(NULL[0]), sprintf@f(COMRAM[6]), 

    stoa@s	PTR unsigned char  size(2) Largest target is 2
		 -> ?_printf(BANK5[2]), ?_sprintf(BANK5[2]), sensor_interrupt@value_hex(BANK5[4]), sensor_interrupt@value(BANK5[2]), 

    stoa@cp	PTR unsigned char  size(2) Largest target is 7
		 -> ?_printf(BANK5[2]), stoa@nuls(COMRAM[7]), ?_sprintf(BANK5[2]), sensor_interrupt@value_hex(BANK5[4]), 
		 -> sensor_interrupt@value(BANK5[2]), 

    efgtoa@fp	PTR struct _IO_FILE size(2) Largest target is 7
		 -> NULL(NULL[0]), sprintf@f(COMRAM[6]), 

    sp__strcpy	PTR unsigned char  size(2) Largest target is 80
		 -> dbuf(BANK6[80]), 

    pad@fp	PTR struct _IO_FILE size(2) Largest target is 7
		 -> NULL(NULL[0]), sprintf@f(COMRAM[6]), 

    pad@buf	PTR unsigned char  size(2) Largest target is 80
		 -> dbuf(BANK6[80]), 

    sprintf@fmt	PTR const unsigned char  size(2) Largest target is 5
		 -> STR_2(CODE[5]), 

    sprintf@s	PTR unsigned char  size(2) Largest target is 4
		 -> sensor_interrupt@value_hex(BANK5[4]), 

    sprintf@ap	PTR void [1] size(2) Largest target is 2
		 -> ?_printf(BANK5[2]), ?_sprintf(BANK5[2]), 

    S1706_IO_FILE$buffer	PTR unsigned char  size(2) Largest target is 4
		 -> sensor_interrupt@value_hex(BANK5[4]), 

    f.buffer	PTR unsigned char  size(2) Largest target is 4
		 -> sensor_interrupt@value_hex(BANK5[4]), 

    send_data@val	PTR unsigned char  size(2) Largest target is 4
		 -> sensor_interrupt@value_hex(BANK5[4]), 

    send_AT@t	PTR unsigned char  size(2) Largest target is 9
		 -> STR_8(CODE[3]), STR_7(CODE[7]), STR_6(CODE[9]), STR_5(CODE[6]), 
		 -> sensor_interrupt@value_hex(BANK5[4]), 

    TMR0_SetInterruptHandler@InterruptHandler	PTR FTN()void  size(3) Largest target is 1
		 -> sensor_interrupt(), TMR0_DefaultInterruptHandler(), 

    TMR0_InterruptHandler	PTR FTN()void  size(3) Largest target is 1
		 -> sensor_interrupt(), Absolute function(), TMR0_DefaultInterruptHandler(), 

    UART1_SetErrorHandler@interruptHandler	PTR FTN()void  size(3) Largest target is 1
		 -> UART1_DefaultErrorHandler(), 

    UART1_SetOverrunErrorHandler@interruptHandler	PTR FTN()void  size(3) Largest target is 1
		 -> UART1_DefaultOverrunErrorHandler(), 

    UART1_SetFramingErrorHandler@interruptHandler	PTR FTN()void  size(3) Largest target is 1
		 -> UART1_DefaultFramingErrorHandler(), 

    UART1_ErrorHandler	PTR FTN()void  size(3) Largest target is 1
		 -> Absolute function(), UART1_DefaultErrorHandler(), 

    UART1_OverrunErrorHandler	PTR FTN()void  size(3) Largest target is 1
		 -> Absolute function(), UART1_DefaultOverrunErrorHandler(), 

    UART1_FramingErrorHandler	PTR FTN()void  size(3) Largest target is 1
		 -> Absolute function(), UART1_DefaultFramingErrorHandler(), 

    UART5_SetErrorHandler@interruptHandler	PTR FTN()void  size(3) Largest target is 1
		 -> UART5_DefaultErrorHandler(), 

    UART5_SetOverrunErrorHandler@interruptHandler	PTR FTN()void  size(3) Largest target is 1
		 -> UART5_DefaultOverrunErrorHandler(), 

    UART5_SetFramingErrorHandler@interruptHandler	PTR FTN()void  size(3) Largest target is 1
		 -> UART5_DefaultFramingErrorHandler(), 

    UART5_ErrorHandler	PTR FTN()void  size(3) Largest target is 1
		 -> Absolute function(), UART5_DefaultErrorHandler(), 

    UART5_OverrunErrorHandler	PTR FTN()void  size(3) Largest target is 1
		 -> Absolute function(), UART5_DefaultOverrunErrorHandler(), 

    UART5_FramingErrorHandler	PTR FTN()void  size(3) Largest target is 1
		 -> Absolute function(), UART5_DefaultFramingErrorHandler(), 


Critical Paths under _main in COMRAM

    None.

Critical Paths under _INTERRUPT_InterruptManager in COMRAM

    _sensor_interrupt->_sprintf
    _sprintf->_vfprintf
    _send_data->_send_AT
    _send_AT->_UART1_Write
    _send_AT->_UART1_is_tx_ready
    _printf->_vfprintf
    _vfprintf->_vfpfcnvrt
    _vfpfcnvrt->_efgtoa
    _xtoa->_pad
    _toupper->_islower
    _utoa->_pad
    _stoa->_fputc
    _efgtoa->___flsub
    _tolower->_isupper
    _pad->_fputs
    _fputs->_fputc
    _fputc->_putch
    _putch->_UART5_Write
    _floorf->___fldiv
    ___flsub->___fladd
    ___fladd->___flmul
    ___flmul->___xxtofl
    ___flge->___flmul
    _atoi->_isspace

Critical Paths under _main in BANK5

    None.

Critical Paths under _INTERRUPT_InterruptManager in BANK5

    _TMR0_ISR->_sensor_interrupt
    _sensor_interrupt->_printf
    _sensor_interrupt->_sprintf
    _sprintf->_vfprintf
    _printf->_vfprintf
    _vfprintf->_vfpfcnvrt
    _vfpfcnvrt->_efgtoa

Critical Paths under _main in BANK6

    _main->_TMR0_SetInterruptHandler
    _UART5_Initialize->_UART5_SetErrorHandler
    _UART5_Initialize->_UART5_SetFramingErrorHandler
    _UART5_Initialize->_UART5_SetOverrunErrorHandler
    _UART1_Initialize->_UART1_SetErrorHandler
    _UART1_Initialize->_UART1_SetFramingErrorHandler
    _UART1_Initialize->_UART1_SetOverrunErrorHandler
    _TMR0_Initialize->_TMR0_SetInterruptHandler

Critical Paths under _INTERRUPT_InterruptManager in BANK6

    None.

Critical Paths under _main in BANK7

    None.

Critical Paths under _INTERRUPT_InterruptManager in BANK7

    None.

Critical Paths under _main in BANK8

    None.

Critical Paths under _INTERRUPT_InterruptManager in BANK8

    None.

Critical Paths under _main in BANK9

    None.

Critical Paths under _INTERRUPT_InterruptManager in BANK9

    None.

Critical Paths under _main in BANK10

    None.

Critical Paths under _INTERRUPT_InterruptManager in BANK10

    None.

Critical Paths under _main in BANK11

    None.

Critical Paths under _INTERRUPT_InterruptManager in BANK11

    None.

Critical Paths under _main in BANK12

    None.

Critical Paths under _INTERRUPT_InterruptManager in BANK12

    None.

Critical Paths under _main in BANK13

    None.

Critical Paths under _INTERRUPT_InterruptManager in BANK13

    None.

Critical Paths under _main in BANK14

    None.

Critical Paths under _INTERRUPT_InterruptManager in BANK14

    None.

Critical Paths under _main in BANK15

    None.

Critical Paths under _INTERRUPT_InterruptManager in BANK15

    None.

Critical Paths under _main in BANK16

    None.

Critical Paths under _INTERRUPT_InterruptManager in BANK16

    None.

Critical Paths under _main in BANK17

    None.

Critical Paths under _INTERRUPT_InterruptManager in BANK17

    None.

Critical Paths under _main in BANK18

    None.

Critical Paths under _INTERRUPT_InterruptManager in BANK18

    None.

Critical Paths under _main in BANK19

    None.

Critical Paths under _INTERRUPT_InterruptManager in BANK19

    None.

Critical Paths under _main in BANK20

    None.

Critical Paths under _INTERRUPT_InterruptManager in BANK20

    None.

Critical Paths under _main in BANK21

    None.

Critical Paths under _INTERRUPT_InterruptManager in BANK21

    None.

Critical Paths under _main in BANK22

    None.

Critical Paths under _INTERRUPT_InterruptManager in BANK22

    None.

Critical Paths under _main in BANK23

    None.

Critical Paths under _INTERRUPT_InterruptManager in BANK23

    None.

Critical Paths under _main in BANK24

    None.

Critical Paths under _INTERRUPT_InterruptManager in BANK24

    None.

Critical Paths under _main in BANK25

    None.

Critical Paths under _INTERRUPT_InterruptManager in BANK25

    None.

Critical Paths under _main in BANK26

    None.

Critical Paths under _INTERRUPT_InterruptManager in BANK26

    None.

Critical Paths under _main in BANK27

    None.

Critical Paths under _INTERRUPT_InterruptManager in BANK27

    None.

Critical Paths under _main in BANK28

    None.

Critical Paths under _INTERRUPT_InterruptManager in BANK28

    None.

Critical Paths under _main in BANK29

    None.

Critical Paths under _INTERRUPT_InterruptManager in BANK29

    None.

Critical Paths under _main in BANK30

    None.

Critical Paths under _INTERRUPT_InterruptManager in BANK30

    None.

Critical Paths under _main in BANK31

    None.

Critical Paths under _INTERRUPT_InterruptManager in BANK31

    None.

Critical Paths under _main in BANK32

    None.

Critical Paths under _INTERRUPT_InterruptManager in BANK32

    None.

Critical Paths under _main in BANK33

    None.

Critical Paths under _INTERRUPT_InterruptManager in BANK33

    None.

Critical Paths under _main in BANK34

    None.

Critical Paths under _INTERRUPT_InterruptManager in BANK34

    None.

Critical Paths under _main in BANK35

    None.

Critical Paths under _INTERRUPT_InterruptManager in BANK35

    None.

Critical Paths under _main in BANK36

    None.

Critical Paths under _INTERRUPT_InterruptManager in BANK36

    None.

Critical Paths under _main in BANK37

    None.

Critical Paths under _INTERRUPT_InterruptManager in BANK37

    None.

Call Graph Tables:

 ---------------------------------------------------------------------------------
 (Depth) Function   	        Calls       Base Space   Used Autos Params    Refs
 ---------------------------------------------------------------------------------
 (0) _main                                                 0     0      0     936
                  _SYSTEM_Initialize
           _TMR0_SetInterruptHandler
 ---------------------------------------------------------------------------------
 (1) _SYSTEM_Initialize                                    0     0      0     762
                    _ADCC_Initialize
               _INTERRUPT_Initialize
              _OSCILLATOR_Initialize
             _PIN_MANAGER_Initialize
                     _PMD_Initialize
                    _TMR0_Initialize
                   _UART1_Initialize
                   _UART5_Initialize
 ---------------------------------------------------------------------------------
 (2) _UART5_Initialize                                     0     0      0     294
              _UART5_SetErrorHandler
       _UART5_SetFramingErrorHandler
       _UART5_SetOverrunErrorHandler
 ---------------------------------------------------------------------------------
 (3) _UART5_SetOverrunErrorHandler                         3     0      3      98
                                              0 BANK6      3     0      3
 ---------------------------------------------------------------------------------
 (3) _UART5_SetFramingErrorHandler                         3     0      3      98
                                              0 BANK6      3     0      3
 ---------------------------------------------------------------------------------
 (3) _UART5_SetErrorHandler                                3     0      3      98
                                              0 BANK6      3     0      3
 ---------------------------------------------------------------------------------
 (2) _UART1_Initialize                                     0     0      0     294
              _UART1_SetErrorHandler
       _UART1_SetFramingErrorHandler
       _UART1_SetOverrunErrorHandler
 ---------------------------------------------------------------------------------
 (3) _UART1_SetOverrunErrorHandler                         3     0      3      98
                                              0 BANK6      3     0      3
 ---------------------------------------------------------------------------------
 (3) _UART1_SetFramingErrorHandler                         3     0      3      98
                                              0 BANK6      3     0      3
 ---------------------------------------------------------------------------------
 (3) _UART1_SetErrorHandler                                3     0      3      98
                                              0 BANK6      3     0      3
 ---------------------------------------------------------------------------------
 (2) _TMR0_Initialize                                      0     0      0     174
           _TMR0_SetInterruptHandler
 ---------------------------------------------------------------------------------
 (1) _TMR0_SetInterruptHandler                             3     0      3     174
                                              0 BANK6      3     0      3
 ---------------------------------------------------------------------------------
 (2) _PMD_Initialize                                       0     0      0       0
 ---------------------------------------------------------------------------------
 (2) _PIN_MANAGER_Initialize                               0     0      0       0
 ---------------------------------------------------------------------------------
 (2) _OSCILLATOR_Initialize                                0     0      0       0
 ---------------------------------------------------------------------------------
 (2) _INTERRUPT_Initialize                                 0     0      0       0
 ---------------------------------------------------------------------------------
 (2) _ADCC_Initialize                                      0     0      0       0
 ---------------------------------------------------------------------------------
 Estimated maximum stack depth 3
 ---------------------------------------------------------------------------------
 (Depth) Function   	        Calls       Base Space   Used Autos Params    Refs
 ---------------------------------------------------------------------------------
 (4) _INTERRUPT_InterruptManager                           4     4      0  100222
                                            104 BANK5      4     4      0
                           _TMR0_ISR
 ---------------------------------------------------------------------------------
 (5) _TMR0_ISR                                             0     0      0  100222
                   Absolute function *
       _TMR0_DefaultInterruptHandler *
                   _sensor_interrupt *
 ---------------------------------------------------------------------------------
 (6) _sensor_interrupt                                    10    10      0  100222
                                             94 BANK5     10    10      0
           _ADCC_GetSingleConversion
                            ___fladd
                            ___flmul
                           ___xxtofl
                             _printf
                          _send_data
                            _sprintf
 ---------------------------------------------------------------------------------
 (7) _sprintf                                             16    10      6   46881
                                             87 COMRAM     8     8      0
                                             88 BANK5      6     0      6
                           _vfprintf
 ---------------------------------------------------------------------------------
 (7) _send_data                                            4     2      2     569
                                              3 COMRAM     4     2      2
                            _send_AT
 ---------------------------------------------------------------------------------
 (8) _send_AT                                              2     0      2     471
                                              1 COMRAM     2     0      2
                        _UART1_Write
                  _UART1_is_tx_ready
 ---------------------------------------------------------------------------------
 (9) _UART1_is_tx_ready                                    1     1      0      24
                                              0 COMRAM     1     1      0
 ---------------------------------------------------------------------------------
 (9) _UART1_Write                                          1     1      0      22
                                              0 COMRAM     1     1      0
 ---------------------------------------------------------------------------------
 (7) _printf                                              10     4      6   46812
                                             87 COMRAM     2     2      0
                                             88 BANK5      6     0      6
                           _vfprintf
 ---------------------------------------------------------------------------------
 (8) _vfprintf                                             8     2      6   46516
                                             85 COMRAM     2     2      0
                                             82 BANK5      6     0      6
                          _vfpfcnvrt
 ---------------------------------------------------------------------------------
 (9) _vfpfcnvrt                                           49    43      6   45886
                                             75 COMRAM    10     4      6
                                             56 BANK5     26    26      0
                               _atoi
                             _efgtoa
                              _fputc
                            _isdigit
                            _isupper
                               _stoa
                            _strncmp
                            _tolower
                               _utoa
                               _xtoa
 ---------------------------------------------------------------------------------
 (10) _xtoa                                               39    28     11    6631
                                             29 COMRAM    39    28     11
                            _isalpha
                            _isupper
                                _pad
                            _toupper
 ---------------------------------------------------------------------------------
 (11) _toupper                                             8     6      2     412
                                              6 COMRAM     8     6      2
                            _islower
 ---------------------------------------------------------------------------------
 (12) _islower                                             6     4      2     161
                                              0 COMRAM     6     4      2
 ---------------------------------------------------------------------------------
 (11) _isalpha                                             6     4      2     161
                                              0 COMRAM     6     4      2
 ---------------------------------------------------------------------------------
 (10) _utoa                                               32    22     10    5747
                                             29 COMRAM    32    22     10
                            ___lodiv
                            ___lomod
                                _pad
 ---------------------------------------------------------------------------------
 (11) ___lomod                                            17     1     16     311
                                              0 COMRAM    17     1     16
 ---------------------------------------------------------------------------------
 (11) ___lodiv                                            25     9     16     314
                                              0 COMRAM    25     9     16
 ---------------------------------------------------------------------------------
 (10) _strncmp                                            11     5      6     453
                                              0 COMRAM    11     5      6
 ---------------------------------------------------------------------------------
 (10) _stoa                                               22    18      4    2183
                                             11 COMRAM    22    18      4
                              _fputc
                             _strlen
 ---------------------------------------------------------------------------------
 (10) _efgtoa                                             68    61      7   24228
                                             63 COMRAM    12     5      7
                                              0 BANK5     56    56      0
                            ___awdiv
                            ___awmod
                            ___fladd
                            ___fldiv
                             ___fleq
                             ___flge
                            ___flmul
                            ___flneg
                            ___flsub
                            ___fltol
                      ___fpclassifyf
                             _floorf
                            _isupper
                                _pad
                             _strcpy
                            _tolower
 ---------------------------------------------------------------------------------
 (10) _tolower                                             8     6      2    1020
                                              6 COMRAM     8     6      2
                            _isupper
 ---------------------------------------------------------------------------------
 (11) _isupper                                             6     4      2     541
                                              0 COMRAM     6     4      2
 ---------------------------------------------------------------------------------
 (11) _strcpy                                             10     6      4     856
                                              0 COMRAM    10     6      4
 ---------------------------------------------------------------------------------
 (11) _pad                                                11     5      6    4697
                                             18 COMRAM    11     5      6
                              _fputc
                              _fputs
                             _strlen
 ---------------------------------------------------------------------------------
 (12) _strlen                                              4     2      2     242
                                              0 COMRAM     4     2      2
 ---------------------------------------------------------------------------------
 (12) _fputs                                               7     3      4    1735
                                             11 COMRAM     7     3      4
                              _fputc
 ---------------------------------------------------------------------------------
 (13) _fputc                                               9     5      4    1334
                                              2 COMRAM     9     5      4
                              _putch
 ---------------------------------------------------------------------------------
 (14) _putch                                               1     1      0      44
                                              1 COMRAM     1     1      0
                        _UART5_Write
 ---------------------------------------------------------------------------------
 (15) _UART5_Write                                         1     1      0      22
                                              0 COMRAM     1     1      0
 ---------------------------------------------------------------------------------
 (11) _floorf                                             20    16      4     490
                                             25 COMRAM    20    16      4
                            ___fldiv (ARG)
 ---------------------------------------------------------------------------------
 (11) ___fpclassifyf                                      14    10      4     287
                                              0 COMRAM    14    10      4
 ---------------------------------------------------------------------------------
 (11) ___fltol                                            10     6      4     381
                                              0 COMRAM    10     6      4
 ---------------------------------------------------------------------------------
 (11) ___flsub                                             8     0      8    3041
                                             55 COMRAM     8     0      8
                            ___fladd
                            ___flmul (ARG)
 ---------------------------------------------------------------------------------
 (12) ___fladd                                            16     8      8    2566
                                             39 COMRAM    16     8      8
                            ___flmul (ARG)
                           ___xxtofl (ARG)
 ---------------------------------------------------------------------------------
 (11) ___flneg                                             4     0      4     121
                                              0 COMRAM     4     0      4
 ---------------------------------------------------------------------------------
 (11) ___flmul                                            25    17      8    2808
                                             14 COMRAM    25    17      8
                           ___xxtofl (ARG)
 ---------------------------------------------------------------------------------
 (11) ___flge                                             12     4      8     790
                                             39 COMRAM    12     4      8
                            ___flmul (ARG)
 ---------------------------------------------------------------------------------
 (11) ___fleq                                             12     4      8     646
                                              0 COMRAM    12     4      8
 ---------------------------------------------------------------------------------
 (11) ___fldiv                                            25    17      8    2007
                                              0 COMRAM    25    17      8
 ---------------------------------------------------------------------------------
 (11) ___awmod                                             6     2      4     448
                                              0 COMRAM     6     2      4
 ---------------------------------------------------------------------------------
 (11) ___awdiv                                             8     4      4     452
                                              0 COMRAM     8     4      4
 ---------------------------------------------------------------------------------
 (10) _atoi                                               15    13      2    1488
                                              7 COMRAM    15    13      2
                             ___wmul
                            _isdigit
                            _isspace
 ---------------------------------------------------------------------------------
 (11) _isspace                                             7     5      2     207
                                              0 COMRAM     7     5      2
 ---------------------------------------------------------------------------------
 (10) _isdigit                                             6     4      2     313
                                              0 COMRAM     6     4      2
 ---------------------------------------------------------------------------------
 (11) ___wmul                                              6     2      4     495
                                              0 COMRAM     6     2      4
 ---------------------------------------------------------------------------------
 (7) ___xxtofl                                            14    10      4     398
                                              0 COMRAM    14    10      4
 ---------------------------------------------------------------------------------
 (7) _ADCC_GetSingleConversion                             5     3      2      22
                                              0 COMRAM     5     3      2
 ---------------------------------------------------------------------------------
 (6) _TMR0_DefaultInterruptHandler                         0     0      0       0
 ---------------------------------------------------------------------------------
 (6) Absolute function(Fake)                               0     0      0       0
 ---------------------------------------------------------------------------------
 Estimated maximum stack depth 15
 ---------------------------------------------------------------------------------

 Call Graph Graphs:

 _main (ROOT)
   _SYSTEM_Initialize
     _ADCC_Initialize
     _INTERRUPT_Initialize
     _OSCILLATOR_Initialize
     _PIN_MANAGER_Initialize
     _PMD_Initialize
     _TMR0_Initialize
       _TMR0_SetInterruptHandler
     _UART1_Initialize
       _UART1_SetErrorHandler
       _UART1_SetFramingErrorHandler
       _UART1_SetOverrunErrorHandler
     _UART5_Initialize
       _UART5_SetErrorHandler
       _UART5_SetFramingErrorHandler
       _UART5_SetOverrunErrorHandler
   _TMR0_SetInterruptHandler

 _INTERRUPT_InterruptManager (ROOT)
   _TMR0_ISR
     Absolute function(Fake) *
     _TMR0_DefaultInterruptHandler *
     _sensor_interrupt *
       _ADCC_GetSingleConversion
       ___fladd
         ___flmul (ARG)
           ___xxtofl (ARG)
         ___xxtofl (ARG)
       ___flmul
       ___xxtofl
       _printf
         _vfprintf
           _vfpfcnvrt
             _atoi
               ___wmul
               _isdigit
               _isspace
             _efgtoa
               ___awdiv
               ___awmod
               ___fladd
               ___fldiv
               ___fleq
               ___flge
                 ___flmul (ARG)
               ___flmul
               ___flneg
               ___flsub
                 ___fladd
                 ___flmul (ARG)
               ___fltol
               ___fpclassifyf
               _floorf
                 ___fldiv (ARG)
               _isupper
               _pad
                 _fputc
                   _putch
                     _UART5_Write
                 _fputs
                   _fputc
                 _strlen
               _strcpy
               _tolower
                 _isupper
             _fputc
             _isdigit
             _isupper
             _stoa
               _fputc
               _strlen
             _strncmp
             _tolower
             _utoa
               ___lodiv
               ___lomod
               _pad
             _xtoa
               _isalpha
               _isupper
               _pad
               _toupper
                 _islower
       _send_data
         _send_AT
           _UART1_Write
           _UART1_is_tx_ready
       _sprintf
         _vfprintf

 Address spaces:
Name               Size   Autos  Total    Cost      Usage
BIGRAM            20FF      0       0      71        0.0%
EEDATA             400      0       0       0        0.0%
BITBANK37          100      0       0      70        0.0%
BANK37             100      0       0      68        0.0%
BITBANK36          100      0       0      66        0.0%
BANK36             100      0       0      67        0.0%
BITBANK35          100      0       0      64        0.0%
BANK35             100      0       0      65        0.0%
BITBANK34          100      0       0      62        0.0%
BANK34             100      0       0      63        0.0%
BITBANK33          100      0       0      60        0.0%
BANK33             100      0       0      61        0.0%
BITBANK32          100      0       0      58        0.0%
BANK32             100      0       0      59        0.0%
BITBANK31          100      0       0      56        0.0%
BANK31             100      0       0      57        0.0%
BITBANK30          100      0       0      54        0.0%
BANK30             100      0       0      55        0.0%
BITBANK29          100      0       0      52        0.0%
BANK29             100      0       0      53        0.0%
BITBANK28          100      0       0      50        0.0%
BANK28             100      0       0      51        0.0%
BITBANK27          100      0       0      48        0.0%
BANK27             100      0       0      49        0.0%
BITBANK26          100      0       0      46        0.0%
BANK26             100      0       0      47        0.0%
BITBANK25          100      0       0      44        0.0%
BANK25             100      0       0      45        0.0%
BITBANK24          100      0       0      42        0.0%
BANK24             100      0       0      43        0.0%
BITBANK23          100      0       0      40        0.0%
BANK23             100      0       0      41        0.0%
BITBANK22          100      0       0      38        0.0%
BANK22             100      0       0      39        0.0%
BITBANK21          100      0       0      36        0.0%
BANK21             100      0       0      37        0.0%
BITBANK20          100      0       0      34        0.0%
BANK20             100      0       0      35        0.0%
BITBANK19          100      0       0      32        0.0%
BANK19             100      0       0      33        0.0%
BITBANK18          100      0       0      30        0.0%
BANK18             100      0       0      31        0.0%
BITBANK17          100      0       0      28        0.0%
BANK17             100      0       0      29        0.0%
BITBANK16          100      0       0      26        0.0%
BANK16             100      0       0      27        0.0%
BITBANK15          100      0       0      24        0.0%
BANK15             100      0       0      25        0.0%
BITBANK14          100      0       0      22        0.0%
BANK14             100      0       0      23        0.0%
BITBANK13          100      0       0      20        0.0%
BANK13             100      0       0      21        0.0%
BITBANK12          100      0       0      18        0.0%
BANK12             100      0       0      19        0.0%
BITBANK11          100      0       0      16        0.0%
BANK11             100      0       0      17        0.0%
BITBANK10          100      0       0      14        0.0%
BANK10             100      0       0      15        0.0%
BITBANK9           100      0       0      12        0.0%
BANK9              100      0       0      13        0.0%
BITBANK8           100      0       0      10        0.0%
BANK8              100      0       0      11        0.0%
BITBANK7           100      0       0       8        0.0%
BANK7              100      0       0       9        0.0%
BITBANK6           100      0       0       6        0.0%
BANK6              100      3      67       7       40.2%
BITBANK5            A0      0       0       4        0.0%
BANK5               A0     6C      88       5       85.0%
BITCOMRAM           5F      0       0       0        0.0%
COMRAM              5F     5F      5F       1      100.0%
BITSFR_5             0      0       0     200        0.0%
SFR_5                0      0       0     200        0.0%
BITSFR_4             0      0       0     200        0.0%
SFR_4                0      0       0     200        0.0%
BITSFR_3             0      0       0     200        0.0%
SFR_3                0      0       0     200        0.0%
BITSFR_2             0      0       0     200        0.0%
SFR_2                0      0       0     200        0.0%
BITSFR_1             0      0       0     200        0.0%
SFR_1                0      0       0     200        0.0%
BITSFR               0      0       0     200        0.0%
SFR                  0      0       0     200        0.0%
STACK                0      0       0       2        0.0%
NULL                 0      0       0       0        0.0%
ABS                  0      0     14E      69        0.0%
DATA                 0      0     14E       3        0.0%
CODE                 0      0       0       0        0.0%


Microchip Technology PIC18 Macro Assembler V2.32 build 20210201212658 
Symbol Table                                                                                   Fri Jun 04 19:36:34 2021

                                ___fldiv@aexp 0519                                  ___fldiv@bexp 0518  
                                ___fldiv@sign 0511                                  ___awdiv@sign 0506  
                         ___wmul@multiplicand 0503                             UART5_Write@txData 0501  
                                         l103 5EDE                                           l216 6224  
                                         l153 68BE                                           l156 68DA  
                                         l159 687A                                           l263 6926  
                                         l266 6918                                           l348 640E  
                                         l604 696C                                           l533 6950  
                                         l269 6934                                           l550 6982  
                                         l536 6942                                           l539 695E  
                                         l492 61B4                                           l582 67A8  
                                         l638 6896                                           _pad 5C9E  
                     __size_of_PMD_Initialize 0024                                  ___awmod@sign 0506  
                                         tosl 0004FD                                           wreg 0004E8  
                                ___flmul@aexp 0520                                  ___flmul@bexp 0521  
                                ___flmul@sign 051B                                  ___flmul@temp 0526  
                                ___flmul@prod 0522                                  ___fltol@exp1 050A  
                                        l5501 63B4                                          ?_pad 0513  
                                        l5511 67A2                                          l5503 6774  
                                        l5505 678C                                          l5521 61AE  
                                        l5513 613A                                          l5507 678E  
                                        l5515 6178                                          l5363 691A  
                                        l5531 621E                                          l5523 61B6  
                                        l5509 6790                                          l5381 6944  
                                        l5517 618A                                          l5365 690C  
                                        l5525 61E8                                          l5471 5E52  
                                        l5383 6936                                          l5519 619C  
                                        l5367 6928                                          l5527 61FA  
                                        l5551 68A2                                          l5481 5EB6  
                                        l5473 5E54                                          l5385 6952  
                                        l5529 620C                                          l5561 68B6  
                                        l5553 68A6                                          l5641 6894  
                                        l5491 5EC4                                          l5483 5EBC  
                                        l5475 5EB0                                          l5467 5E28  
                                        l5387 6960                                          l5563 68BA  
                                        l5555 68AA                                          l5493 5ECA  
                                        l5485 5EBE                                          l5477 5EB2  
                                        l5469 5E48                                          l5557 68AE  
                                        l5549 689E                                          l5637 687C  
                                        l5495 6980                                          l5487 5EC0  
                                        l5479 5EB4                                          l5559 68B2  
                                        l5639 6892                                          l5489 5EC2  
                                        l5497 6858                                          l5499 68C0  
                                        STR_1 2625                                          STR_2 264A  
                                        STR_3 2616                                          STR_4 2601  
                                        STR_5 2644                                          STR_6 2634  
                                        STR_7 263D                                          STR_8 263A  
                                        STR_9 264F                                          _LATA 0004BE  
                                        _LATB 0004BF                                          _LATC 0004C0  
                                        _LATD 0004C1                                          _LATE 0004C2  
                                        _LATF 0004C3                                          _PMD0 000060  
                                        _PMD1 000061                                          _PMD3 000063  
                                        _PMD4 000064                                          _PMD5 000065  
                                        _PMD6 000066                                          _PMD7 000067  
                                        _PMD8 000068                                          _WPUA 000401  
                                        _WPUB 000409                                          _WPUC 000411  
                                        _WPUD 000419                                          _WPUE 000421  
                                        _WPUF 000429              _UART5_DefaultFramingErrorHandler 000000  
                                        _dbuf 0602                                          _atoi 501C  
                                        _main 687C                                          _prec 05D8  
                                        _nout 05D4                                          pad@i 051A  
                                        pad@p 0517                                          fsr0h 0004EA  
                                        fsr1h 0004E2                                          indf0 0004EF  
                                        fsr2h 0004DA                                          fsr0l 0004E9  
                                        indf2 0004DF                                          fsr1l 0004E1  
                                        pad@w 051C                                          fsr2l 0004D9  
                                        _stoa 5388                                          _utoa 4E18  
                                        _xtoa 4928                                 ___fpclassifyf 571C  
                                        prodh 0004F4                                          prodl 0004F3  
                                        start 001A                               ___fldiv@new_exp 0512  
                                _tolower$2047 050D                                  ___param_bank 000000  
                                       ??_pad 0519                    __size_of_UART1_is_tx_ready 002A  
                     __end_of_TMR0_Initialize 67AA                ??_TMR0_DefaultInterruptHandler 0501  
              __size_of_OSCILLATOR_Initialize 001C                 __end_of_OSCILLATOR_Initialize 68DC  
                               ___fltol@sign1 0509                                         _ADCAP 0003F0  
                                       _ADACT 0003F9                                         ?_atoi 0508  
                             __end_of___fladd 4140                                         ?_main 0501  
                                       _ADCLK 0003FA                                         _ADCNT 0003E6  
                                       _ADPCH 0003EC                               __end_of___fldiv 4928  
                                       _ADREF 0003F8                               __end_of___awdiv 5E28  
                             __end_of___flneg 673C                                         STR_10 2657  
                                       STR_13 2653                                         STR_14 265B  
                                       STR_17 265F                                         STR_19 265F  
                             __end_of___awmod 5F90                                         _ADRPT 0003E7  
                             __end_of___flmul 458E                               __end_of___flsub 6598  
                             __end_of___fltol 5618                                         ?_stoa 050C  
                                       ?_utoa 051E                               __end_of___lodiv 5AF6  
                             ___awdiv@divisor 0503                                         ?_xtoa 051E  
                                       _U1P1H 0002A6                                         _U1P2H 0002A8  
                                       _U1P1L 0002A5                                         _U1P3H 0002AA  
                                       _U1P2L 0002A7                                         _U1P3L 0002A9  
                             __end_of___lomod 5C9E                                         _U5P1L 0002F1  
                                       _U5P2L 0002F3                                         _U5P3L 0002F5  
                                       _U1UIR 0002B1                                         _U1RXB 0002A1  
                                       _U1TXB 0002A3                                         i2l242 68F6  
                                       i2l251 6976                                         i2l500 6804  
                                       i2l245 690A                                         i2l360 67BA  
                                       i2l521 68F2                                         i2l601 661C  
                                       i2l363 67DA                                         i2l518 68DE  
                                       i2l607 6984                                         _U5UIR 0002FD  
                                       _U5RXB 0002ED                                         i2l644 5914  
                                       i2l661 682E                                         i2l557 6448  
                                       i2l655 6138                                         i2l920 6038  
                                       i2l648 5A04                                         i2l905 5F8E  
                                       i2l658 60BA                                         _U5TXB 0002EF  
                                       i2l931 571A                                         i2l499 6802  
                                       i2l926 56D4                                         i2l935 673A  
                                       i2l892 5E26                               ___awdiv@counter 0505  
                                       i2l958 5616                                         _OSCEN 0000B3  
                                vfpfcnvrt@fmt 054E                                         _TMR0H 000319  
                                vfpfcnvrt@llu 05A2                                         _TMR0L 000318  
                                       _TRISA 0004C6                                         _TRISB 0004C7  
                                       _TRISC 0004C8                                         _TRISD 0004C9  
                                       _TRISE 0004CA                                         _TRISF 0004CB  
           __size_of_TMR0_SetInterruptHandler 000E                     ?_TMR0_SetInterruptHandler 0664  
                   __size_of_UART5_Initialize 0070                              __end_of_TMR0_ISR 661E  
                                       _flags 05DA                                         _fputc 5AF6  
                             __end_of_isalpha 665A                                         _fputs 6598  
                             __end_of_isdigit 6774                                         atoi@n 0515  
                                       pad@fp 0513                                         atoi@s 0508  
                                       _width 05D6                                         _putch 696E  
                             __end_of_send_AT 613A                               __end_of_islower 66CC  
                             __end_of_isspace 6506                               __end_of_isupper 6704  
                                       pclath 0004FA                                         tablat 0004F5  
                                       plusw1 0004E3                                         plusw2 0004DB  
                                       stoa@i 0518                                         stoa@l 0520  
                                       stoa@p 051E                                         stoa@s 050E  
                                       stoa@w 051A                                         utoa@d 0520  
                                       utoa@i 053C                                         utoa@n 0534  
                                       utoa@p 0530                                         utoa@w 0532  
                                       status 0004D8                               __end_of_sprintf 64B4  
                              ?___fpclassifyf 0501                               __end_of_tolower 6356  
                                       xtoa@c 0543                                         xtoa@d 0520  
                                       xtoa@i 0541                                         xtoa@n 0539  
                                       xtoa@p 0535                                         xtoa@w 0537  
                                       xtoa@x 0528                               __end_of_strncmp 5914  
                             __end_of_toupper 63B4                              ___lodiv@dividend 0501  
            _UART1_DefaultFramingErrorHandler 000000                                  _toupper$2062 050D  
                       sensor_interrupt@value 05C6                               __initialization 6506  
                                __end_of_atoi 51D4                                  __end_of_main 689E  
                                __end_of_stoa 5512                                  __end_of_utoa 501C  
                                __end_of_xtoa 4C06                ??_UART5_SetOverrunErrorHandler 0667  
                 ?_INTERRUPT_InterruptManager 0501                                  ?_UART1_Write 0501  
                                      ??_atoi 050A                         _UART1_is_tx_ready$920 0501  
                                      ??_main 0667                                  ?_UART5_Write 0501  
                                      ??_stoa 0510                                        ??_utoa 0528  
                                      ??_xtoa 0529                                 __activetblptr 000003  
                           ?_sensor_interrupt 0501                              ___lodiv@quotient 0511  
                            _UART1_Initialize 613A                            ??_sensor_interrupt 0560  
                                      _ADACCH 0003E4                                        _ADACCL 0003E3  
                                      _ADACCU 0003E5                                        _ADACQH 0003EF  
                                      _ADACQL 0003EE                                        _ADCON0 0003F3  
                                      _ADCON1 0003F4                                        _ADCON2 0003F5  
                                      _ADCON3 0003F6                                        _ADERRH 0003DE  
                                      _ADERRL 0003DD                            _UART5_ErrorHandler 065B  
                                      ?_fputc 0503                                        _ADLTHH 0003DA  
                                      _ACTCON 0000AC                                        _ADLTHL 0003D9  
                                      ?_fputs 050C                                        _ADRESH 0003EB  
                                      _ADRESL 0003EA                                        _ADPREH 0003F2  
                                      _ADPREL 0003F1                                        _ADSTAT 0003F7  
                                      _ADUTHH 0003DC                              ___awdiv@dividend 0501  
                                      _ADUTHL 0003DB                                        _ANSELA 000400  
                                      ?_putch 0501                                        _ANSELB 000408  
                                      _ANSELC 000410                                        _ANSELD 000418  
                                      _ANSELE 000420                                        _ANSELF 000428  
              __size_of_UART5_SetErrorHandler 000E                                        _T0CON0 00031A  
                                      _T0CON1 00031B                                        _RB1I2C 000289  
                                      _RB2I2C 000288                                        _U1CON0 0002AB  
                                      _U1CON1 0002AC                                        _U1CON2 0002AD  
                                      _RC3I2C 000287                                        _RC4I2C 000286  
                                      _U1BRGH 0002AF                                        _U1FIFO 0002B0  
                                      _U1BRGL 0002AE                 __end_of_UART5_SetErrorHandler 6936  
                                      _U5CON0 0002F7                                        _U5CON1 0002F8  
                                      _U5CON2 0002F9                                        _U5BRGH 0002FB  
                                      _U5FIFO 0002FC                                        _U5BRGL 0002FA  
                                      _RC2PPS 000213                                        _ODCONA 000402  
                                      _ODCONB 00040A                                        _ODCONC 000412  
                                      _RF0PPS 000229                                        _ODCOND 00041A  
                                      _ODCONE 000422                                        _ODCONF 00042A  
                                      i2l1106 5AF4                                        i2l1116 5C9C  
                                      i2l1109 5C7C                                        i2l1206 3F88  
                                      i2l1215 4058                                        i2l1231 6596  
                                      i2l1216 4046                                        i2l1330 531E  
                                      i2l1323 52C2                                        i2l1243 4926  
                                      i2l1316 522A                                        i2l1500 54BE  
                                      i2l1245 4786                                        i2l1501 5508  
                                      i2l1254 47CC                                        i2l1190 3E5C  
                                      i2l1510 4E50                                        i2l1319 5386  
                                      i2l1191 3E22                                        i2l1407 32BE  
                                      i2l1256 4844                                        i2l1248 474A  
                                      i2l1520 501A                                        i2l1512 4E58  
                                      i2l1257 4832                                        i2l4001 4118  
                                      i2l1425 2A50                                        i2l1505 5510  
                                      i2l1282 441E                                        i2l1275 4204  
                                      i2l4003 411E                                        i2l4011 6598  
                                      i2l1099 5AD4                                        i2l1339 64B2  
                                      i2l1292 454E                                        i2l1284 4496  
                                      i2l4101 46C4                                        i2l1285 4484  
                                      i2l4005 412C                                        i2l1189 3E6E  
                                      i2l1701 5BCC                                        i2l4013 65A4  
                                      i2l4021 6666                                        i2l1453 2E90  
                                      i2l1525 4960                                        i2l1198 413E  
                                      i2l1550 4C04                                        i2l1534 49FE  
                                      i2l4111 4716                                        i2l4103 46DE  
                                      i2l1279 458C                                        i2l4007 412E  
                                      i2l4015 65B6                                        i2l4023 666A  
                                      i2l1527 4968                                        i2l1607 6286  
                                      i2l1384 5CE4                                        i2l1608 628E  
                                      i2l4121 4772                                        i2l4113 4726  
                                      i2l4105 46EE                                        i2l4201 41AE  
                                      i2l4017 65BA                                        i2l4025 6686  
                                      i2l5001 4E88                                        i2l4033 6694  
                                      i2l1650 51D2                                        i2l1618 5818  
                                      i2l1722 62F4                                        i2l4131 47B2  
                                      i2l4123 4774                                        i2l4115 473A  
                                      i2l4107 46FE                                        i2l4051 45BA  
                                      i2l4043 458E                                        i2l4211 41EE  
                                      i2l4203 41BC                                        i2l4019 665A  
                                      i2l1387 5D26                                        i2l1491 5410  
                                      i2l5011 4F1A                                        i2l5003 4E92  
                                      i2l1732 5912                                        i2l1548 4B9E  
                                      i2l1564 33CA                                        i2l1716 6856  
                                      i2l4037 6806                                        i2l5101 505C  
                                      i2l4141 47EE                                        i2l4133 47BC  
                                      i2l4125 4784                                        i2l4117 4748  
                                      i2l4109 470E                                        i2l4061 45F4  
                                      i2l4053 45CA                                        i2l4045 459A  
                                      i2l4301 4570                                        i2l4221 4238  
                                      i2l4213 41F4                                        i2l4205 41BE  
                                      i2l1709 65DA                                        i2l1389 5D62  
                                      i2l4029 66CC                                        i2l5021 4FE2  
                                      i2l5005 4E98                                        i2l5013 4F7E  
                                      i2l1742 634C                                        i2l4039 6826  
                                      i2l1647 51CA                                        i2l5111 50BA  
                                      i2l5103 509A                                        i2l4151 4860  
                                      i2l4143 47FC                                        i2l4135 47CA  
                                      i2l4127 4796                                        i2l4119 4754  
                                      i2l4071 4620                                        i2l4063 45FA  
                                      i2l4055 45DA                                        i2l4047 45A8  
                                      i2l4303 4572                                        i2l4231 4294  
                                      i2l4223 4248                                        i2l4215 4214  
                                      i2l4207 41CE                                        i2l4311 6552  
                                      i2l5015 4F90                                        i2l5023 4FF2  
                                      i2l5007 4F0E                                        i2l5031 493A  
                                      i2l1672 6772                                        i2l1680 6504  
                                      i2l1656 4E16                                        i2l1728 6692  
                                      i2l1760 63B2                                        i2l5121 5144  
                                      i2l5113 50C2                                        i2l5105 509E  
                                      i2l4321 5D76                                        i2l4161 48CC  
                                      i2l4153 486E                                        i2l4145 482A  
                                      i2l4129 47AC                                        i2l4137 47DC  
                                      i2l4081 465A                                        i2l4073 4630  
                                      i2l4065 4600                                        i2l4057 45DC  
                                      i2l4049 45AA                                        i2l4401 5FCE  
                                      i2l4305 4578                                        i2l4241 42DA  
                                      i2l4233 42A0                                        i2l4225 4252  
                                      i2l4217 4224                                        i2l4209 41DE  
                                      i2l4313 6562                                        i2l1489 5408  
                                      i2l5017 4FAE                                        i2l5009 4F14  
                                      i2l5041 49AE                                        i2l5033 4954  
                                      i2l1666 6658                                        i2l5115 50CA  
                                      i2l4331 5D9C                                        i2l4323 5D7E  
                                      i2l4171 491A                                        i2l4163 48E6  
                                      i2l4155 4898                                        i2l4139 47EA  
                                      i2l4083 4670                                        i2l4075 4640  
                                      i2l4067 460E                                        i2l4059 45E4  
                                      i2l4403 5FFC                                        i2l4307 457C  
                                      i2l4251 4348                                        i2l4243 42EA  
                                      i2l4235 42AC                                        i2l4227 426C  
                                      i2l1659 4D5A                                        i2l1747 6354  
                                      i2l5019 4FC8                                        i2l1755 63AA  
                                      i2l5051 49F2                                        i2l5043 49B8  
                                      i2l5035 497E                                        i2l5027 4928  
                                      i2l5211 3406                                        i2l5203 335C  
                                      i2l1596 393A                                        i2l5125 518A  
                                      i2l5117 5106                                        i2l5109 50A4  
                                      i2l4341 5DD4                                        i2l4333 5DA4  
                                      i2l4325 5D82                                        i2l4317 5D64  
                                      i2l4173 491C                                        i2l4165 4902  
                                      i2l4149 4854                                        i2l4157 489C  
                                      i2l4085 4680                                        i2l4093 46A0  
                                      i2l4077 4642                                        i2l4069 4610  
                                      i2l4405 600C                                        i2l4421 5694  
                                      i2l4413 5618                                        i2l4261 43E6  
                                      i2l4253 4358                                        i2l4245 42FA  
                                      i2l4237 42BA                                        i2l4229 4278  
                                      i2l4181 4140                                        i2l5141 5850  
                                      i2l4501 5A9A                                        i2l5061 4A7E  
                                      i2l5045 49BE                                        i2l5037 4986  
                                      i2l5029 4938                                        i2l5301 3AAC  
                                      i2l1589 3C7E                                        i2l5221 34A6  
                                      i2l5213 3450                                        i2l5205 33B8  
                                      i2l1686 6702                                        i2l1766 66CA  
                                      i2l5127 519C                                        i2l4351 5E00  
                                      i2l4343 5DDA                                        i2l4335 5DB6  
                                      i2l4327 5D90                                        i2l4319 5D68  
                                      i2l4167 4906                                        i2l4159 48B6  
                                      i2l4095 46B0                                        i2l4087 4688  
                                      i2l4079 464A                                        i2l4407 6030  
                                      i2l4431 5718                                        i2l4423 56A2  
                                      i2l4415 5646                                        i2l4271 443C  
                                      i2l4263 4404                                        i2l4255 4378  
                                      i2l4247 4318                                        i2l4239 42CA  
                                      i2l4191 417C                                        i2l4183 414C  
                                      i2l5151 58E4                                        i2l5143 585E  
                                      i2l5135 581A                                        i2l4503 5ABA  
                                      i2l4511 5BEC                                        i2l5071 4AC2  
                                      i2l5063 4A90                                        i2l5055 4A32  
                                      i2l5047 49C6                                        i2l5039 49A6  
                                      i2l5311 3B84                                        i2l5303 3AD8  
                                      i2l5231 353C                                        i2l5215 345E  
                                      i2l5207 33D8                                        i2l5129 51AE  
                                      i2l4345 5DF0                                        i2l4337 5DBE  
                                      i2l4353 5E06                                        i2l4329 5D98  
                                      i2l4361 5EE0                                        i2l4169 4914  
                                      i2l4097 46B0                                        i2l4089 468C  
                                      i2l4409 6036                                        i2l4425 56B4  
                                      i2l4417 5656                                        i2l4281 44A6  
                                      i2l4273 4440                                        i2l4265 440E  
                                      i2l4257 43A2                                        i2l4249 4328  
                                      i2l4193 418C                                        i2l4185 415A  
                                      i2l4601 4DBA                                        i2l3801 5B24  
                                      i2l5145 587A                                        i2l5137 5844  
                                      i2l4505 5ABC                                        i2l4521 5C64  
                                      i2l4513 5BF4                                        i2l5081 4B8E  
                                      i2l5057 4A44                                        i2l5065 4AA4  
                                      i2l5049 49E2                                        i2l5073 4B20  
                                      i2l5321 3C12                                        i2l5305 3B04  
                                      i2l5241 3602                                        i2l5233 354E  
                                      i2l5225 34F6                                        i2l5217 346C  
                                      i2l5209 33DA                                        i2l5161 67FE  
                                      i2l5401 6482                                        i2l4355 5E16  
                                      i2l4347 5DF8                                        i2l4339 5DC6  
                                      i2l4371 5F0C                                        i2l4363 5EE4  
                                      i2l4427 56C2                                        i2l4419 5684  
                                      i2l4291 4508                                        i2l4283 44B2  
                                      i2l4275 444E                                        i2l4267 441C  
                                      i2l4259 43D8                                        i2l4195 4192  
                                      i2l4187 415C                                        i2l4435 6704  
                                      i2l3811 3C8C                                        i2l4451 5566  
                                      i2l4443 5512                                        i2l4603 4DCE  
                                      i2l3803 5B42                                        i2l4531 5CD0  
                                      i2l5147 589E                                        i2l4507 5ACE  
                                      i2l4523 5C76                                        i2l4515 5C08  
                                      i2l4611 661E                                        i2l5083 4BAE  
                                      i2l5075 4B3C                                        i2l5067 4AB6  
                                      i2l5307 3B24                                        i2l5315 3BC0  
                                      i2l5251 369E                                        i2l5235 357A  
                                      i2l5219 3494                                        i2l5227 3508  
                                      i2l5171 32EC                                        i2l5331 3C3C  
                                      i2l5155 67DC                                        i2l5411 605C  
                                      i2l5403 64A0                                        i2l5421 51D6  
                                      i2l5093 501C                                        i2l4357 5E1E  
                                      i2l4349 5DFA                                        i2l4381 5F44  
                                      i2l4373 5F14                                        i2l4365 5EF2  
                                      i2l4429 5712                                        i2l4293 451C  
                                      i2l4285 44C0                                        i2l4277 447C  
                                      i2l4269 442E                                        i2l4197 41A2  
                                      i2l4189 416C                                        i2l4437 671A  
                                      i2l3901 3E40                                        i2l3821 3CCC  
                                      i2l3813 3C9A                                        i2l4453 5568  
                                      i2l4445 5528                                        i2l4605 4DF6  
                                      i2l3805 5B78                                        i2l4541 5D36  
                                      i2l4533 5CDC                                        i2l4525 5C9E  
                                      i2l5149 58B0                                        i2l4517 5C16  
                                      i2l4509 5BCE                                        i2l4621 639E  
                                      i2l5085 4BB4                                        i2l5077 4B5A  
                                      i2l5069 4ABC                                        i2l5333 3C68  
                                      i2l5317 3BEC                                        i2l5325 3C1E  
                                      i2l5309 3B36                                        i2l5261 3764  
                                      i2l5253 36E0                                        i2l5245 3652  
                                      i2l5237 35C8                                        i2l5229 3534  
                                      i2l5181 3322                                        i2l5173 32FE  
                                      i2l5165 68DE                                        i2l5157 67E0  
                                      i2l5413 607E                                        i2l5423 51E6  
                                      i2l4631 64B8                                        i2l5095 5030  
                                      i2l4391 5F7E                                        i2l4383 5F5A  
                                      i2l4375 5F26                                        i2l4367 5EFA  
                                      i2l4295 4536                                        i2l4287 44EA  
                                      i2l4199 41A8                                        i2l4439 672A  
                                      i2l3911 3E8C                                        i2l3903 3E4E  
                                      i2l3831 3CFE                                        i2l3823 3CCE  
                                      i2l3815 3C9C                                        i2l4455 5578  
                                      i2l4551 577A                                        i2l4607 4E06  
                                      i2l4543 5D4A                                        i2l4535 5CF0  
                                      i2l4527 5CAE                                        i2l4519 5C44  
                                      i2l4615 6356                                        i2l5087 4BC6  
                                      i2l5079 4B74                                        i2l5327 3C30  
                                      i2l5319 3BFE                                        i2l5271 3814  
                                      i2l5263 3776                                        i2l5255 36F0  
                                      i2l5239 35F0                                        i2l5247 3664  
                                      i2l5191 3344                                        i2l5183 3338  
                                      i2l5175 3310                                        i2l5167 68EC  
                                      i2l5159 67EE                                        i2l5351 60FE  
                                      i2l5415 608A                                        i2l5407 603A  
                                      i2l5441 52AC                                        i2l5433 5264  
                                      i2l5425 51F4                                        i2l4625 673C  
                                      i2l4633 64CC                                        i2l5097 5034  
                                      i2l4393 5F86                                        i2l4385 5F62  
                                      i2l4377 5F2E                                        i2l4369 5EFE  
                                      i2l4297 4552                                        i2l4289 44EE  
                                      i2l3921 3ECC                                        i2l3905 3E50  
                                      i2l3841 3D26                                        i2l3833 3D00  
                                      i2l3817 3CAC                                        i2l3825 3CD6  
                                      i2l3809 3C80                                        i2l4481 55F6  
                                      i2l4465 55A2                                        i2l4457 557C  
                                      i2l4449 553C                                        i2l4561 57CC  
                                      i2l4553 57A2                                        i2l4537 5D04  
                                      i2l4529 5CC2                                        i2l4801 2D6C  
                                      i2l4721 29B0                                        i2l4713 28E8  
                                      i2l4641 2664                                        i2l5089 4BDC  
                                      i2l5265 37BA                                        i2l5257 3732  
                                      i2l5249 368E                                        i2l5177 3314  
                                      i2l5169 32C0                                        i2l5361 6262  
                                      i2l5353 6102                                        i2l5345 60BC  
                                      i2l5417 6096                                        i2l5409 6046  
                                      _INLVLA 000404                                        _INLVLB 00040C  
                                      i2l5371 67B2                                        i2l5451 532C  
                                      i2l5443 52B8                                        i2l5435 526C  
                                      i2l5427 523A                                        i2l4635 64FA  
                                      i2l5099 5038                                        i2l4387 5F68  
                                      i2l4379 5F36                                        i2l4299 4562  
                                      i2l3931 3EF6                                        i2l3923 3ED8  
                                      i2l3915 3EA0                                        i2l3907 3E5A  
                                      i2l3851 3D60                                        i2l3843 3D36  
                                      i2l3835 3D06                                        i2l3827 3CE6  
                                      i2l3819 3CBC                                        i2l4483 5606  
                                      i2l4475 55CA                                        i2l4467 55AC  
                                      i2l4459 558A                                        i2l4555 57AE  
                                      i2l4547 571C                                        i2l4539 5D08  
                                      i2l4571 62A0                                        i2l4811 2E40  
                                      i2l4803 2D7C                                        i2l4731 2A10  
                                      i2l4723 29B8                                        i2l4715 291C  
                                      i2l4707 2898                                        i2l4651 26B8  
                                      i2l4643 266E                                        i2l4491 5A30  
                                      i2l4619 638C                                        i2l5275 389C  
                                      i2l5259 3744                                        i2l5195 334A  
                                      i2l5187 333E                                        i2l5179 3320  
                                      i2l5355 6226                                        i2l5347 60C0  
                                      i2l5419 60A2                                        _INLVLC 000414  
                                      _INLVLD 00041C                                        i2l5373 67B6  
                                      i2l5461 5374                                        i2l5453 532E  
                                      i2l5445 52F4                                        i2l5437 5278  
                                      i2l5429 5250                                        i2l4637 64FE  
                                      i2l4629 64B4                                        i2l4389 5F6E  
                                      i2l4397 5F90                                        i2l3941 3F68  
                                      i2l3925 3EDC                                        i2l3917 3EB0  
                                      i2l3909 3E7C                                        i2l3933 3EFC  
                                      i2l3861 3D8C                                        i2l3853 3D72  
                                      i2l3845 3D46                                        i2l3837 3D14  
                                      i2l3829 3CEC                                        i2l4477 55D6  
                                      i2l4469 55B6                                        i2l4565 5810  
                                      i2l4549 573C                                        i2l4573 62F6  
                                      i2l4901 3160                                        i2l4821 2E88  
                                      i2l4813 2E54                                        i2l4805 2DB0  
                                      i2l4733 2A22                                        i2l4717 2922  
                                      i2l4725 29EA                                        i2l4709 28B2  
                                      i2l4661 26FC                                        i2l4653 26C2  
                                      i2l4645 267E                                        i2l4493 5A38  
                                      i2l5293 39E8                                        i2l5277 38AE  
                                      i2l5285 3952                                        i2l5269 37E6  
                                      i2l5357 622E                                        i2l5349 60D4  
                                      i2l5541 59C2                                        i2l5533 5916  
                                      _INLVLE 000424                                        _INLVLF 00042C  
                                      i2l5375 67B8                                        i2l5463 5376  
                                      i2l5455 5332                                        i2l5447 5300  
                                      i2l5439 52AA                                        i2l4399 5FBE  
                                      i2l3951 3FC2                                        i2l3935 3F22  
                                      i2l3943 3F78                                        i2l3927 3EEA  
                                      i2l3919 3EBE                                        i2l3871 3DA0  
                                      i2l3863 3D90                                        i2l3855 3D80  
                                      i2l3847 3D48                                        i2l3839 3D16  
                                      i2l4479 55E6                                        i2l4559 57BA  
                                      i2l4591 4C9E                                        i2l4583 4C06  
                                      i2l3791 6904                                        i2l4903 3166  
                                      i2l4911 31B6                                        i2l4831 2F44  
                                      i2l4823 2EAC                                        i2l4807 2E06  
                                      i2l4815 2E58                                        i2l4751 2AD2  
                                      i2l4735 2A2A                                        i2l4727 29FA  
                                      i2l4719 297C                                        i2l4663 2708  
                                      i2l4671 271E                                        i2l4655 26CA  
                                      i2l4647 268C                                        i2l4495 5A4C  
                                      i2l4487 5A06                                        i2l5295 3A14  
                                      i2l5287 397E                                        i2l5279 38F6  
                                      i2l5199 3350                                        i2l5359 623C  
                                      i2l5391 6838                                        i2l5543 59D8  
                                      i2l5535 5924                                        i2l5631 6444  
                                      i2l5377 67C8                                        i2l5369 67AC  
                                      i2l5457 5356                                        i2l5449 530E  
                                      i2l3961 3FF2                                        i2l3953 3FCC  
                                      i2l3945 3F9E                                        i2l3937 3F56  
                                      i2l3929 3EEC                                        i2l3881 3DB4  
                                      i2l3873 3DA4                                        i2l3865 3D94  
                                      i2l3857 3D84                                        i2l3849 3D50  
                                      i2l4585 4C26                                        i2l3793 6970  
                                      i2l4569 6290                                        i2l4577 632C  
                                      i2l4921 3206                                        i2l4913 31C8  
                                      i2l4905 318C                                        i2l4841 2F8A  
                                      i2l4833 2F52                                        i2l4825 2F10  
                                      i2l4817 2E68                                        i2l4809 2E0C  
                                      i2l4761 2B0A                                        i2l4753 2ADA  
                                      i2l4745 2A6E                                        i2l4737 2A44  
                                      i2l4729 29FE                                        i2l4681 27A8  
                                      i2l4673 2744                                        i2l4665 2710  
                                      i2l4657 26DC                                        i2l4649 2694  
                                      i2l4497 5A5A                                        i2l4489 5A12  
                                      i2l5297 3A74                                        i2l5289 39C8  
                                      i2l5545 59F6                                        i2l5537 598E  
                                      i2l5459 5366                                        i2l3971 401A  
                                      i2l3963 3FF6                                        i2l3955 3FDA  
                                      i2l3947 3FAE                                        i2l3939 3F58  
                                      i2l3891 3DEE                                        i2l3883 3DB8  
                                      i2l3875 3DA8                                        i2l3867 3D98  
                                      i2l3859 3D88                                        i2l4595 4D0E  
                                      i2l4587 4C7C                                        i2l3795 5AF6  
                                      i2l4579 633E                                        i2l4923 320E  
                                      i2l4915 31E2                                        i2l4907 31A8  
                                      i2l4851 2FB4                                        i2l4843 2F8E  
                                      i2l4827 2F20                                        i2l4835 2F5A  
                                      i2l4819 2E7C                                        i2l4771 2B54  
                                      i2l4763 2B18                                        i2l4747 2A80  
                                      i2l4755 2ADE                                        i2l4739 2A5C  
                                      i2l4691 2818                                        i2l4683 27C0  
                                      i2l4667 2714                                        i2l4659 26EA  
                                      i2l4499 5A6C                                        i2l5395 6462  
                                      i2l5547 5A02                                        i2l5539 59A4  
                                      i2l5627 6428                                        i2l3981 4074  
                                      i2l3973 4028                                        i2l3965 4006  
                                      i2l3957 3FDC                                        i2l3893 3E0A  
                                      i2l3885 3DBC                                        i2l3877 3DAC  
                                      i2l3869 3D9C                                        i2l4597 4D4A  
                                      i2l4589 4C90                                        i2l3789 68F6  
                                      i2l3797 5B08                                        i2l4941 3298  
                                      i2l4933 3260                                        i2l4925 3220  
                                      i2l4917 31E8                                        i2l4909 31B0  
                                      i2l4861 2FE8                                        i2l4853 2FBA  
                                      i2l4845 2F94                                        i2l4837 2F6C  
                                      i2l4829 2F32                                        i2l4781 2B9A  
                                      i2l4773 2B66                                        i2l4765 2B1C  
                                      i2l4757 2AE6                                        i2l4749 2A9C  
                                      i2l4685 27CA                                        i2l4677 277A  
                                      i2l4669 2718                                        i2l5389 6830  
                                      i2l5397 6472                                        i2l5629 6436  
                                      i2l3991 40DE                                        i2l3983 4082  
                                      i2l3975 403E                                        i2l3959 3FEA  
                                      i2l3967 4008                                        i2l3895 3E1A  
                                      i2l3879 3DB0                                        i2l3887 3DC0  
                                      i2l4599 4D7E                                        i2l3799 5B1A  
                                      i2l4943 329E                                        i2l4935 3272  
                                      i2l4927 3226                                        i2l4919 31FA  
                                      i2l4847 2FA0                                        i2l4839 2F7A  
                                      i2l4855 2FC0                                        i2l4863 2FEE  
                                      i2l4871 3086                                        i2l4791 2CAE  
                                      i2l4783 2BFE                                        i2l4767 2B2E  
                                      i2l4775 2B6E                                        i2l4759 2AF8  
                                      i2l4695 284E                                        i2l4679 278C  
                                      i2l4951 539A                                        i2l5399 647A  
                                      i2l5591 65DE                                        i2l3993 40FE  
                                      i2l3985 40BC                                        i2l3969 4016  
                                      i2l3897 3E30                                        i2l3889 3DC4  
                                      i2l4937 327E                                        i2l4929 322C  
                                      i2l4881 30F0                                        i2l4873 30A4  
                                      i2l4865 3046                                        i2l4857 2FD2  
                                      i2l4849 2FB0                                        i2l4793 2CE2  
                                      i2l4785 2C56                                        i2l4777 2B76  
                                      i2l4769 2B3C                                        i2l4697 2860  
                                      i2l4689 27F2                                        i2l4961 53D8  
                                      i2l4953 53A2                                        i2l5593 65E6  
                                      i2l3995 4102                                        i2l3979 4068  
                                      i2l3987 40BE                                        i2l3899 3E3C  
                                      i2l4939 3286                                        i2l4891 312E  
                                      i2l4883 30F4                                        i2l4875 30C0  
                                      i2l4867 307A                                        i2l4859 2FE4  
                                      i2l4795 2D14                                        i2l4787 2C8A  
                                      i2l4779 2B86                                        i2l4699 287C  
                                      i2l4971 544C                                        i2l4963 53E6  
                                      i2l4955 53B4                                        i2l5595 65EC  
                                      i2l3997 4110                                        i2l3989 40CE  
                                      i2l4893 3136                                        i2l4885 3104  
                                      i2l4877 30D2                                        i2l4869 3082  
                                      i2l4797 2D2A                                        i2l4789 2C90  
                                      i2l4981 54A0                                        i2l4973 546A  
                                      i2l4957 53BC                                        i2l4949 5388  
                                      i2l5693 338A                                        i2l5597 6602  
                                      i2l5589 65DC                                        i2l5695 50F0  
                                      i2l3999 4116                                        i2l4895 3144  
                                      i2l4887 3116                                        i2l4879 30E0  
                                      i2l4799 2D5C                                        i2l4975 5476  
                                      i2l4967 5434                                        i2l4959 53D0  
                                      i2l4991 4E18                                        i2l4897 314C  
                                      i2l4889 311E                                        i2l4985 54D2  
                                      i2l4977 5498                                        i2l4969 5448  
                                      i2l4993 4E28                                        i2l4899 3154  
                                      i2l4987 54E6                                        i2l4979 549C  
                                      i2l4995 4E2A                                        i2l4989 54EA  
                                      i2l4997 4E44                                        i2l4999 4E80  
                                      _OSCFRQ 0000B1                                 vfpfcnvrt@done 059A  
                       _UART1_SetErrorHandler 6952                              __end_of___xxtofl 5388  
                                vfprintf@cfmt 0556                     _UART5_OverrunErrorHandler 065E  
                                      ___flge 5618                                        ___fleq 5F90  
                                   ??___fladd 0530                                        ___wmul 6806  
                                   ??___fldiv 0509                                     ??___awdiv 0505  
                                   ??___flneg 0505                                     ??___awmod 0505  
                                   ??___flmul 0517                                     ??___flsub 0540  
                                   ??___fltol 0505                                     ??___lodiv 0511  
                                   ??___lomod 0511                                        _efgtoa 2664  
                                      _floorf 4C06                              ?_TMR0_Initialize 0501  
                                      clear_0 652C                                        clear_1 6538  
                            ___awdiv@quotient 0507                               ___awmod@divisor 0503  
                                      isa$std 000001                               ___awmod@counter 0505  
                                      _printf 6830                                        pad@buf 0515  
                                      _strcpy 6290                                        _strlen 665A  
                             _ADCC_Initialize 63B4                                        fputc@c 0503  
                              _PMD_Initialize 6858                                        fputs@c 0510  
                                      fputs@i 0511                                        fputs@s 050C  
                                   ??_isalpha 0503                                     ??_isdigit 0503  
                             ___fpclassifyf@e 0509                               ___fpclassifyf@u 050B  
                             ___fpclassifyf@x 0501                                     ??_send_AT 0504  
                                   ??_islower 0503                                  __mediumconst 0000  
                                   ??_isspace 0503                                        tblptrh 0004F7  
                                   ??_isupper 0503                                        tblptrl 0004F6  
                                      tblptru 0004F8             __size_of_ADCC_GetSingleConversion 0032  
                                      stoa@cp 051C                                        stoa@fp 050C  
                            __end_of_vfprintf 6290                     ?_ADCC_GetSingleConversion 0501  
                                      utoa@fp 051E      TMR0_SetInterruptHandler@InterruptHandler 0664  
        __end_of_UART1_SetOverrunErrorHandler 6944         __size_of_UART1_SetOverrunErrorHandler 000E  
                _UART1_SetOverrunErrorHandler 6936                     _UART1_DefaultErrorHandler 000000  
                                   ??_sprintf 0558                                     ??_tolower 0509  
                                      xtoa@fp 051E                                     ??_strncmp 0507  
                                   ??_toupper 0509                 __size_of_INTERRUPT_Initialize 0004  
                                  ___flge@ff1 0528                                    ___flge@ff2 052C  
                             ??___fpclassifyf 0505                                  ___xxtofl@arg 050B  
                                ___xxtofl@exp 050A                             _SYSTEM_Initialize 689E  
                                ___xxtofl@val 0501                                    ___fleq@ff1 0501  
                                  ___fleq@ff2 0505                                    __accesstop 0560  
                     __end_of__initialization 654C                                    ___flneg@f1 0501  
                          ?_SYSTEM_Initialize 0501                                 ___rparam_used 000001  
                                  ___fltol@f1 0501                                __pcstackCOMRAM 0501  
                                __pidataBANK5 6978                           ??_SYSTEM_Initialize 0667  
                                   ?_TMR0_ISR 0501                                 __end_of_fputc 5BCE  
                               __end_of_fputs 65DC                                 __end_of_putch 6978  
                      __end_of_PMD_Initialize 687C                     _UART1_FramingErrorHandler 0658  
                            _UART5_Initialize 61B6                                       ??_fputc 0507  
                   __end_of_SYSTEM_Initialize 68C0                                       ??_fputs 0510  
                                     ??_putch 0502                                    __pbssBANK5 05CC  
                                  __pbssBANK6 0600                 ?_UART1_SetOverrunErrorHandler 0664  
                      ?_UART1_SetErrorHandler 0664                                       IVTBASEH 00045E  
                                     IVTBASEL 00045D                                       IVTBASEU 00045F  
                                     ?___flge 0528                                       ?___fleq 0501  
            __end_of_TMR0_SetInterruptHandler 696E                                       ?___wmul 0501  
                                  ??_TMR0_ISR 0560                       __end_of_ADCC_Initialize 6410  
                                     ?_efgtoa 0540                            __size_of_send_data 0082  
                                     _ADFLTRH 0003E2                                       ?_floorf 051A  
                                     _ADFLTRL 0003E1                                       _ADPREVH 0003E9  
                                     _ADPREVL 0003E8                                       _ADSTPTH 0003E0  
                                     _ADSTPTL 0003DF                                       ?_printf 05B8  
                             ?_PMD_Initialize 0501          __end_of_UART5_SetFramingErrorHandler 6928  
       __size_of_UART5_SetFramingErrorHandler 000E                  _UART5_SetFramingErrorHandler 691A  
                                     ?_strcpy 0501                                       ?_strlen 0501  
                                     _U1ERRIE 0002B3                                       _U1ERRIR 0002B2  
                                     _U5ERRIE 0002FF                                       _U5ERRIR 0002FE  
                        __size_of_UART1_Write 0018                                       _U1RXPPS 000272  
                                   ?___xxtofl 0501                                       _U5RXPPS 00027A  
                        __size_of_UART5_Write 0018                                       _OSCCON1 0000AD  
                                     _OSCCON3 0000AF                            __size_of_vfpfcnvrt 09C0  
                                     _OSCTUNE 0000B0                                       _SLRCONA 000403  
                                     _SLRCONB 00040B                                       _SLRCONC 000413  
                                     _SLRCOND 00041B                                       _SLRCONE 000423  
                                     _SLRCONF 00042B                              ___lomod@dividend 0501  
                                     __Hparam 0000                                       __Lparam 0000  
                    __end_of_UART1_Initialize 61B6                               __size_of___flge 0104  
                             __size_of___fleq 00AA                                       ___fladd 3C80  
                                     ___fldiv 458E                                       ___awdiv 5D64  
                                     ___flneg 6704                                       ___awmod 5EE0  
                                     ___flmul 4140                                       ___flsub 6552  
                                     ___fltol 5512                               __size_of___wmul 002A  
                                     ___lodiv 5A06                                       ___lomod 5BCE  
                                   ?_vfprintf 05B2                                  __psmallconst 2600  
                             __size_of_efgtoa 0C5C                               __size_of_floorf 0212  
                                     __pcinit 6506                                       __ramtop 2600  
                                     __ptext0 687C                                       __ptext1 689E  
                                     __ptext2 61B6                                       __ptext3 690C  
                                     __ptext4 691A                                       __ptext5 6928  
                                     __ptext6 613A                                       __ptext7 6936  
                                     __ptext8 6944                                       __ptext9 6952  
                             __size_of_printf 0028                               __size_of_strcpy 0066  
                             __size_of_strlen 003A                         _OSCILLATOR_Initialize 68C0  
               ?_UART5_SetFramingErrorHandler 0664                                  __size_of_pad 00C6  
                                     _isalpha 661E                                       _isdigit 673C  
                                  ??___xxtofl 0505                              ___awmod@dividend 0501  
                                     _send_AT 60BC                                       _islower 6694  
                    ??_PIN_MANAGER_Initialize 0664                                       _isspace 64B4  
                                     _isupper 66CC                                       efgtoa@c 0546  
                                     efgtoa@d 0578                                       efgtoa@e 0590  
                                     efgtoa@f 0542                                       efgtoa@g 058C  
                                     efgtoa@h 0582                                       efgtoa@i 058A  
                                     efgtoa@l 0586                                       efgtoa@m 0572  
                                     efgtoa@n 0592                                       efgtoa@p 057C  
                                     efgtoa@t 056C                                       efgtoa@u 0594  
                                     efgtoa@w 057E                                       atoi@neg 050E  
                  __size_of_SYSTEM_Initialize 0022                                       _sprintf 6462  
                                     _tolower 62F6                                       _strncmp 581A  
                                     _toupper 6356                          end_of_initialization 654C  
                                     floorf@e 0528                                       floorf@m 0524  
                                     floorf@u 052A                                       floorf@x 051A  
                           __end_of_send_data 60BC                                     _PIR13bits 0004BB  
                                     fputc@fp 0505                                       fputs@fp 050E  
                   __size_of_sensor_interrupt 00F2                ??_UART1_SetOverrunErrorHandler 0667  
                           __end_of_vfpfcnvrt 3C80                                    efgtoa@mode 0581  
                                  efgtoa@sign 057A                                       postdec1 0004E5  
                                     postdec2 0004DD                                       postinc0 0004EE  
                                     postinc1 0004E6                                       postinc2 0004DE  
                            ?_ADCC_Initialize 0501                                    ??_vfprintf 0556  
            __end_of_ADCC_GetSingleConversion 67DC                             UART1_Write@txData 0501  
                                     strcpy@d 0509                                       strlen@a 0503  
                                     strcpy@s 0507                                       strlen@s 0501  
                    _TMR0_SetInterruptHandler 6960                                   ___fladd@grs 0537  
                               ___xxtofl@sign 0509                                   ___fldiv@grs 0514  
                                 ___fldiv@rem 050D                                   ___flmul@grs 051C  
                       _UART5_SetErrorHandler 6928                      __end_of_UART5_Initialize 6226  
                        _timer0ReloadVal16bit 05E6                  __end_of_INTERRUPT_Initialize 6984  
                              __end_of___flge 571C                                __end_of___fleq 603A  
                                 vfpfcnvrt@ap 0550                                   vfpfcnvrt@cp 0598  
                                 vfpfcnvrt@ct 05AE                                   vfpfcnvrt@fp 054C  
                              __end_of___wmul 6830                                __end_of_efgtoa 32C0  
                           __size_of_TMR0_ISR 0042                                __end_of_floorf 4E18  
                      ?_OSCILLATOR_Initialize 0501                                    floorf@F527 05CC  
                              __end_of_printf 6858                                __end_of_strcpy 62F6  
                              __end_of_strlen 6694                           start_initialization 6506  
                             ___lodiv@divisor 0509                               ___lodiv@counter 0519  
                    __size_of_TMR0_Initialize 0036               __size_of_PIN_MANAGER_Initialize 00B8  
                                 __end_of_pad 5D64                       ??_UART1_SetErrorHandler 0667  
              ??_UART5_SetFramingErrorHandler 0667                     _UART5_DefaultErrorHandler 000000  
                                 putch@txData 0502                                    ivt0x8_base 0008  
                       __end_of___fpclassifyf 581A                                   vfprintf@fmt 05B4  
                                    ??___flge 0530                                      ??___fleq 0509  
                            ??_PMD_Initialize 0664                                      ??___wmul 0505  
                                    ??_efgtoa 0547                                   __pdataBANK5 05DC  
                                    ??_floorf 051E                                      ??_printf 0558  
            _UART5_DefaultOverrunErrorHandler 000000                                      ??_strcpy 0505  
                                    ??_strlen 0503                                     ___fladd@a 052C  
                                   ___fladd@b 0528                      _ADCC_GetSingleConversion 67AA  
                                   ___fldiv@a 0505                                     ___fldiv@b 0501  
                                   ___flmul@a 0513                                     ___flmul@b 050F  
                                   ___flsub@a 053C                                     ___flsub@b 0538  
                          _UART1_ErrorHandler 0652                                 __pcstackBANK5 0560  
                               __pcstackBANK6 0664                     _UART5_FramingErrorHandler 0661  
                           __size_of___xxtofl 01B4                        ?_UART5_SetErrorHandler 0664  
                            _sensor_interrupt 5914                                     _atoi$1940 0512  
                                   _atoi$1938 0510                                     _atoi$1939 0514  
                       _TMR0_InterruptHandler 05E3                                     __pnvBANK5 05E3  
                                   __pnvBANK6 0652                                   _efgtoa$1841 0560  
                                 _efgtoa$1842 0562                                   _efgtoa$1851 0566  
                                 _efgtoa$1852 0568                                   _efgtoa$1853 056A  
                                 _efgtoa$1847 0564                        _PIN_MANAGER_Initialize 5E28  
                           ?_UART1_Initialize 0501          __end_of_UART1_SetFramingErrorHandler 6952  
       __size_of_UART1_SetFramingErrorHandler 000E                  _UART1_SetFramingErrorHandler 6944  
             ADCC_GetSingleConversion@channel 0505                                      ?___fladd 0528  
                                    ?___fldiv 0501                                      ?___awdiv 0501  
                                    ?___flneg 0501                                      ?___awmod 0501  
                                    ?___flmul 050F                                      ?___flsub 0538  
                                    ?___fltol 0501                                      ?___lodiv 0501  
                                    ?___lomod 0501                            ??_UART1_Initialize 0667  
                            _uart1RxLastError 0600                                 ??_UART1_Write 0501  
                   sensor_interrupt@value_hex 05C2                  ??_INTERRUPT_InterruptManager 05C8  
                               ??_UART5_Write 0501                             __size_of_vfprintf 006A  
                             ___lomod@divisor 0509                                   __smallconst 2600  
                             ___lomod@counter 0511              _UART1_DefaultOverrunErrorHandler 000000  
                                    ?_isalpha 0501                                      ?_isdigit 0501  
                                    ?_send_AT 0502                                      ?_islower 0501  
                                    ?_isspace 0501                                      ?_isupper 0501  
                                    ?_sprintf 05B8                                      ?_tolower 0507  
                              __size_of_fputc 00D8                                __size_of_fputs 0044  
                                    ?_strncmp 0501                                      ?_toupper 0507  
                                 _U1ERRIRbits 0002B2                                __size_of_putch 000A  
                        _INTERRUPT_Initialize 6980                             ??_TMR0_Initialize 0667  
                              ___wmul@product 0505         UART1_SetErrorHandler@interruptHandler 0664  
       UART5_SetErrorHandler@interruptHandler 0664                                      _LATFbits 0004C3  
                                   _send_data 603A                                      _PIE3bits 0004A1  
         __size_of_INTERRUPT_InterruptManager 0052                                      i2u400_40 416C  
                                    i2u400_41 4168                                      i2u401_40 417C  
                                    i2u401_41 4178                                      i2u410_40 444E  
                                    i2u402_40 41BC                                      i2u330_40 5B78  
                                    i2u410_41 444A                                      i2u402_41 41B8  
                                    i2u330_41 5B74                                      i2u411_40 447C  
                                    i2u403_40 41CE                                      i2u331_40 3C9A  
                                    i2u411_41 4478                                      i2u403_41 41CA  
                                    i2u331_41 3C96                                      i2u420_40 5DB6  
                                    i2u412_40 4492                                      i2u404_40 41DE  
                                    i2u340_40 3DEE                                      i2u332_40 3CAC  
                                    i2u500_40 28E4                                      i2u420_41 5DB2  
                                    i2u412_41 448E                                      i2u404_41 41DA  
                                    i2u340_41 3DEA                                      i2u332_41 3CA8  
                                    i2u500_41 28E0                                      i2u421_40 5DD4  
                                    i2u413_40 44A6                                      i2u405_40 4214  
                                    i2u341_40 3E06                                      i2u333_40 3CBC  
                                    i2u501_40 2978                    ??_TMR0_SetInterruptHandler 0667  
                                    i2u421_41 5DD0                                      i2u413_41 44A2  
                                    i2u405_41 4210                                      i2u341_41 3E00  
                                    i2u333_41 3CB8                                      i2u501_41 2974  
                                    i2u422_40 5DF0                                      i2u430_40 5FBE  
                                    i2u414_40 44C0                                      i2u406_40 4224  
                                    i2u350_40 3EEA                                      i2u342_40 3E08  
                                    i2u334_40 3CFE                                      i2u326_40 6904  
                                    i2u510_40 2AF8                                      i2u502_40 29EA  
                                    i2u422_41 5DEC                                      i2u430_41 5FBA  
                                    i2u414_41 44BC                                      i2u406_41 4220  
                                    i2u350_41 3EE6                                      i2u334_41 3CFA  
                                    i2u326_41 6900                                      i2u510_41 2AF4  
                                    i2u502_41 29E6                                      i2u423_40 5E16  
                                    i2u431_40 5FFC                                      i2u415_40 4508  
                                    i2u407_40 43C2                                      i2u351_40 3F22  
                                    i2u343_40 3E30                                      i2u335_40 3D14  
                                    i2u327_40 5B08                                      i2u511_40 2B0A  
                                    i2u503_40 2A10                                      i2u423_41 5E12  
                                    i2u431_41 5FF8                                      i2u415_41 4504  
                                    i2u351_41 3F1E                                      i2u343_41 3E2C  
                                    i2u335_41 3D10                                      i2u327_41 5B04  
                                    i2u511_41 2B06                                      i2u503_41 2A0C  
                                    i2u407_45 43B8                                      i2u424_40 5EF2  
                                    i2u432_40 6030                                      i2u416_40 4536  
                                    i2u408_40 441C                                      i2u360_40 403E  
                                    i2u352_40 3F68                                      i2u344_40 3E4E  
                                    i2u336_40 3D26                                      i2u440_40 555C  
                                    i2u328_40 5B1A                                      i2u520_40 2E06  
                                    i2u512_40 2B18                                      i2u504_40 2A22  
                                    i2u600_40 364A                                      i2u424_41 5EEE  
                                    i2u432_41 602C                                      i2u416_41 4532  
                                    i2u408_41 4418                                      i2u360_41 403A  
                                    i2u352_41 3F64                                      i2u344_41 3E4A  
                                    i2u336_41 3D22                                      i2u328_41 5B16  
                                    i2u520_41 2E02                                      i2u512_41 2B14  
                                    i2u504_41 2A1E                                      i2u600_41 3644  
                                    i2u440_45 5552                                      i2u425_40 5F0C  
                                    i2u433_40 5646                                      i2u417_40 4570  
                                    i2u409_40 443C                                      i2u361_40 4054  
                                    i2u353_40 3F9E                                      i2u345_40 3E6E  
                                    i2u337_40 3D36                                      i2u441_40 558A  
                                    i2u329_40 5B42                                      i2u521_40 2E54  
                                    i2u513_40 2B2E                                      i2u505_40 2A44  
                                    i2u601_40 364C                                      i2u425_41 5F08  
                                    i2u433_41 5642                                      i2u417_41 456C  
                                    i2u409_41 4438                                      i2u361_41 4050  
                                    i2u353_41 3F9A                                      i2u345_41 3E6A  
                                    i2u337_41 3D32                                      i2u441_41 5586  
                                    i2u329_41 5B3E                                      i2u521_41 2E50  
                                    i2u513_41 2B2A                                      i2u505_41 2A40  
                                    i2u418_40 5D76                                      i2u426_40 5F26  
                                    i2u434_40 5684                                      i2u362_40 4068  
                                    i2u354_40 3FAE                                      i2u346_40 3E7C  
                                    i2u338_40 3D72                                      i2u442_40 559E  
                                    i2u370_40 65DA                                      i2u530_40 30A4  
                                    i2u522_40 2E7C                                      i2u514_40 2B3C  
                                    i2u506_40 2A6A                                      i2u450_40 5BEC  
                                    i2u610_40 397E                                      i2u602_40 3664  
                                    i2u418_41 5D72                                      i2u426_41 5F22  
                                    i2u434_41 5680                                      i2u362_41 4064  
                                    i2u354_41 3FAA                                      i2u346_41 3E78  
                                    i2u338_41 3D6E                                      i2u442_41 559A  
                                    i2u370_41 65D6                                      i2u530_41 30A0  
                                    i2u522_41 2E78                                      i2u514_41 2B38  
                                    i2u506_41 2A66                                      i2u450_41 5BE8  
                                    i2u610_41 397A                                      i2u602_41 3660  
                                    i2u419_40 5D90                                      i2u427_40 5F44  
                                    i2u435_40 56A2                                      i2u363_40 4082  
                                    i2u355_40 3FDA                                      i2u347_40 3E8C  
                                    i2u339_40 3D80                                      i2u443_40 55C6  
                                    i2u371_40 6686                                      i2u531_40 30C0  
                                    i2u523_40 2F20                                      i2u515_40 2B66  
                                    i2u507_40 2A80                                      i2u451_40 5C16  
                                    i2u611_40 3A14                                      i2u603_40 369E  
                                    i2u419_41 5D8C                                      i2u427_41 5F40  
                                    i2u435_41 569E                                      i2u363_41 407E  
                                    i2u355_41 3FD6                                      i2u347_41 3E88  
                                    i2u339_41 3D7C                                      i2u443_41 55C2  
                                    i2u371_41 6682                                      i2u531_41 30BC  
                                    i2u523_41 2F1C                                      i2u515_41 2B62  
                                    i2u507_41 2A7C                                      i2u451_41 5C12  
                                    i2u611_41 3A10                                      i2u603_41 369A  
                                    i2u620_40 67C8                                      i2u428_40 5F5A  
                                    i2u380_40 4620                                      i2u436_40 56C2  
                                    i2u364_40 40BC                                      i2u356_40 3FEA  
                                    i2u348_40 3EBE                                      i2u444_40 55E6  
                                    i2u460_40 57CC                                      i2u372_40 66FC  
                                    i2u540_40 325C                                      i2u532_40 30D2  
                                    i2u524_40 2F32                                      i2u516_40 2CAE  
                                    i2u508_40 2A9C                                      i2u452_40 5C44  
                                    i2u612_40 3AD8                                      i2u604_40 36F0  
                                    i2u620_41 67C4                                      i2u428_41 5F56  
                                    i2u380_41 461C                                      i2u436_41 56BE  
                                    i2u364_41 40B8                                      i2u356_41 3FE6  
                                    i2u348_41 3EBA                                      i2u444_41 55E2  
                                    i2u460_41 57C8                                      i2u372_41 66F6  
                                    i2u532_41 30CE                                      i2u524_41 2F2E  
                                    i2u516_41 2CAA                                      i2u508_41 2A98  
                                    i2u452_41 5C40                                      i2u612_41 3AD4  
                                    i2u604_41 36EC                                      i2u621_40 51E6  
                                    i2u429_40 5F7E                                      i2u381_40 4630  
                                    i2u437_40 5712                                      i2u365_40 40CE  
                                    i2u357_40 4006                                      i2u349_40 3ECC  
                                    i2u445_40 55F6                                      i2u453_40 5CAE  
                                    i2u373_40 66FE                                      i2u541_40 3272  
                                    i2u533_40 30E0                                      i2u525_40 2F44  
                                    i2u517_40 2D14                                      i2u509_40 2AD2  
                                    i2u613_40 3B04                                      i2u605_40 3744  
                                    i2u621_41 51E2                                      i2u429_41 5F7A  
                                    i2u381_41 462C                                      i2u437_41 570E  
                                    i2u365_41 40CA                                      i2u357_41 4002  
                                    i2u349_41 3EC8                                      i2u445_41 55F2  
                                    i2u453_41 5CAA                                      i2u541_41 326E  
                                    i2u533_41 30DC                                      i2u525_41 2F40  
                                    i2u517_41 2D10                                      i2u509_41 2ACE  
                                    i2u613_41 3B00                                      i2u605_41 3740  
                                    _PIR3bits 0004B1                                      i2u461_45 57DE  
                                    i2u630_40 5374                                      i2u622_40 51F4  
                                    i2u390_40 47EA                                      i2u382_40 4670  
                                    i2u438_40 671A                                      i2u366_40 40DE  
                                    i2u358_40 4016                                      i2u462_40 5806  
                                    i2u470_40 4C7C                                      i2u454_40 5CD0  
                                    i2u534_40 3116                                      i2u526_40 2F52  
                                    i2u518_40 2D5C                                      i2u550_40 5508  
                                    i2u374_40 66C4                                      i2u614_40 3BEC  
                                    i2u606_40 3814                                      i2u630_41 5370  
                                    i2u622_41 51F0                                      i2u390_41 47E6  
                                    i2u382_41 466C                                      i2u438_41 6716  
                                    i2u366_41 40DA                                      i2u358_41 4012  
                                    i2u462_41 5800                                      i2u470_41 4C78  
                                    i2u454_41 5CCC                                      i2u534_41 3112  
                                    i2u526_41 2F4E                                      i2u518_41 2D58  
                                    i2u550_41 5504                                      i2u542_41 5392  
                                    i2u446_41 5A0C                                      i2u374_41 66BE  
                                    i2u614_41 3BE8                                      i2u606_41 3810  
                                    i2u623_40 5250                                      i2u391_40 47FC  
                                    i2u383_40 46B0                                      i2u367_40 40FE  
                                    i2u359_40 4028                                      i2u439_40 5528  
                                    i2u463_40 5808                                      i2u471_40 4C9E  
                                    i2u455_40 5D26                                      i2u535_40 3144  
                                    i2u527_40 2F6C                                      i2u519_40 2D6C  
                                    i2u543_40 53B4                                      i2u447_40 5A30  
                                    i2u551_40 4E28                                      i2u375_40 66C6  
                                    i2u607_40 3894                                      i2u615_40 60D4  
                                    i2u623_41 524C                                      i2u391_41 47F8  
                                    i2u383_41 46AC                                      i2u367_41 40FA  
                                    i2u359_41 4024                                      i2u439_41 5524  
                                    i2u471_41 4C9A                                      i2u455_41 5D22  
                                    i2u535_41 3140                                      i2u527_41 2F68  
                                    i2u519_41 2D68                                      i2u543_41 53B0  
                                    i2u447_41 5A2C                                      i2u551_41 4E24  
                                    i2u607_41 388E                                      i2u615_41 60D0  
                                    _PIR4bits 0004B2                                      i2u624_40 52A6  
                                    i2u392_40 482A                                      i2u384_40 4726  
                                    i2u376_40 45A8                                      i2u368_40 4110  
                                    i2u456_40 5D36                                      i2u464_40 62E2  
                                    i2u536_40 31C8                                      i2u528_40 2F7A  
                                    i2u544_40 53E6                                      i2u448_40 5A5A  
                                    i2u552_40 4E44                                      i2u480_40 6654  
                                    i2u560_40 497E                                      i2u608_40 3896  
                                    i2u616_40 60FA                                      i2u624_41 52A2  
                                    i2u392_41 4826                                      i2u384_41 4722  
                                    i2u376_41 45A4                                      i2u368_41 410C  
                                    i2u456_41 5D32                                      i2u536_41 31C4  
                                    i2u528_41 2F76                                      i2u544_41 53E2  
                                    i2u448_41 5A56                                      i2u552_41 4E40  
                                    i2u560_41 497A                                      i2u472_45 4CB2  
                                    i2u472_46 4CBC                                      i2u472_47 4CCC  
                                    i2u464_47 62D8                                      i2u616_47 60F0  
                                    i2u625_40 52F0                                      i2u393_40 4840  
                                    i2u385_40 4748                                      i2u377_40 45BA  
                                    i2u369_40 412C                                      i2u457_40 575C  
                                    i2u473_40 4D0A                                      i2u465_40 62F4  
                                    i2u537_40 31E2                                      i2u529_40 2FD2  
                                    i2u545_40 5404                                      i2u449_40 5A9A  
                                    i2u553_40 4F90                                      i2u481_40 6386  
                                    i2u561_40 49E2                                      i2u609_40 38AE  
                                    i2u617_40 6128                                      i2u625_41 52EC  
                                    i2u393_41 483C                                      i2u385_41 4744  
                                    i2u377_41 45B6                                      i2u369_41 4128  
                                    i2u473_41 4D06                                      i2u465_41 62F0  
                                    i2u537_41 31DE                                      i2u529_41 2FCE  
                                    i2u545_41 5400                                      i2u449_41 5A96  
                                    i2u553_41 4F8C                                      i2u481_41 6380  
                                    i2u561_41 49DE                                      i2u609_41 38AA  
                                    i2u457_45 5752                                      i2u617_47 611E  
                                    i2u626_40 530E                                      i2u394_40 4854  
                                    i2u386_40 4772                                      i2u378_40 45CA  
                                    i2u458_40 577A                                      i2u474_40 4D2E  
                                    i2u466_40 6326                                      i2u538_40 31FA  
                                    i2u490_40 26EA                                      i2u546_40 5430  
                                    i2u554_40 4FAE                                      i2u482_40 6388  
                                    i2u570_40 4B5A                                      i2u562_40 4A2C  
                                    i2u618_40 6138                                      i2u626_41 530A  
                                    i2u394_41 4850                                      i2u386_41 476E  
                                    i2u378_41 45C6                                      i2u458_41 5776  
                                    i2u466_41 6320                                      i2u538_41 31F6  
                                    i2u490_41 26E6                                      i2u546_41 542C  
                                    i2u554_41 4FAA                                      i2u570_41 4B56  
                                    i2u562_41 4A26                                      i2u618_41 6134  
                                    i2u474_45 4D24                                      i2u650_47 6072  
                                    i2u627_40 531E                                      i2u395_40 486E  
                                    i2u387_40 4796                                      i2u379_40 460E  
                                    i2u459_40 57A2                                      i2u475_40 4D4A  
                                    i2u467_40 6328                                      i2u539_40 325A  
                                    i2u491_40 26FC                                      i2u547_40 546A  
                                    i2u555_40 4FC8                                      i2u483_40 639E  
                                    i2u571_40 4B74                                      i2u563_40 4A2E  
                                    i2u619_40 6286                                      i2u627_41 531A  
                                    i2u395_41 486A                                      i2u387_41 4792  
                                    i2u379_41 460A                                      i2u459_41 579E  
                                    i2u475_41 4D46                                      i2u539_41 3254  
                                    i2u491_41 26F8                                      i2u547_41 5466  
                                    i2u555_41 4FC4                                      i2u483_41 639A  
                                    i2u571_41 4B70                                      i2u619_41 6282  
                                    i2u651_47 60AC                                      i2u628_40 532C  
                                    i2u484_40 676C                                      i2u580_40 519C  
                                    i2u396_40 48B6                                      i2u388_40 47AC  
                                    i2u476_40 4D9E                                      i2u468_40 633E  
                                    i2u492_40 2744                                      i2u548_40 54BE  
                                    i2u556_40 4FE2                                      i2u572_40 4B8E  
                                    i2u564_40 4A44                                      i2u628_41 5328  
                                    i2u484_41 6766                                      i2u580_41 5198  
                                    i2u396_41 48B2                                      i2u388_41 47A8  
                                    i2u468_41 633A                                      i2u492_41 2740  
                                    i2u548_41 54BA                                      i2u556_41 4FDE  
                                    i2u572_41 4B8A                                      i2u564_41 4A40  
                                    i2u476_45 4D94                                      i2u629_40 5366  
                                    i2u485_40 676E                                      i2u581_40 51AE  
                                    i2u397_40 48E6                                      i2u389_40 47CA  
                                    i2u477_40 4DBA                                      i2u469_40 4C4E  
                                    i2u493_40 2772                                      i2u549_40 54CE  
                                    i2u557_40 4FF2                                      i2u573_40 4B9E  
                                    i2u565_40 4A78                                      i2u629_41 5362  
                                    i2u581_41 51AA                                      i2u397_41 48E2  
                                    i2u389_41 47C6                                      i2u477_41 4DB6  
                                    i2u493_41 276C                                      i2u549_41 54CA  
                                    i2u557_41 4FEE                                      i2u573_41 4B9A  
                                    i2u565_41 4A72                                      i2u469_45 4C44  
                                    i2u486_40 64CC                                      i2u398_40 4914  
                                    i2u478_40 4DF6                                      i2u494_40 2774  
                                    i2u582_40 5844                                      i2u574_40 4BAE  
                                    i2u566_40 4A7A                                      i2u558_40 4938  
                                    i2u590_40 32EC                                      i2u638_40 6602  
                                    i2u486_41 64C8                                      i2u398_41 4910  
                                    i2u478_41 4DF2                                      i2u582_41 5840  
                                    i2u574_41 4BAA                                      i2u558_41 4934  
                                    i2u590_41 32E8                                      i2u638_41 65FE  
                                    i2u487_40 64FA                                      i2u575_40 505C  
                                    i2u399_40 415A                                      i2u495_40 278C  
                                    i2u583_40 587A                                      i2u479_40 6652  
                                    i2u567_40 4A90                                      i2u559_40 4954  
                                    i2u591_40 33CA                                      i2u647_40 6436  
                                    i2u487_41 64F6                                      i2u575_41 5058  
                                    i2u399_41 4156                                      i2u495_41 2788  
                                    i2u583_41 5876                                      i2u479_41 664C  
                                    i2u567_41 4A8C                                      i2u559_41 4950  
                                    i2u591_41 33C6                                      i2u647_41 6432  
                                    i2u576_40 509A                                      i2u496_40 2818  
                                    i2u488_40 268C                                      i2u584_40 589E  
                                    i2u568_40 4AFA                                      i2u592_40 33D8  
                                    i2u639_48 6608                                      i2u648_40 6444  
                                    i2u576_41 5096                                      i2u496_41 2814  
                                    i2u488_41 2688                                      i2u584_41 589A  
                                    i2u592_41 33D4                                      i2u639_49 661C  
                                    i2u648_41 6440                                      i2u568_45 4AE8  
                                    i2u577_40 50B6                                      i2u497_40 2846  
                                    i2u489_40 26DC                                      i2u585_40 58B0  
                                    i2u569_40 4B3C                                      i2u593_40 3406  
                                    i2u577_41 50B2                                      i2u497_41 2840  
                                    i2u489_41 26D8                                      i2u585_41 58AC  
                                    i2u569_41 4B38                                      i2u593_41 3402  
                                    i2u649_47 6050                                      i2u578_40 5184  
                                    i2u498_40 2848                                      i2u586_40 58E4  
                                    i2u594_40 345E                                      i2u578_41 517E  
                                    i2u586_41 58E0                                      i2u594_41 345A  
                                    i2u579_40 5186                                      i2u499_40 2860  
                                    i2u595_40 34EE                                      i2u587_40 67EE  
                                    i2u499_41 285C                                      i2u595_41 34E8  
                                    i2u587_41 67EA                                      i2u596_40 34F0  
                                    i2u588_40 67FE                                      i2u588_41 67FA  
                                    i2u597_40 3508                                      i2u589_40 68EC  
                                    i2u597_41 3504                                      i2u589_41 68E8  
                                    i2u598_40 3534                                      i2u598_41 3530  
                                    i2u599_40 357A                                      i2u599_41 3576  
                                    _TMR0_ISR 65DC                                  send_data@val 0504  
                                 _U5ERRIRbits 0002FE                 ?_UART1_SetFramingErrorHandler 0664  
                                   _vfpfcnvrt 32C0                                     _xtoa$1881 0531  
                                   _xtoa$1882 0533                                    _ADCON0bits 0003F3  
                                  _ADCON1bits 0003F4                                    _ADCON2bits 0003F5  
                                  _ADCON3bits 0003F6                             ___wmul@multiplier 0501  
                         __end_of_UART1_Write 68F4                                  _isspace$1978 0507  
                         __end_of_UART5_Write 690C                                    vfpfcnvrt@c 05B1  
                                  vfpfcnvrt@f 05AA                                   _INTCON0bits 0004D6  
                                   copy_data0 651A                         ?_INTERRUPT_Initialize 0501  
                                  ?_send_data 0504                                    _ADSTATbits 0003F7  
                                    __Hrparam 0000                                    vfprintf@ap 05B6  
                                    __Lrparam 0000                                    vfprintf@fp 05B2  
                           ?_UART5_Initialize 0501                       ??_OSCILLATOR_Initialize 0664  
                            __size_of___fladd 04C0                              __size_of___fldiv 039A  
                            __size_of___awdiv 00C4                              __size_of___flneg 0038  
                          ??_UART5_Initialize 0667                              __size_of___awmod 00B0  
                            __size_of___flmul 044E                              __size_of___flsub 0046  
                            __size_of___fltol 0106                              __size_of___lodiv 00F0  
                            __size_of___lomod 00D0                                    ?_vfpfcnvrt 054C  
                            _uart5RxLastError 0601                            ___fpclassifyf@F465 05D0  
                                  sprintf@fmt 05BA                                      ___xxtofl 51D4  
                                  _T0CON0bits 00031A                      __size_of_ADCC_Initialize 005C  
                            __size_of_isalpha 003C                              __size_of_isdigit 0038  
                                    __pivt0x8 0008                              __size_of_send_AT 007E  
                            __size_of_islower 0038                              __size_of_isspace 0052  
                                    __ptext10 6774                                      __ptext11 6960  
                                    __ptext20 5914                                      __ptext12 6858  
                                    __ptext21 6462                                      __ptext13 5E28  
                                    __ptext30 6356                                      __ptext22 603A  
                                    __ptext14 68C0                                      __ptext31 6694  
                                    __ptext23 60BC                                      __ptext15 6980  
                                    __ptext40 66CC                                      __ptext32 661E  
                                    __ptext24 67DC                                      __ptext16 63B4  
                                    __ptext41 6290                                      __ptext33 4E18  
                                    __ptext25 68DC                                      __ptext17 6410  
                                    __ptext50 5512                                      __ptext42 5C9E  
                                    __ptext34 5BCE                                      __ptext26 6830  
                                    __ptext18 65DC                                      __ptext51 6552  
                                    __ptext43 665A                                      __ptext35 5A06  
                                    __ptext27 6226                                      __ptext19 6984  
                                    __ptext60 501C                                      __ptext52 3C80  
                                    __ptext44 6598                                      __ptext36 581A  
                                    __ptext28 32C0                                      __ptext61 64B4  
                                    __ptext53 6704                                      __ptext45 5AF6  
                                    __ptext37 5388                                      __ptext29 4928  
                                    __ptext62 673C                                      __ptext54 4140  
                                    __ptext46 696E                                      __ptext38 2664  
                                    __ptext63 6806                                      __ptext55 5618  
                                    __ptext47 68F4                                      __ptext39 62F6  
                                    __ptext64 51D4                                      __ptext56 5F90  
                                    __ptext48 4C06                                      __ptext65 67AA  
                                    __ptext57 458E                                      __ptext49 571C  
                                    __ptext66 0000                                      __ptext58 5EE0  
                                    __ptext59 5D64                              __size_of_isupper 0038  
                                  _U1CON0bits 0002AB                __size_of_UART1_SetErrorHandler 000E  
               __end_of_UART1_SetErrorHandler 6960                              __size_of_sprintf 0052  
                            __size_of_tolower 0060                                    strcpy@dest 0501  
                            __size_of_strncmp 00FA                              __size_of_toupper 005E  
                               __size_of_atoi 01B8                                 __size_of_main 0022  
                               __size_of_stoa 018A                                 __size_of_utoa 0204  
                               __size_of_xtoa 02DE                                    _U5CON0bits 0002F7  
        __end_of_TMR0_DefaultInterruptHandler 6986         __size_of_TMR0_DefaultInterruptHandler 0002  
                _TMR0_DefaultInterruptHandler 6984                                      efgtoa@fp 0540  
                                    efgtoa@ne 0570                                      efgtoa@pp 056E  
                                    efgtoa@ou 0574                     _UART1_OverrunErrorHandler 0655  
                                   stoa@F1155 05DC  UART1_SetOverrunErrorHandler@interruptHandler 0664  
UART5_SetOverrunErrorHandler@interruptHandler 0664                           fp__sensor_interrupt 0000  
                                    isa$xinst 000000                    ??_ADCC_GetSingleConversion 0503  
                                    _vfprintf 6226                   sensor_interrupt@moist_level 05BE  
          __end_of_INTERRUPT_InterruptManager 6462                    _INTERRUPT_InterruptManager 6410  
                                   printf@fmt 05B8                                   _UART1_Write 68DC  
                           _UART1_is_tx_ready 67DC                                   _UART5_Write 68F4  
                    __end_of_sensor_interrupt 5A06                ??_UART1_SetFramingErrorHandler 0667  
                              _vfpfcnvrt$1901 05A0                            ?_UART1_is_tx_ready 0501  
                              _vfpfcnvrt$1896 059C                                _vfpfcnvrt$1897 059E  
                                    isalpha@c 0501                                      isdigit@c 0501  
                     ??_UART5_SetErrorHandler 0667                        ??_INTERRUPT_Initialize 0664  
                         ??_UART1_is_tx_ready 0501                                      intlevel2 0000  
                                   sprintf@ap 0558                                      send_AT@t 0502  
                                    islower@c 0501                                      isspace@c 0501  
                     ?_PIN_MANAGER_Initialize 0501          __end_of_UART5_SetOverrunErrorHandler 691A  
       __size_of_UART5_SetOverrunErrorHandler 000E                  _UART5_SetOverrunErrorHandler 690C  
                                   strcpy@src 0503                                   ??_send_data 0506  
                                    isupper@c 0501                                     strncmp@_l 0501  
                                   strncmp@_r 0503               fp__TMR0_DefaultInterruptHandler 0000  
               ?_TMR0_DefaultInterruptHandler 0501                                   efgtoa@nmode 0580  
                                    printf@ap 0558  UART1_SetFramingErrorHandler@interruptHandler 0664  
UART5_SetFramingErrorHandler@interruptHandler 0664                     __end_of_UART1_is_tx_ready 6806  
                                 ??_vfpfcnvrt 0552                                      stoa@nuls 0511  
                                    sprintf@f 055A                                      tolower@c 0507  
                                    sprintf@s 05B8                        __size_of___fpclassifyf 00FE  
                             _TMR0_Initialize 6774                                      strncmp@l 0508  
                                    strncmp@n 0505                                      strncmp@r 050A  
                                    toupper@c 0507                     __size_of_UART1_Initialize 007C  
                               ___fladd@signs 0534                __end_of_PIN_MANAGER_Initialize 5EE0  
                           ??_ADCC_Initialize 0664                                  ___fladd@aexp 0535  
                                ___fladd@bexp 0536                 ?_UART5_SetOverrunErrorHandler 0664  
